(lp0
(lp1
I3
aF23.721000000000004
a(lp2
ccopy_reg
_reconstructor
p3
(cgeometry_msgs.msg._Pose
Pose
p4
c__builtin__
object
p5
Ntp6
Rp7
(lp8
g3
(cgeometry_msgs.msg._Point
Point
p9
g5
Ntp10
Rp11
(lp12
F-12.394384516012606
aF2.276069502910198
aF0.0
abag3
(cgeometry_msgs.msg._Quaternion
Quaternion
p13
g5
Ntp14
Rp15
(lp16
F0.0
aF0.0
aF0.5145570913486207
aF0.8574561211763825
ababag3
(g4
g5
Ntp17
Rp18
(lp19
g3
(g9
g5
Ntp20
Rp21
(lp22
F-12.394384516012606
aF2.276069502910198
aF0.0
abag3
(g13
g5
Ntp23
Rp24
(lp25
F0.0
aF0.0
aF0.5145570913486207
aF0.8574561211763825
ababag3
(g4
g5
Ntp26
Rp27
(lp28
g3
(g9
g5
Ntp29
Rp30
(lp31
F-12.404194804746236
aF2.2891415027097013
aF0.0
abag3
(g13
g5
Ntp32
Rp33
(lp34
F0.0
aF0.0
aF0.6345351308813952
aF0.7728940209869207
ababag3
(g4
g5
Ntp35
Rp36
(lp37
g3
(g9
g5
Ntp38
Rp39
(lp40
F-12.404194804746236
aF2.2891415027097013
aF0.0
abag3
(g13
g5
Ntp41
Rp42
(lp43
F0.0
aF0.0
aF0.6345351308813952
aF0.7728940209869207
ababag3
(g4
g5
Ntp44
Rp45
(lp46
g3
(g9
g5
Ntp47
Rp48
(lp49
F-12.425837152440733
aF2.2975487511519783
aF0.0
abag3
(g13
g5
Ntp50
Rp51
(lp52
F0.0
aF0.0
aF0.8290457434106723
aF0.5591807894881993
ababag3
(g4
g5
Ntp53
Rp54
(lp55
g3
(g9
g5
Ntp56
Rp57
(lp58
F-12.425837152440733
aF2.2975487511519783
aF0.0
abag3
(g13
g5
Ntp59
Rp60
(lp61
F0.0
aF0.0
aF0.8290457434106723
aF0.5591807894881993
ababag3
(g4
g5
Ntp62
Rp63
(lp64
g3
(g9
g5
Ntp65
Rp66
(lp67
F-12.454075353117391
aF2.3000531349271154
aF0.0
abag3
(g13
g5
Ntp68
Rp69
(lp70
F0.0
aF0.0
aF0.9561741150624423
aF0.29279867090640155
ababag3
(g4
g5
Ntp71
Rp72
(lp73
g3
(g9
g5
Ntp74
Rp75
(lp76
F-12.454075353117391
aF2.3000531349271154
aF0.0
abag3
(g13
g5
Ntp77
Rp78
(lp79
F0.0
aF0.0
aF0.9561741150624423
aF0.29279867090640155
ababag3
(g4
g5
Ntp80
Rp81
(lp82
g3
(g9
g5
Ntp83
Rp84
(lp85
F-12.480282123125964
aF2.3074862582056226
aF0.0
abag3
(g13
g5
Ntp86
Rp87
(lp88
F0.0
aF0.0
aF0.9999256614588553
aF0.012193094605996357
ababag3
(g4
g5
Ntp89
Rp90
(lp91
g3
(g9
g5
Ntp92
Rp93
(lp94
F-12.482892302872548
aF2.280942083888199
aF0.0
abag3
(g13
g5
Ntp95
Rp96
(lp97
F0.0
aF0.0
aF-0.6497623400007505
aF0.7601374227840313
ababag3
(g4
g5
Ntp98
Rp99
(lp100
g3
(g9
g5
Ntp101
Rp102
(lp103
F-12.00505154300111
aF1.9516291359430047
aF0.0
abag3
(g13
g5
Ntp104
Rp105
(lp106
F0.0
aF0.0
aF-0.13589947694445045
aF0.9907226312980969
ababag3
(g4
g5
Ntp107
Rp108
(lp109
g3
(g9
g5
Ntp110
Rp111
(lp112
F-11.228463724306378
aF1.8688159339265351
aF0.0
abag3
(g13
g5
Ntp113
Rp114
(lp115
F0.0
aF0.0
aF-0.017314115381749515
aF0.9998500994691891
ababag3
(g4
g5
Ntp116
Rp117
(lp118
g3
(g9
g5
Ntp119
Rp120
(lp121
F-10.209626413007433
aF1.7583873313310427
aF0.0
abag3
(g13
g5
Ntp122
Rp123
(lp124
F0.0
aF0.0
aF-0.1275756032751223
aF0.9918288488690923
ababag3
(g4
g5
Ntp125
Rp126
(lp127
g3
(g9
g5
Ntp128
Rp129
(lp130
F-9.24607504916597
aF1.3716526796109143
aF0.0
abag3
(g13
g5
Ntp131
Rp132
(lp133
F0.0
aF0.0
aF-0.24497466929027664
aF0.9695294793899356
ababag3
(g4
g5
Ntp134
Rp135
(lp136
g3
(g9
g5
Ntp137
Rp138
(lp139
F-8.290713744267213
aF0.9540811846655792
aF0.0
abag3
(g13
g5
Ntp140
Rp141
(lp142
F0.0
aF0.0
aF-0.1630596794636067
aF0.9866162075159853
ababag3
(g4
g5
Ntp143
Rp144
(lp145
g3
(g9
g5
Ntp146
Rp147
(lp148
F-7.593837365321259
aF0.7616341725682766
aF0.0
abag3
(g13
g5
Ntp149
Rp150
(lp151
F0.0
aF0.0
aF-0.1082130953036428
aF0.9941277211730919
ababag3
(g4
g5
Ntp152
Rp153
(lp154
g3
(g9
g5
Ntp155
Rp156
(lp157
F-6.556855088971115
aF0.6056526334816429
aF0.0
abag3
(g13
g5
Ntp158
Rp159
(lp160
F0.0
aF0.0
aF-0.04758086512974503
aF0.998867389233178
ababag3
(g4
g5
Ntp161
Rp162
(lp163
g3
(g9
g5
Ntp164
Rp165
(lp166
F-5.770977013534368
aF0.5299911776272596
aF0.0
abag3
(g13
g5
Ntp167
Rp168
(lp169
F0.0
aF0.0
aF-0.0695997945267133
aF0.9975749939738061
ababag3
(g4
g5
Ntp170
Rp171
(lp172
g3
(g9
g5
Ntp173
Rp174
(lp175
F-4.768019941960322
aF0.29234776492100856
aF0.0
abag3
(g13
g5
Ntp176
Rp177
(lp178
F0.0
aF0.0
aF-0.14919282376152257
aF0.9888081215979485
ababag3
(g4
g5
Ntp179
Rp180
(lp181
g3
(g9
g5
Ntp182
Rp183
(lp184
F-3.8114003455665464
aF-0.059381261347132626
aF0.0
abag3
(g13
g5
Ntp185
Rp186
(lp187
F0.0
aF0.0
aF-0.19139639600597166
aF0.981512821921306
ababag3
(g4
g5
Ntp188
Rp189
(lp190
g3
(g9
g5
Ntp191
Rp192
(lp193
F-3.6128208146828387
aF-0.13974297274761416
aF0.0
abag3
(g13
g5
Ntp194
Rp195
(lp196
F0.0
aF0.0
aF-0.19022437736402142
aF0.9817406410332977
ababag3
(g4
g5
Ntp197
Rp198
(lp199
g3
(g9
g5
Ntp200
Rp201
(lp202
F-3.4214586117019503
aF-0.21694477802088483
aF0.0
abag3
(g13
g5
Ntp203
Rp204
(lp205
F0.0
aF0.0
aF-0.19893676880190464
aF0.9800123274830055
ababag3
(g4
g5
Ntp206
Rp207
(lp208
g3
(g9
g5
Ntp209
Rp210
(lp211
F-3.4214586117019503
aF-0.21694477802088483
aF0.0
abag3
(g13
g5
Ntp212
Rp213
(lp214
F0.0
aF0.0
aF-0.19893676880190464
aF0.9800123274830055
ababag3
(g4
g5
Ntp215
Rp216
(lp217
g3
(g9
g5
Ntp218
Rp219
(lp220
F-3.4214586117019503
aF-0.21694477802088483
aF0.0
abag3
(g13
g5
Ntp221
Rp222
(lp223
F0.0
aF0.0
aF-0.19893676880190464
aF0.9800123274830055
ababaaa(lp224
I3
aF15.880999999999986
a(lp225
g3
(g4
g5
Ntp226
Rp227
(lp228
g3
(g9
g5
Ntp229
Rp230
(lp231
F-12.396931969811035
aF2.2765693875687574
aF0.0
abag3
(g13
g5
Ntp232
Rp233
(lp234
F0.0
aF0.0
aF0.5170239580152383
aF0.8559709263977704
ababag3
(g4
g5
Ntp235
Rp236
(lp237
g3
(g9
g5
Ntp238
Rp239
(lp240
F-12.372718326279594
aF2.326517410706638
aF0.0
abag3
(g13
g5
Ntp241
Rp242
(lp243
F0.0
aF0.0
aF0.39999769986846856
aF0.9165161428474321
ababag3
(g4
g5
Ntp244
Rp245
(lp246
g3
(g9
g5
Ntp247
Rp248
(lp249
F-11.483522624097708
aF2.673865927651408
aF0.0
abag3
(g13
g5
Ntp250
Rp251
(lp252
F0.0
aF0.0
aF-0.02885365562886187
aF0.9995836466033501
ababag3
(g4
g5
Ntp253
Rp254
(lp255
g3
(g9
g5
Ntp256
Rp257
(lp258
F-10.77867050442785
aF2.5259482844227974
aF0.0
abag3
(g13
g5
Ntp259
Rp260
(lp261
F0.0
aF0.0
aF-0.21611430038880441
aF0.9763680705386968
ababag3
(g4
g5
Ntp262
Rp263
(lp264
g3
(g9
g5
Ntp265
Rp266
(lp267
F-9.866142568975459
aF1.8399628830938586
aF0.0
abag3
(g13
g5
Ntp268
Rp269
(lp270
F0.0
aF0.0
aF-0.3161278538145908
aF0.9487165962723435
ababag3
(g4
g5
Ntp271
Rp272
(lp273
g3
(g9
g5
Ntp274
Rp275
(lp276
F-9.231228429531035
aF1.37898297827607
aF0.0
abag3
(g13
g5
Ntp277
Rp278
(lp279
F0.0
aF0.0
aF-0.33808014709029927
aF0.9411173221992046
ababag3
(g4
g5
Ntp280
Rp281
(lp282
g3
(g9
g5
Ntp283
Rp284
(lp285
F-8.464168816484406
aF0.7885589078787072
aF0.0
abag3
(g13
g5
Ntp286
Rp287
(lp288
F0.0
aF0.0
aF-0.2559853488411516
aF0.9666806614278957
ababag3
(g4
g5
Ntp289
Rp290
(lp291
g3
(g9
g5
Ntp292
Rp293
(lp294
F-7.493349899420473
aF0.5084324970834353
aF0.0
abag3
(g13
g5
Ntp295
Rp296
(lp297
F0.0
aF0.0
aF-0.04671628285913015
aF0.9989081984425925
ababag3
(g4
g5
Ntp298
Rp299
(lp300
g3
(g9
g5
Ntp301
Rp302
(lp303
F-6.4334782280193865
aF0.48475562695306934
aF0.0
abag3
(g13
g5
Ntp304
Rp305
(lp306
F0.0
aF0.0
aF-0.009621520339610458
aF0.9999537121018924
ababag3
(g4
g5
Ntp307
Rp308
(lp309
g3
(g9
g5
Ntp310
Rp311
(lp312
F-5.374867079022985
aF0.3819062957707208
aF0.0
abag3
(g13
g5
Ntp313
Rp314
(lp315
F0.0
aF0.0
aF-0.08614323645415385
aF0.9962827624792089
ababag3
(g4
g5
Ntp316
Rp317
(lp318
g3
(g9
g5
Ntp319
Rp320
(lp321
F-4.613893754424856
aF0.18489275444526856
aF0.0
abag3
(g13
g5
Ntp322
Rp323
(lp324
F0.0
aF0.0
aF-0.15190028296422867
aF0.9883958235622949
ababag3
(g4
g5
Ntp325
Rp326
(lp327
g3
(g9
g5
Ntp328
Rp329
(lp330
F-3.868879505873933
aF-0.06980410304633447
aF0.0
abag3
(g13
g5
Ntp331
Rp332
(lp333
F0.0
aF0.0
aF-0.18041019323610163
aF0.9835914610124025
ababag3
(g4
g5
Ntp334
Rp335
(lp336
g3
(g9
g5
Ntp337
Rp338
(lp339
F-3.6429413078355894
aF-0.15448911287522238
aF0.0
abag3
(g13
g5
Ntp340
Rp341
(lp342
F0.0
aF0.0
aF-0.1725256596101131
aF0.9850050237313998
ababag3
(g4
g5
Ntp343
Rp344
(lp345
g3
(g9
g5
Ntp346
Rp347
(lp348
F-3.428491294210043
aF-0.23690048560769675
aF0.0
abag3
(g13
g5
Ntp349
Rp350
(lp351
F0.0
aF0.0
aF-0.211222373629068
aF0.9774380332678396
ababag3
(g4
g5
Ntp352
Rp353
(lp354
g3
(g9
g5
Ntp355
Rp356
(lp357
F-3.428491294210043
aF-0.23690048560769675
aF0.0
abag3
(g13
g5
Ntp358
Rp359
(lp360
F0.0
aF0.0
aF-0.211222373629068
aF0.9774380332678396
ababag3
(g4
g5
Ntp361
Rp362
(lp363
g3
(g9
g5
Ntp364
Rp365
(lp366
F-3.2409871332841838
aF-0.3183804837073943
aF0.0
abag3
(g13
g5
Ntp367
Rp368
(lp369
F0.0
aF0.0
aF-0.3234297808574897
aF0.9462521740289299
ababaaa(lp370
I3
aF15.562000000000126
a(lp371
g3
(g4
g5
Ntp372
Rp373
(lp374
g3
(g9
g5
Ntp375
Rp376
(lp377
F-12.395086799745282
aF2.2807321217529073
aF0.0
abag3
(g13
g5
Ntp378
Rp379
(lp380
F0.0
aF0.0
aF0.5151459337135396
aF0.8571024833579737
ababag3
(g4
g5
Ntp381
Rp382
(lp383
g3
(g9
g5
Ntp384
Rp385
(lp386
F-12.376007496463242
aF2.3309510009804657
aF0.0
abag3
(g13
g5
Ntp387
Rp388
(lp389
F0.0
aF0.0
aF0.3975807251716176
aF0.9175672002485762
ababag3
(g4
g5
Ntp390
Rp391
(lp392
g3
(g9
g5
Ntp393
Rp394
(lp395
F-11.470514950448443
aF2.722152345792486
aF0.0
abag3
(g13
g5
Ntp396
Rp397
(lp398
F0.0
aF0.0
aF-0.017514341306856713
aF0.9998466121603788
ababag3
(g4
g5
Ntp399
Rp400
(lp401
g3
(g9
g5
Ntp402
Rp403
(lp404
F-10.757653128555228
aF2.576257386305087
aF0.0
abag3
(g13
g5
Ntp405
Rp406
(lp407
F0.0
aF0.0
aF-0.22225338488399132
aF0.9749889398898884
ababag3
(g4
g5
Ntp408
Rp409
(lp410
g3
(g9
g5
Ntp411
Rp412
(lp413
F-9.87648798502787
aF1.8536611276026038
aF0.0
abag3
(g13
g5
Ntp414
Rp415
(lp416
F0.0
aF0.0
aF-0.3449829597406025
aF0.9386089481187646
ababag3
(g4
g5
Ntp417
Rp418
(lp419
g3
(g9
g5
Ntp420
Rp421
(lp422
F-9.257860353241593
aF1.361345305587097
aF0.0
abag3
(g13
g5
Ntp423
Rp424
(lp425
F0.0
aF0.0
aF-0.335379071913434
aF0.9420832649625422
ababag3
(g4
g5
Ntp426
Rp427
(lp428
g3
(g9
g5
Ntp429
Rp430
(lp431
F-8.422136653955873
aF0.7721696563440483
aF0.0
abag3
(g13
g5
Ntp432
Rp433
(lp434
F0.0
aF0.0
aF-0.22194502650930378
aF0.9750591803617791
ababag3
(g4
g5
Ntp435
Rp436
(lp437
g3
(g9
g5
Ntp438
Rp439
(lp440
F-7.432279937999917
aF0.5515550483636198
aF0.0
abag3
(g13
g5
Ntp441
Rp442
(lp443
F0.0
aF0.0
aF-0.031205720749780536
aF0.9995129829034172
ababag3
(g4
g5
Ntp444
Rp445
(lp446
g3
(g9
g5
Ntp447
Rp448
(lp449
F-6.3830413001086965
aF0.5067264799889458
aF0.0
abag3
(g13
g5
Ntp450
Rp451
(lp452
F0.0
aF0.0
aF-0.03958645604693112
aF0.9992161490376567
ababag3
(g4
g5
Ntp453
Rp454
(lp455
g3
(g9
g5
Ntp456
Rp457
(lp458
F-5.600275854059474
aF0.40176934481098436
aF0.0
abag3
(g13
g5
Ntp459
Rp460
(lp461
F0.0
aF0.0
aF-0.0901187630415383
aF0.995931025999222
ababag3
(g4
g5
Ntp462
Rp463
(lp464
g3
(g9
g5
Ntp465
Rp466
(lp467
F-4.581840738218098
aF0.11490109166040938
aF0.0
abag3
(g13
g5
Ntp468
Rp469
(lp470
F0.0
aF0.0
aF-0.16815530923442348
aF0.9857605145146946
ababag3
(g4
g5
Ntp471
Rp472
(lp473
g3
(g9
g5
Ntp474
Rp475
(lp476
F-3.8509571308633843
aF-0.12371285971801967
aF0.0
abag3
(g13
g5
Ntp477
Rp478
(lp479
F0.0
aF0.0
aF-0.15403148323394042
aF0.9880659401946574
ababag3
(g4
g5
Ntp480
Rp481
(lp482
g3
(g9
g5
Ntp483
Rp484
(lp485
F-3.6342514474787615
aF-0.19146055164113554
aF0.0
abag3
(g13
g5
Ntp486
Rp487
(lp488
F0.0
aF0.0
aF-0.15383085462497587
aF0.988097195707664
ababag3
(g4
g5
Ntp489
Rp490
(lp491
g3
(g9
g5
Ntp492
Rp493
(lp494
F-3.4257391733789815
aF-0.26028977001511777
aF0.0
abag3
(g13
g5
Ntp495
Rp496
(lp497
F0.0
aF0.0
aF-0.15419991229138733
aF0.9880396687630151
ababag3
(g4
g5
Ntp498
Rp499
(lp500
g3
(g9
g5
Ntp501
Rp502
(lp503
F-3.4257391733789815
aF-0.26028977001511777
aF0.0
abag3
(g13
g5
Ntp504
Rp505
(lp506
F0.0
aF0.0
aF-0.15419991229138733
aF0.9880396687630151
ababag3
(g4
g5
Ntp507
Rp508
(lp509
g3
(g9
g5
Ntp510
Rp511
(lp512
F-3.4257391733789815
aF-0.26028977001511777
aF0.0
abag3
(g13
g5
Ntp513
Rp514
(lp515
F0.0
aF0.0
aF-0.15419991229138733
aF0.9880396687630151
ababaaa.