(lp0
(lp1
I3
aF29.519999999999982
a(lp2
ccopy_reg
_reconstructor
p3
(cgeometry_msgs.msg._Pose
Pose
p4
c__builtin__
object
p5
Ntp6
Rp7
(lp8
g3
(cgeometry_msgs.msg._Point
Point
p9
g5
Ntp10
Rp11
(lp12
F-3.0456768224882778
aF2.3195591126608863
aF0.0
abag3
(cgeometry_msgs.msg._Quaternion
Quaternion
p13
g5
Ntp14
Rp15
(lp16
F0.0
aF0.0
aF0.5254863683748653
aF0.850802019656862
ababag3
(g4
g5
Ntp17
Rp18
(lp19
g3
(g9
g5
Ntp20
Rp21
(lp22
F-3.0108845531604174
aF2.407973002428513
aF0.0
abag3
(g13
g5
Ntp23
Rp24
(lp25
F0.0
aF0.0
aF0.26121211573999775
aF0.9652814255908139
ababag3
(g4
g5
Ntp26
Rp27
(lp28
g3
(g9
g5
Ntp29
Rp30
(lp31
F-2.5320807099860754
aF2.481043474389326
aF0.0
abag3
(g13
g5
Ntp32
Rp33
(lp34
F0.0
aF0.0
aF-0.07156502138266868
aF0.9974359366468095
ababag3
(g4
g5
Ntp35
Rp36
(lp37
g3
(g9
g5
Ntp38
Rp39
(lp40
F-1.3791033339835113
aF2.0859364205805284
aF0.0
abag3
(g13
g5
Ntp41
Rp42
(lp43
F0.0
aF0.0
aF-0.21088617676444255
aF0.9775106242131981
ababag3
(g4
g5
Ntp44
Rp45
(lp46
g3
(g9
g5
Ntp47
Rp48
(lp49
F-0.438515358483775
aF1.7716314844807592
aF0.0
abag3
(g13
g5
Ntp50
Rp51
(lp52
F0.0
aF0.0
aF-0.08873454116054082
aF0.9960553103141553
ababag3
(g4
g5
Ntp53
Rp54
(lp55
g3
(g9
g5
Ntp56
Rp57
(lp58
F0.19845370811593294
aF1.6414419791924721
aF0.0
abag3
(g13
g5
Ntp59
Rp60
(lp61
F0.0
aF0.0
aF-0.14206718829311646
aF0.9898570169526951
ababag3
(g4
g5
Ntp62
Rp63
(lp64
g3
(g9
g5
Ntp65
Rp66
(lp67
F0.8672111288701813
aF1.2059554577949985
aF0.0
abag3
(g13
g5
Ntp68
Rp69
(lp70
F0.0
aF0.0
aF-0.4759770252625783
aF0.8794577144025669
ababag3
(g4
g5
Ntp71
Rp72
(lp73
g3
(g9
g5
Ntp74
Rp75
(lp76
F0.9938106979431681
aF0.4495018711730298
aF0.0
abag3
(g13
g5
Ntp77
Rp78
(lp79
F0.0
aF0.0
aF-0.7990319169153549
aF0.601288612689924
ababag3
(g4
g5
Ntp80
Rp81
(lp82
g3
(g9
g5
Ntp83
Rp84
(lp85
F0.33541983961060085
aF-0.26734822398296315
aF0.0
abag3
(g13
g5
Ntp86
Rp87
(lp88
F0.0
aF0.0
aF-0.9740613402252671
aF0.22628412555580754
ababag3
(g4
g5
Ntp89
Rp90
(lp91
g3
(g9
g5
Ntp92
Rp93
(lp94
F-0.6520084900516258
aF-0.45961276734856943
aF0.0
abag3
(g13
g5
Ntp95
Rp96
(lp97
F0.0
aF0.0
aF0.9996694135289624
aF0.02571115817422971
ababag3
(g4
g5
Ntp98
Rp99
(lp100
g3
(g9
g5
Ntp101
Rp102
(lp103
F-1.6169364913231208
aF-0.27684875254568575
aF0.0
abag3
(g13
g5
Ntp104
Rp105
(lp106
F0.0
aF0.0
aF0.9897747983854989
aF0.1426388743679124
ababag3
(g4
g5
Ntp107
Rp108
(lp109
g3
(g9
g5
Ntp110
Rp111
(lp112
F-2.386260260894478
aF-0.04941733757106967
aF0.0
abag3
(g13
g5
Ntp113
Rp114
(lp115
F0.0
aF0.0
aF0.9899318857920403
aF0.14154455656158216
ababag3
(g4
g5
Ntp116
Rp117
(lp118
g3
(g9
g5
Ntp119
Rp120
(lp121
F-3.220482970814872
aF0.16491237823096352
aF0.0
abag3
(g13
g5
Ntp122
Rp123
(lp124
F0.0
aF0.0
aF0.9947769893984885
aF0.10207223600607297
ababag3
(g4
g5
Ntp125
Rp126
(lp127
g3
(g9
g5
Ntp128
Rp129
(lp130
F-4.380536463417401
aF0.32895142595450705
aF0.0
abag3
(g13
g5
Ntp131
Rp132
(lp133
F0.0
aF0.0
aF0.9973080115615619
aF0.07332618955818983
ababag3
(g4
g5
Ntp134
Rp135
(lp136
g3
(g9
g5
Ntp137
Rp138
(lp139
F-5.180396015276941
aF0.43603204288987646
aF0.0
abag3
(g13
g5
Ntp140
Rp141
(lp142
F0.0
aF0.0
aF0.9976800499745724
aF0.06807729344454554
ababag3
(g4
g5
Ntp143
Rp144
(lp145
g3
(g9
g5
Ntp146
Rp147
(lp148
F-6.5067725337695395
aF0.5659235030678397
aF0.0
abag3
(g13
g5
Ntp149
Rp150
(lp151
F0.0
aF0.0
aF0.9997751771437747
aF0.021203659286402023
ababag3
(g4
g5
Ntp152
Rp153
(lp154
g3
(g9
g5
Ntp155
Rp156
(lp157
F-7.285908803434236
aF0.5874056615832157
aF0.0
abag3
(g13
g5
Ntp158
Rp159
(lp160
F0.0
aF0.0
aF0.9999602029055694
aF0.008921468772146944
ababag3
(g4
g5
Ntp161
Rp162
(lp163
g3
(g9
g5
Ntp164
Rp165
(lp166
F-8.418716777214492
aF0.718744684935911
aF0.0
abag3
(g13
g5
Ntp167
Rp168
(lp169
F0.0
aF0.0
aF0.984565024672353
aF0.17501917664053004
ababag3
(g4
g5
Ntp170
Rp171
(lp172
g3
(g9
g5
Ntp173
Rp174
(lp175
F-9.052551733072402
aF1.0989599997312116
aF0.0
abag3
(g13
g5
Ntp176
Rp177
(lp178
F0.0
aF0.0
aF0.9336120564394873
aF0.35828553985729267
ababag3
(g4
g5
Ntp179
Rp180
(lp181
g3
(g9
g5
Ntp182
Rp183
(lp184
F-9.822907815141793
aF1.7717761572752453
aF0.0
abag3
(g13
g5
Ntp185
Rp186
(lp187
F0.0
aF0.0
aF0.9565240338295983
aF0.29165351481913177
ababag3
(g4
g5
Ntp188
Rp189
(lp190
g3
(g9
g5
Ntp191
Rp192
(lp193
F-10.76540206569523
aF2.160229001025509
aF0.0
abag3
(g13
g5
Ntp194
Rp195
(lp196
F0.0
aF0.0
aF0.9954970380824787
aF0.09479265356034675
ababag3
(g4
g5
Ntp197
Rp198
(lp199
g3
(g9
g5
Ntp200
Rp201
(lp202
F-11.681513838126536
aF2.22415630797337
aF0.0
abag3
(g13
g5
Ntp203
Rp204
(lp205
F0.0
aF0.0
aF0.9999991936973326
aF0.0012698837287755133
ababag3
(g4
g5
Ntp206
Rp207
(lp208
g3
(g9
g5
Ntp209
Rp210
(lp211
F-12.737738064415066
aF2.2126991031907863
aF0.0
abag3
(g13
g5
Ntp212
Rp213
(lp214
F0.0
aF0.0
aF-0.9999702272076777
aF0.007716521121950616
ababag3
(g4
g5
Ntp215
Rp216
(lp217
g3
(g9
g5
Ntp218
Rp219
(lp220
F-13.536061109652719
aF2.20324639494428
aF0.0
abag3
(g13
g5
Ntp221
Rp222
(lp223
F0.0
aF0.0
aF0.9999956553539295
aF0.002947757328032466
ababag3
(g4
g5
Ntp224
Rp225
(lp226
g3
(g9
g5
Ntp227
Rp228
(lp229
F-14.133890592055144
aF2.235684397554383
aF0.0
abag3
(g13
g5
Ntp230
Rp231
(lp232
F0.0
aF0.0
aF0.9969198249646493
aF0.07842743520256844
ababag3
(g4
g5
Ntp233
Rp234
(lp235
g3
(g9
g5
Ntp236
Rp237
(lp238
F-14.133890592055144
aF2.235684397554383
aF0.0
abag3
(g13
g5
Ntp239
Rp240
(lp241
F0.0
aF0.0
aF0.9969198249646493
aF0.07842743520256844
ababag3
(g4
g5
Ntp242
Rp243
(lp244
g3
(g9
g5
Ntp245
Rp246
(lp247
F-14.376647444298252
aF2.3102960271737634
aF0.0
abag3
(g13
g5
Ntp248
Rp249
(lp250
F0.0
aF0.0
aF0.9770101235806711
aF0.2131929136272635
ababag3
(g4
g5
Ntp251
Rp252
(lp253
g3
(g9
g5
Ntp254
Rp255
(lp256
F-14.376647444298252
aF2.3102960271737634
aF0.0
abag3
(g13
g5
Ntp257
Rp258
(lp259
F0.0
aF0.0
aF0.9770101235806711
aF0.2131929136272635
ababag3
(g4
g5
Ntp260
Rp261
(lp262
g3
(g9
g5
Ntp263
Rp264
(lp265
F-14.376647444298252
aF2.3102960271737634
aF0.0
abag3
(g13
g5
Ntp266
Rp267
(lp268
F0.0
aF0.0
aF0.9770101235806711
aF0.2131929136272635
ababag3
(g4
g5
Ntp269
Rp270
(lp271
g3
(g9
g5
Ntp272
Rp273
(lp274
F-14.431697750786329
aF2.346386952235549
aF0.0
abag3
(g13
g5
Ntp275
Rp276
(lp277
F0.0
aF0.0
aF0.8882203187395101
aF0.45941774604196883
ababaaa(lp278
I4
aF49.36000000000013
a(lp279
g3
(g4
g5
Ntp280
Rp281
(lp282
g3
(g9
g5
Ntp283
Rp284
(lp285
F-3.0471914576278585
aF2.3179311070558875
aF0.0
abag3
(g13
g5
Ntp286
Rp287
(lp288
F0.0
aF0.0
aF0.5242593387792454
aF0.8515586566424819
ababag3
(g4
g5
Ntp289
Rp290
(lp291
g3
(g9
g5
Ntp292
Rp293
(lp294
F-3.058756240127233
aF2.328667944525446
aF0.0
abag3
(g13
g5
Ntp295
Rp296
(lp297
F0.0
aF0.0
aF0.4470504130717895
aF0.8945087636084637
ababag3
(g4
g5
Ntp298
Rp299
(lp300
g3
(g9
g5
Ntp301
Rp302
(lp303
F-2.5411004451374035
aF2.530941827980173
aF0.0
abag3
(g13
g5
Ntp304
Rp305
(lp306
F0.0
aF0.0
aF0.050496996584637195
aF0.9987242128515414
ababag3
(g4
g5
Ntp307
Rp308
(lp309
g3
(g9
g5
Ntp310
Rp311
(lp312
F-1.8153966533820702
aF2.5383345538358495
aF0.0
abag3
(g13
g5
Ntp313
Rp314
(lp315
F0.0
aF0.0
aF-0.05135291082423221
aF0.9986805688256273
ababag3
(g4
g5
Ntp316
Rp317
(lp318
g3
(g9
g5
Ntp319
Rp320
(lp321
F-0.6935274740936549
aF2.349331625466508
aF0.0
abag3
(g13
g5
Ntp322
Rp323
(lp324
F0.0
aF0.0
aF-0.12991892445551181
aF0.9915246205053725
ababag3
(g4
g5
Ntp325
Rp326
(lp327
g3
(g9
g5
Ntp328
Rp329
(lp330
F-0.03988335667200453
aF2.1191310696772914
aF0.0
abag3
(g13
g5
Ntp331
Rp332
(lp333
F0.0
aF0.0
aF-0.2716087863943496
aF0.9624077447492765
ababag3
(g4
g5
Ntp334
Rp335
(lp336
g3
(g9
g5
Ntp337
Rp338
(lp339
F0.650856079643898
aF1.4096487674815468
aF0.0
abag3
(g13
g5
Ntp340
Rp341
(lp342
F0.0
aF0.0
aF-0.516038371177269
aF0.8565654671259583
ababag3
(g4
g5
Ntp343
Rp344
(lp345
g3
(g9
g5
Ntp346
Rp347
(lp348
F0.8233652812419047
aF0.7170090504511225
aF0.0
abag3
(g13
g5
Ntp349
Rp350
(lp351
F0.0
aF0.0
aF-0.7358930940759705
aF0.6770977433807432
ababag3
(g4
g5
Ntp352
Rp353
(lp354
g3
(g9
g5
Ntp355
Rp356
(lp357
F0.4871655032552127
aF-0.13392059432939216
aF0.0
abag3
(g13
g5
Ntp358
Rp359
(lp360
F0.0
aF0.0
aF-0.8966856183075311
aF0.44266793640429913
ababag3
(g4
g5
Ntp361
Rp362
(lp363
g3
(g9
g5
Ntp364
Rp365
(lp366
F-0.24772609433577084
aF-0.6563131847745183
aF0.0
abag3
(g13
g5
Ntp367
Rp368
(lp369
F0.0
aF0.0
aF-0.9886109727265578
aF0.15049366964975347
ababag3
(g4
g5
Ntp370
Rp371
(lp372
g3
(g9
g5
Ntp373
Rp374
(lp375
F-0.732104250418521
aF-0.7492025652679276
aF0.0
abag3
(g13
g5
Ntp376
Rp377
(lp378
F0.0
aF0.0
aF-0.9922839774997
aF0.12398591854470795
ababag3
(g4
g5
Ntp379
Rp380
(lp381
g3
(g9
g5
Ntp382
Rp383
(lp384
F-0.732104250418521
aF-0.7492025652679276
aF0.0
abag3
(g13
g5
Ntp385
Rp386
(lp387
F0.0
aF0.0
aF-0.9922839774997
aF0.12398591854470795
ababag3
(g4
g5
Ntp388
Rp389
(lp390
g3
(g9
g5
Ntp391
Rp392
(lp393
F-0.732104250418521
aF-0.7492025652679276
aF0.0
abag3
(g13
g5
Ntp394
Rp395
(lp396
F0.0
aF0.0
aF-0.9922839774997
aF0.12398591854470795
ababag3
(g4
g5
Ntp397
Rp398
(lp399
g3
(g9
g5
Ntp400
Rp401
(lp402
F-0.732104250418521
aF-0.7492025652679276
aF0.0
abag3
(g13
g5
Ntp403
Rp404
(lp405
F0.0
aF0.0
aF-0.9922839774997
aF0.12398591854470795
ababag3
(g4
g5
Ntp406
Rp407
(lp408
g3
(g9
g5
Ntp409
Rp410
(lp411
F-0.732104250418521
aF-0.7492025652679276
aF0.0
abag3
(g13
g5
Ntp412
Rp413
(lp414
F0.0
aF0.0
aF-0.9922839774997
aF0.12398591854470795
ababag3
(g4
g5
Ntp415
Rp416
(lp417
g3
(g9
g5
Ntp418
Rp419
(lp420
F-0.732104250418521
aF-0.7492025652679276
aF0.0
abag3
(g13
g5
Ntp421
Rp422
(lp423
F0.0
aF0.0
aF-0.9922839774997
aF0.12398591854470795
ababag3
(g4
g5
Ntp424
Rp425
(lp426
g3
(g9
g5
Ntp427
Rp428
(lp429
F-0.732104250418521
aF-0.7492025652679276
aF0.0
abag3
(g13
g5
Ntp430
Rp431
(lp432
F0.0
aF0.0
aF-0.9922839774997
aF0.12398591854470795
ababag3
(g4
g5
Ntp433
Rp434
(lp435
g3
(g9
g5
Ntp436
Rp437
(lp438
F-0.732104250418521
aF-0.7492025652679276
aF0.0
abag3
(g13
g5
Ntp439
Rp440
(lp441
F0.0
aF0.0
aF-0.9922839774997
aF0.12398591854470795
ababag3
(g4
g5
Ntp442
Rp443
(lp444
g3
(g9
g5
Ntp445
Rp446
(lp447
F-0.732104250418521
aF-0.7492025652679276
aF0.0
abag3
(g13
g5
Ntp448
Rp449
(lp450
F0.0
aF0.0
aF-0.9922839774997
aF0.12398591854470795
ababag3
(g4
g5
Ntp451
Rp452
(lp453
g3
(g9
g5
Ntp454
Rp455
(lp456
F-0.732104250418521
aF-0.7492025652679276
aF0.0
abag3
(g13
g5
Ntp457
Rp458
(lp459
F0.0
aF0.0
aF-0.9922839774997
aF0.12398591854470795
ababag3
(g4
g5
Ntp460
Rp461
(lp462
g3
(g9
g5
Ntp463
Rp464
(lp465
F-0.732104250418521
aF-0.7492025652679276
aF0.0
abag3
(g13
g5
Ntp466
Rp467
(lp468
F0.0
aF0.0
aF-0.9922839774997
aF0.12398591854470795
ababag3
(g4
g5
Ntp469
Rp470
(lp471
g3
(g9
g5
Ntp472
Rp473
(lp474
F-0.732104250418521
aF-0.7492025652679276
aF0.0
abag3
(g13
g5
Ntp475
Rp476
(lp477
F0.0
aF0.0
aF-0.9922839774997
aF0.12398591854470795
ababag3
(g4
g5
Ntp478
Rp479
(lp480
g3
(g9
g5
Ntp481
Rp482
(lp483
F-0.732104250418521
aF-0.7492025652679276
aF0.0
abag3
(g13
g5
Ntp484
Rp485
(lp486
F0.0
aF0.0
aF-0.9922839774997
aF0.12398591854470795
ababag3
(g4
g5
Ntp487
Rp488
(lp489
g3
(g9
g5
Ntp490
Rp491
(lp492
F-0.732104250418521
aF-0.7492025652679276
aF0.0
abag3
(g13
g5
Ntp493
Rp494
(lp495
F0.0
aF0.0
aF-0.9922839774997
aF0.12398591854470795
ababag3
(g4
g5
Ntp496
Rp497
(lp498
g3
(g9
g5
Ntp499
Rp500
(lp501
F-0.732104250418521
aF-0.7492025652679276
aF0.0
abag3
(g13
g5
Ntp502
Rp503
(lp504
F0.0
aF0.0
aF-0.9922839774997
aF0.12398591854470795
ababag3
(g4
g5
Ntp505
Rp506
(lp507
g3
(g9
g5
Ntp508
Rp509
(lp510
F-0.732104250418521
aF-0.7492025652679276
aF0.0
abag3
(g13
g5
Ntp511
Rp512
(lp513
F0.0
aF0.0
aF-0.9922839774997
aF0.12398591854470795
ababag3
(g4
g5
Ntp514
Rp515
(lp516
g3
(g9
g5
Ntp517
Rp518
(lp519
F-0.732104250418521
aF-0.7492025652679276
aF0.0
abag3
(g13
g5
Ntp520
Rp521
(lp522
F0.0
aF0.0
aF-0.9922839774997
aF0.12398591854470795
ababag3
(g4
g5
Ntp523
Rp524
(lp525
g3
(g9
g5
Ntp526
Rp527
(lp528
F-0.732104250418521
aF-0.7492025652679276
aF0.0
abag3
(g13
g5
Ntp529
Rp530
(lp531
F0.0
aF0.0
aF-0.9922839774997
aF0.12398591854470795
ababag3
(g4
g5
Ntp532
Rp533
(lp534
g3
(g9
g5
Ntp535
Rp536
(lp537
F-0.732104250418521
aF-0.7492025652679276
aF0.0
abag3
(g13
g5
Ntp538
Rp539
(lp540
F0.0
aF0.0
aF-0.9922839774997
aF0.12398591854470795
ababag3
(g4
g5
Ntp541
Rp542
(lp543
g3
(g9
g5
Ntp544
Rp545
(lp546
F-0.732104250418521
aF-0.7492025652679276
aF0.0
abag3
(g13
g5
Ntp547
Rp548
(lp549
F0.0
aF0.0
aF-0.9922839774997
aF0.12398591854470795
ababag3
(g4
g5
Ntp550
Rp551
(lp552
g3
(g9
g5
Ntp553
Rp554
(lp555
F-0.732104250418521
aF-0.7492025652679276
aF0.0
abag3
(g13
g5
Ntp556
Rp557
(lp558
F0.0
aF0.0
aF-0.9922839774997
aF0.12398591854470795
ababag3
(g4
g5
Ntp559
Rp560
(lp561
g3
(g9
g5
Ntp562
Rp563
(lp564
F-0.732104250418521
aF-0.7492025652679276
aF0.0
abag3
(g13
g5
Ntp565
Rp566
(lp567
F0.0
aF0.0
aF-0.9922839774997
aF0.12398591854470795
ababag3
(g4
g5
Ntp568
Rp569
(lp570
g3
(g9
g5
Ntp571
Rp572
(lp573
F-0.732104250418521
aF-0.7492025652679276
aF0.0
abag3
(g13
g5
Ntp574
Rp575
(lp576
F0.0
aF0.0
aF-0.9922839774997
aF0.12398591854470795
ababag3
(g4
g5
Ntp577
Rp578
(lp579
g3
(g9
g5
Ntp580
Rp581
(lp582
F-0.732104250418521
aF-0.7492025652679276
aF0.0
abag3
(g13
g5
Ntp583
Rp584
(lp585
F0.0
aF0.0
aF-0.9922839774997
aF0.12398591854470795
ababag3
(g4
g5
Ntp586
Rp587
(lp588
g3
(g9
g5
Ntp589
Rp590
(lp591
F-0.732104250418521
aF-0.7492025652679276
aF0.0
abag3
(g13
g5
Ntp592
Rp593
(lp594
F0.0
aF0.0
aF-0.9922839774997
aF0.12398591854470795
ababag3
(g4
g5
Ntp595
Rp596
(lp597
g3
(g9
g5
Ntp598
Rp599
(lp600
F-0.732104250418521
aF-0.7492025652679276
aF0.0
abag3
(g13
g5
Ntp601
Rp602
(lp603
F0.0
aF0.0
aF-0.9922839774997
aF0.12398591854470795
ababag3
(g4
g5
Ntp604
Rp605
(lp606
g3
(g9
g5
Ntp607
Rp608
(lp609
F-0.732104250418521
aF-0.7492025652679276
aF0.0
abag3
(g13
g5
Ntp610
Rp611
(lp612
F0.0
aF0.0
aF-0.9922839774997
aF0.12398591854470795
ababag3
(g4
g5
Ntp613
Rp614
(lp615
g3
(g9
g5
Ntp616
Rp617
(lp618
F-0.732104250418521
aF-0.7492025652679276
aF0.0
abag3
(g13
g5
Ntp619
Rp620
(lp621
F0.0
aF0.0
aF-0.9922839774997
aF0.12398591854470795
ababag3
(g4
g5
Ntp622
Rp623
(lp624
g3
(g9
g5
Ntp625
Rp626
(lp627
F-0.732104250418521
aF-0.7492025652679276
aF0.0
abag3
(g13
g5
Ntp628
Rp629
(lp630
F0.0
aF0.0
aF-0.9922839774997
aF0.12398591854470795
ababag3
(g4
g5
Ntp631
Rp632
(lp633
g3
(g9
g5
Ntp634
Rp635
(lp636
F-0.732104250418521
aF-0.7492025652679276
aF0.0
abag3
(g13
g5
Ntp637
Rp638
(lp639
F0.0
aF0.0
aF-0.9922839774997
aF0.12398591854470795
ababag3
(g4
g5
Ntp640
Rp641
(lp642
g3
(g9
g5
Ntp643
Rp644
(lp645
F-0.732104250418521
aF-0.7492025652679276
aF0.0
abag3
(g13
g5
Ntp646
Rp647
(lp648
F0.0
aF0.0
aF-0.9922839774997
aF0.12398591854470795
ababag3
(g4
g5
Ntp649
Rp650
(lp651
g3
(g9
g5
Ntp652
Rp653
(lp654
F-0.732104250418521
aF-0.7492025652679276
aF0.0
abag3
(g13
g5
Ntp655
Rp656
(lp657
F0.0
aF0.0
aF-0.9922839774997
aF0.12398591854470795
ababag3
(g4
g5
Ntp658
Rp659
(lp660
g3
(g9
g5
Ntp661
Rp662
(lp663
F-0.732104250418521
aF-0.7492025652679276
aF0.0
abag3
(g13
g5
Ntp664
Rp665
(lp666
F0.0
aF0.0
aF-0.9922839774997
aF0.12398591854470795
ababag3
(g4
g5
Ntp667
Rp668
(lp669
g3
(g9
g5
Ntp670
Rp671
(lp672
F-0.732104250418521
aF-0.7492025652679276
aF0.0
abag3
(g13
g5
Ntp673
Rp674
(lp675
F0.0
aF0.0
aF-0.9922839774997
aF0.12398591854470795
ababag3
(g4
g5
Ntp676
Rp677
(lp678
g3
(g9
g5
Ntp679
Rp680
(lp681
F-0.732104250418521
aF-0.7492025652679276
aF0.0
abag3
(g13
g5
Ntp682
Rp683
(lp684
F0.0
aF0.0
aF-0.9922839774997
aF0.12398591854470795
ababag3
(g4
g5
Ntp685
Rp686
(lp687
g3
(g9
g5
Ntp688
Rp689
(lp690
F-0.732104250418521
aF-0.7492025652679276
aF0.0
abag3
(g13
g5
Ntp691
Rp692
(lp693
F0.0
aF0.0
aF-0.9922839774997
aF0.12398591854470795
ababag3
(g4
g5
Ntp694
Rp695
(lp696
g3
(g9
g5
Ntp697
Rp698
(lp699
F-0.732104250418521
aF-0.7492025652679276
aF0.0
abag3
(g13
g5
Ntp700
Rp701
(lp702
F0.0
aF0.0
aF-0.9922839774997
aF0.12398591854470795
ababag3
(g4
g5
Ntp703
Rp704
(lp705
g3
(g9
g5
Ntp706
Rp707
(lp708
F-0.732104250418521
aF-0.7492025652679276
aF0.0
abag3
(g13
g5
Ntp709
Rp710
(lp711
F0.0
aF0.0
aF-0.9922839774997
aF0.12398591854470795
ababag3
(g4
g5
Ntp712
Rp713
(lp714
g3
(g9
g5
Ntp715
Rp716
(lp717
F-0.732104250418521
aF-0.7492025652679276
aF0.0
abag3
(g13
g5
Ntp718
Rp719
(lp720
F0.0
aF0.0
aF-0.9922839774997
aF0.12398591854470795
ababag3
(g4
g5
Ntp721
Rp722
(lp723
g3
(g9
g5
Ntp724
Rp725
(lp726
F-0.732104250418521
aF-0.7492025652679276
aF0.0
abag3
(g13
g5
Ntp727
Rp728
(lp729
F0.0
aF0.0
aF-0.9922839774997
aF0.12398591854470795
ababaaa.