(lp0
(lp1
I4
aF79.2399999999999
a(lp2
ccopy_reg
_reconstructor
p3
(cgeometry_msgs.msg._Pose
Pose
p4
c__builtin__
object
p5
Ntp6
Rp7
(lp8
g3
(cgeometry_msgs.msg._Point
Point
p9
g5
Ntp10
Rp11
(lp12
F-12.783586876568593
aF-4.087838101805612
aF0.0
abag3
(cgeometry_msgs.msg._Quaternion
Quaternion
p13
g5
Ntp14
Rp15
(lp16
F0.0
aF0.0
aF-0.5649111107288911
aF0.8251517660255298
ababag3
(g4
g5
Ntp17
Rp18
(lp19
g3
(g9
g5
Ntp20
Rp21
(lp22
F-12.783586876568593
aF-4.087838101805612
aF0.0
abag3
(g13
g5
Ntp23
Rp24
(lp25
F0.0
aF0.0
aF-0.5649111107288911
aF0.8251517660255298
ababag3
(g4
g5
Ntp26
Rp27
(lp28
g3
(g9
g5
Ntp29
Rp30
(lp31
F-12.798706888700453
aF-4.122314257947178
aF0.0
abag3
(g13
g5
Ntp32
Rp33
(lp34
F0.0
aF0.0
aF-0.6922649899482977
aF0.721643390943119
ababag3
(g4
g5
Ntp35
Rp36
(lp37
g3
(g9
g5
Ntp38
Rp39
(lp40
F-12.798706888700453
aF-4.122314257947178
aF0.0
abag3
(g13
g5
Ntp41
Rp42
(lp43
F0.0
aF0.0
aF-0.6922649899482977
aF0.721643390943119
ababag3
(g4
g5
Ntp44
Rp45
(lp46
g3
(g9
g5
Ntp47
Rp48
(lp49
F-12.798706888700453
aF-4.122314257947178
aF0.0
abag3
(g13
g5
Ntp50
Rp51
(lp52
F0.0
aF0.0
aF-0.6922649899482977
aF0.721643390943119
ababag3
(g4
g5
Ntp53
Rp54
(lp55
g3
(g9
g5
Ntp56
Rp57
(lp58
F-12.837347825060784
aF-4.1556549711596045
aF0.0
abag3
(g13
g5
Ntp59
Rp60
(lp61
F0.0
aF0.0
aF-0.8753030021349992
aF0.4835748695429257
ababag3
(g4
g5
Ntp62
Rp63
(lp64
g3
(g9
g5
Ntp65
Rp66
(lp67
F-12.837347825060784
aF-4.1556549711596045
aF0.0
abag3
(g13
g5
Ntp68
Rp69
(lp70
F0.0
aF0.0
aF-0.8753030021349992
aF0.4835748695429257
ababag3
(g4
g5
Ntp71
Rp72
(lp73
g3
(g9
g5
Ntp74
Rp75
(lp76
F-12.891262396869312
aF-4.164827667687371
aF0.0
abag3
(g13
g5
Ntp77
Rp78
(lp79
F0.0
aF0.0
aF0.9361228628994295
aF0.3516731231654986
ababag3
(g4
g5
Ntp80
Rp81
(lp82
g3
(g9
g5
Ntp83
Rp84
(lp85
F-12.891587080007254
aF-4.088305884818137
aF0.0
abag3
(g13
g5
Ntp86
Rp87
(lp88
F0.0
aF0.0
aF0.6119937458573866
aF0.7908626018667493
ababag3
(g4
g5
Ntp89
Rp90
(lp91
g3
(g9
g5
Ntp92
Rp93
(lp94
F-12.319425292384468
aF-3.8465867042573247
aF0.0
abag3
(g13
g5
Ntp95
Rp96
(lp97
F0.0
aF0.0
aF0.06364032064403798
aF0.997972900227418
ababag3
(g4
g5
Ntp98
Rp99
(lp100
g3
(g9
g5
Ntp101
Rp102
(lp103
F-11.275536625492416
aF-3.804974293832051
aF0.0
abag3
(g13
g5
Ntp104
Rp105
(lp106
F0.0
aF0.0
aF0.021129348753184642
aF0.9997767503904391
ababag3
(g4
g5
Ntp107
Rp108
(lp109
g3
(g9
g5
Ntp110
Rp111
(lp112
F-10.502159693313448
aF-3.7365770328288868
aF0.0
abag3
(g13
g5
Ntp113
Rp114
(lp115
F0.0
aF0.0
aF0.06474365738150052
aF0.9979019284623448
ababag3
(g4
g5
Ntp116
Rp117
(lp118
g3
(g9
g5
Ntp119
Rp120
(lp121
F-9.580733647239441
aF-3.4294175521006354
aF0.0
abag3
(g13
g5
Ntp122
Rp123
(lp124
F0.0
aF0.0
aF0.32178497822774077
aF0.9468127733543588
ababag3
(g4
g5
Ntp125
Rp126
(lp127
g3
(g9
g5
Ntp128
Rp129
(lp130
F-9.077000992068774
aF-2.699155900997159
aF0.0
abag3
(g13
g5
Ntp131
Rp132
(lp133
F0.0
aF0.0
aF0.6062065586062966
aF0.7953072414499385
ababag3
(g4
g5
Ntp134
Rp135
(lp136
g3
(g9
g5
Ntp137
Rp138
(lp139
F-8.97128667997306
aF-2.20831969149069
aF0.0
abag3
(g13
g5
Ntp140
Rp141
(lp142
F0.0
aF0.0
aF0.6281088627041133
aF0.7781254761235783
ababag3
(g4
g5
Ntp143
Rp144
(lp145
g3
(g9
g5
Ntp146
Rp147
(lp148
F-8.97128667997306
aF-2.20831969149069
aF0.0
abag3
(g13
g5
Ntp149
Rp150
(lp151
F0.0
aF0.0
aF0.6281088627041133
aF0.7781254761235783
ababag3
(g4
g5
Ntp152
Rp153
(lp154
g3
(g9
g5
Ntp155
Rp156
(lp157
F-8.97128667997306
aF-2.20831969149069
aF0.0
abag3
(g13
g5
Ntp158
Rp159
(lp160
F0.0
aF0.0
aF0.6281088627041133
aF0.7781254761235783
ababag3
(g4
g5
Ntp161
Rp162
(lp163
g3
(g9
g5
Ntp164
Rp165
(lp166
F-8.97128667997306
aF-2.20831969149069
aF0.0
abag3
(g13
g5
Ntp167
Rp168
(lp169
F0.0
aF0.0
aF0.6281088627041133
aF0.7781254761235783
ababag3
(g4
g5
Ntp170
Rp171
(lp172
g3
(g9
g5
Ntp173
Rp174
(lp175
F-8.97128667997306
aF-2.20831969149069
aF0.0
abag3
(g13
g5
Ntp176
Rp177
(lp178
F0.0
aF0.0
aF0.6281088627041133
aF0.7781254761235783
ababag3
(g4
g5
Ntp179
Rp180
(lp181
g3
(g9
g5
Ntp182
Rp183
(lp184
F-8.97128667997306
aF-2.20831969149069
aF0.0
abag3
(g13
g5
Ntp185
Rp186
(lp187
F0.0
aF0.0
aF0.6281088627041133
aF0.7781254761235783
ababag3
(g4
g5
Ntp188
Rp189
(lp190
g3
(g9
g5
Ntp191
Rp192
(lp193
F-8.97128667997306
aF-2.20831969149069
aF0.0
abag3
(g13
g5
Ntp194
Rp195
(lp196
F0.0
aF0.0
aF0.6281088627041133
aF0.7781254761235783
ababag3
(g4
g5
Ntp197
Rp198
(lp199
g3
(g9
g5
Ntp200
Rp201
(lp202
F-8.968000170586391
aF-2.4079885265884027
aF0.0
abag3
(g13
g5
Ntp203
Rp204
(lp205
F0.0
aF0.0
aF0.7715390903658824
aF0.6361819174083674
ababag3
(g4
g5
Ntp206
Rp207
(lp208
g3
(g9
g5
Ntp209
Rp210
(lp211
F-8.968000170586391
aF-2.4079885265884027
aF0.0
abag3
(g13
g5
Ntp212
Rp213
(lp214
F0.0
aF0.0
aF0.7715390903658824
aF0.6361819174083674
ababag3
(g4
g5
Ntp215
Rp216
(lp217
g3
(g9
g5
Ntp218
Rp219
(lp220
F-8.968000170586391
aF-2.4079885265884027
aF0.0
abag3
(g13
g5
Ntp221
Rp222
(lp223
F0.0
aF0.0
aF0.7715390903658824
aF0.6361819174083674
ababag3
(g4
g5
Ntp224
Rp225
(lp226
g3
(g9
g5
Ntp227
Rp228
(lp229
F-8.92634414047372
aF-2.6150368958779073
aF0.0
abag3
(g13
g5
Ntp230
Rp231
(lp232
F0.0
aF0.0
aF0.7695386554855634
aF0.63860023309851
ababag3
(g4
g5
Ntp233
Rp234
(lp235
g3
(g9
g5
Ntp236
Rp237
(lp238
F-8.92634414047372
aF-2.6150368958779073
aF0.0
abag3
(g13
g5
Ntp239
Rp240
(lp241
F0.0
aF0.0
aF0.7695386554855634
aF0.63860023309851
ababag3
(g4
g5
Ntp242
Rp243
(lp244
g3
(g9
g5
Ntp245
Rp246
(lp247
F-8.92634414047372
aF-2.6150368958779073
aF0.0
abag3
(g13
g5
Ntp248
Rp249
(lp250
F0.0
aF0.0
aF0.7695386554855634
aF0.63860023309851
ababag3
(g4
g5
Ntp251
Rp252
(lp253
g3
(g9
g5
Ntp254
Rp255
(lp256
F-8.92634414047372
aF-2.6150368958779073
aF0.0
abag3
(g13
g5
Ntp257
Rp258
(lp259
F0.0
aF0.0
aF0.7695386554855634
aF0.63860023309851
ababag3
(g4
g5
Ntp260
Rp261
(lp262
g3
(g9
g5
Ntp263
Rp264
(lp265
F-8.92634414047372
aF-2.6150368958779073
aF0.0
abag3
(g13
g5
Ntp266
Rp267
(lp268
F0.0
aF0.0
aF0.7695386554855634
aF0.63860023309851
ababag3
(g4
g5
Ntp269
Rp270
(lp271
g3
(g9
g5
Ntp272
Rp273
(lp274
F-8.92634414047372
aF-2.6150368958779073
aF0.0
abag3
(g13
g5
Ntp275
Rp276
(lp277
F0.0
aF0.0
aF0.7695386554855634
aF0.63860023309851
ababag3
(g4
g5
Ntp278
Rp279
(lp280
g3
(g9
g5
Ntp281
Rp282
(lp283
F-8.92634414047372
aF-2.6150368958779073
aF0.0
abag3
(g13
g5
Ntp284
Rp285
(lp286
F0.0
aF0.0
aF0.7695386554855634
aF0.63860023309851
ababag3
(g4
g5
Ntp287
Rp288
(lp289
g3
(g9
g5
Ntp290
Rp291
(lp292
F-8.92634414047372
aF-2.6150368958779073
aF0.0
abag3
(g13
g5
Ntp293
Rp294
(lp295
F0.0
aF0.0
aF0.7695386554855634
aF0.63860023309851
ababag3
(g4
g5
Ntp296
Rp297
(lp298
g3
(g9
g5
Ntp299
Rp300
(lp301
F-8.90006414786923
aF-2.8291347359353387
aF0.0
abag3
(g13
g5
Ntp302
Rp303
(lp304
F0.0
aF0.0
aF0.7638589899272852
aF0.6453831757237459
ababag3
(g4
g5
Ntp305
Rp306
(lp307
g3
(g9
g5
Ntp308
Rp309
(lp310
F-8.90006414786923
aF-2.8291347359353387
aF0.0
abag3
(g13
g5
Ntp311
Rp312
(lp313
F0.0
aF0.0
aF0.7638589899272852
aF0.6453831757237459
ababag3
(g4
g5
Ntp314
Rp315
(lp316
g3
(g9
g5
Ntp317
Rp318
(lp319
F-8.90006414786923
aF-2.8291347359353387
aF0.0
abag3
(g13
g5
Ntp320
Rp321
(lp322
F0.0
aF0.0
aF0.7638589899272852
aF0.6453831757237459
ababag3
(g4
g5
Ntp323
Rp324
(lp325
g3
(g9
g5
Ntp326
Rp327
(lp328
F-8.90006414786923
aF-2.8291347359353387
aF0.0
abag3
(g13
g5
Ntp329
Rp330
(lp331
F0.0
aF0.0
aF0.7638589899272852
aF0.6453831757237459
ababag3
(g4
g5
Ntp332
Rp333
(lp334
g3
(g9
g5
Ntp335
Rp336
(lp337
F-8.90006414786923
aF-2.8291347359353387
aF0.0
abag3
(g13
g5
Ntp338
Rp339
(lp340
F0.0
aF0.0
aF0.7638589899272852
aF0.6453831757237459
ababag3
(g4
g5
Ntp341
Rp342
(lp343
g3
(g9
g5
Ntp344
Rp345
(lp346
F-8.90006414786923
aF-2.8291347359353387
aF0.0
abag3
(g13
g5
Ntp347
Rp348
(lp349
F0.0
aF0.0
aF0.7638589899272852
aF0.6453831757237459
ababag3
(g4
g5
Ntp350
Rp351
(lp352
g3
(g9
g5
Ntp353
Rp354
(lp355
F-8.90006414786923
aF-2.8291347359353387
aF0.0
abag3
(g13
g5
Ntp356
Rp357
(lp358
F0.0
aF0.0
aF0.7638589899272852
aF0.6453831757237459
ababag3
(g4
g5
Ntp359
Rp360
(lp361
g3
(g9
g5
Ntp362
Rp363
(lp364
F-8.90006414786923
aF-2.8291347359353387
aF0.0
abag3
(g13
g5
Ntp365
Rp366
(lp367
F0.0
aF0.0
aF0.7638589899272852
aF0.6453831757237459
ababag3
(g4
g5
Ntp368
Rp369
(lp370
g3
(g9
g5
Ntp371
Rp372
(lp373
F-8.90006414786923
aF-2.8291347359353387
aF0.0
abag3
(g13
g5
Ntp374
Rp375
(lp376
F0.0
aF0.0
aF0.7638589899272852
aF0.6453831757237459
ababag3
(g4
g5
Ntp377
Rp378
(lp379
g3
(g9
g5
Ntp380
Rp381
(lp382
F-8.90006414786923
aF-2.8291347359353387
aF0.0
abag3
(g13
g5
Ntp383
Rp384
(lp385
F0.0
aF0.0
aF0.7638589899272852
aF0.6453831757237459
ababag3
(g4
g5
Ntp386
Rp387
(lp388
g3
(g9
g5
Ntp389
Rp390
(lp391
F-8.90006414786923
aF-2.8291347359353387
aF0.0
abag3
(g13
g5
Ntp392
Rp393
(lp394
F0.0
aF0.0
aF0.7638589899272852
aF0.6453831757237459
ababag3
(g4
g5
Ntp395
Rp396
(lp397
g3
(g9
g5
Ntp398
Rp399
(lp400
F-8.90006414786923
aF-2.8291347359353387
aF0.0
abag3
(g13
g5
Ntp401
Rp402
(lp403
F0.0
aF0.0
aF0.7638589899272852
aF0.6453831757237459
ababag3
(g4
g5
Ntp404
Rp405
(lp406
g3
(g9
g5
Ntp407
Rp408
(lp409
F-8.90006414786923
aF-2.8291347359353387
aF0.0
abag3
(g13
g5
Ntp410
Rp411
(lp412
F0.0
aF0.0
aF0.7638589899272852
aF0.6453831757237459
ababag3
(g4
g5
Ntp413
Rp414
(lp415
g3
(g9
g5
Ntp416
Rp417
(lp418
F-8.90006414786923
aF-2.8291347359353387
aF0.0
abag3
(g13
g5
Ntp419
Rp420
(lp421
F0.0
aF0.0
aF0.7638589899272852
aF0.6453831757237459
ababag3
(g4
g5
Ntp422
Rp423
(lp424
g3
(g9
g5
Ntp425
Rp426
(lp427
F-8.90006414786923
aF-2.8291347359353387
aF0.0
abag3
(g13
g5
Ntp428
Rp429
(lp430
F0.0
aF0.0
aF0.7638589899272852
aF0.6453831757237459
ababag3
(g4
g5
Ntp431
Rp432
(lp433
g3
(g9
g5
Ntp434
Rp435
(lp436
F-8.90006414786923
aF-2.8291347359353387
aF0.0
abag3
(g13
g5
Ntp437
Rp438
(lp439
F0.0
aF0.0
aF0.7638589899272852
aF0.6453831757237459
ababag3
(g4
g5
Ntp440
Rp441
(lp442
g3
(g9
g5
Ntp443
Rp444
(lp445
F-8.90006414786923
aF-2.8291347359353387
aF0.0
abag3
(g13
g5
Ntp446
Rp447
(lp448
F0.0
aF0.0
aF0.7638589899272852
aF0.6453831757237459
ababag3
(g4
g5
Ntp449
Rp450
(lp451
g3
(g9
g5
Ntp452
Rp453
(lp454
F-8.90006414786923
aF-2.8291347359353387
aF0.0
abag3
(g13
g5
Ntp455
Rp456
(lp457
F0.0
aF0.0
aF0.7638589899272852
aF0.6453831757237459
ababag3
(g4
g5
Ntp458
Rp459
(lp460
g3
(g9
g5
Ntp461
Rp462
(lp463
F-8.90006414786923
aF-2.8291347359353387
aF0.0
abag3
(g13
g5
Ntp464
Rp465
(lp466
F0.0
aF0.0
aF0.7638589899272852
aF0.6453831757237459
ababag3
(g4
g5
Ntp467
Rp468
(lp469
g3
(g9
g5
Ntp470
Rp471
(lp472
F-8.90006414786923
aF-2.8291347359353387
aF0.0
abag3
(g13
g5
Ntp473
Rp474
(lp475
F0.0
aF0.0
aF0.7638589899272852
aF0.6453831757237459
ababag3
(g4
g5
Ntp476
Rp477
(lp478
g3
(g9
g5
Ntp479
Rp480
(lp481
F-8.90006414786923
aF-2.8291347359353387
aF0.0
abag3
(g13
g5
Ntp482
Rp483
(lp484
F0.0
aF0.0
aF0.7638589899272852
aF0.6453831757237459
ababag3
(g4
g5
Ntp485
Rp486
(lp487
g3
(g9
g5
Ntp488
Rp489
(lp490
F-8.90006414786923
aF-2.8291347359353387
aF0.0
abag3
(g13
g5
Ntp491
Rp492
(lp493
F0.0
aF0.0
aF0.7638589899272852
aF0.6453831757237459
ababag3
(g4
g5
Ntp494
Rp495
(lp496
g3
(g9
g5
Ntp497
Rp498
(lp499
F-8.90006414786923
aF-2.8291347359353387
aF0.0
abag3
(g13
g5
Ntp500
Rp501
(lp502
F0.0
aF0.0
aF0.7638589899272852
aF0.6453831757237459
ababag3
(g4
g5
Ntp503
Rp504
(lp505
g3
(g9
g5
Ntp506
Rp507
(lp508
F-8.90006414786923
aF-2.8291347359353387
aF0.0
abag3
(g13
g5
Ntp509
Rp510
(lp511
F0.0
aF0.0
aF0.7638589899272852
aF0.6453831757237459
ababag3
(g4
g5
Ntp512
Rp513
(lp514
g3
(g9
g5
Ntp515
Rp516
(lp517
F-8.90006414786923
aF-2.8291347359353387
aF0.0
abag3
(g13
g5
Ntp518
Rp519
(lp520
F0.0
aF0.0
aF0.7638589899272852
aF0.6453831757237459
ababag3
(g4
g5
Ntp521
Rp522
(lp523
g3
(g9
g5
Ntp524
Rp525
(lp526
F-8.906069759562412
aF-2.8918978950689898
aF0.0
abag3
(g13
g5
Ntp527
Rp528
(lp529
F0.0
aF0.0
aF0.5547498558551285
aF0.8320171857772616
ababag3
(g4
g5
Ntp530
Rp531
(lp532
g3
(g9
g5
Ntp533
Rp534
(lp535
F-8.928776389701868
aF-2.9127244319267898
aF0.0
abag3
(g13
g5
Ntp536
Rp537
(lp538
F0.0
aF0.0
aF0.3173417234434101
aF0.9483112519431404
ababag3
(g4
g5
Ntp539
Rp540
(lp541
g3
(g9
g5
Ntp542
Rp543
(lp544
F-8.928776389701868
aF-2.9127244319267898
aF0.0
abag3
(g13
g5
Ntp545
Rp546
(lp547
F0.0
aF0.0
aF0.3173417234434101
aF0.9483112519431404
ababag3
(g4
g5
Ntp548
Rp549
(lp550
g3
(g9
g5
Ntp551
Rp552
(lp553
F-8.928776389701868
aF-2.9127244319267898
aF0.0
abag3
(g13
g5
Ntp554
Rp555
(lp556
F0.0
aF0.0
aF0.3173417234434101
aF0.9483112519431404
ababag3
(g4
g5
Ntp557
Rp558
(lp559
g3
(g9
g5
Ntp560
Rp561
(lp562
F-9.014810191425738
aF-2.9470096503924994
aF0.0
abag3
(g13
g5
Ntp563
Rp564
(lp565
F0.0
aF0.0
aF0.06912341665214014
aF0.9976081160808259
ababag3
(g4
g5
Ntp566
Rp567
(lp568
g3
(g9
g5
Ntp569
Rp570
(lp571
F-9.059690162522157
aF-2.944048020421399
aF0.0
abag3
(g13
g5
Ntp572
Rp573
(lp574
F0.0
aF0.0
aF-0.19119513236238708
aF0.9815520471991943
ababag3
(g4
g5
Ntp575
Rp576
(lp577
g3
(g9
g5
Ntp578
Rp579
(lp580
F-9.080561378843889
aF-2.9601164192551663
aF0.0
abag3
(g13
g5
Ntp581
Rp582
(lp583
F0.0
aF0.0
aF-0.6707314404460845
aF0.7417002998496904
ababag3
(g4
g5
Ntp584
Rp585
(lp586
g3
(g9
g5
Ntp587
Rp588
(lp589
F-9.10459235652146
aF-2.9538460465910283
aF0.0
abag3
(g13
g5
Ntp590
Rp591
(lp592
F0.0
aF0.0
aF-0.9996856299017899
aF0.025072721588640583
ababag3
(g4
g5
Ntp593
Rp594
(lp595
g3
(g9
g5
Ntp596
Rp597
(lp598
F-9.10459235652146
aF-2.9538460465910283
aF0.0
abag3
(g13
g5
Ntp599
Rp600
(lp601
F0.0
aF0.0
aF-0.9996856299017899
aF0.025072721588640583
ababag3
(g4
g5
Ntp602
Rp603
(lp604
g3
(g9
g5
Ntp605
Rp606
(lp607
F-9.10459235652146
aF-2.9538460465910283
aF0.0
abag3
(g13
g5
Ntp608
Rp609
(lp610
F0.0
aF0.0
aF-0.9996856299017899
aF0.025072721588640583
ababag3
(g4
g5
Ntp611
Rp612
(lp613
g3
(g9
g5
Ntp614
Rp615
(lp616
F-9.10459235652146
aF-2.9538460465910283
aF0.0
abag3
(g13
g5
Ntp617
Rp618
(lp619
F0.0
aF0.0
aF-0.9996856299017899
aF0.025072721588640583
ababag3
(g4
g5
Ntp620
Rp621
(lp622
g3
(g9
g5
Ntp623
Rp624
(lp625
F-9.10459235652146
aF-2.9538460465910283
aF0.0
abag3
(g13
g5
Ntp626
Rp627
(lp628
F0.0
aF0.0
aF-0.9996856299017899
aF0.025072721588640583
ababag3
(g4
g5
Ntp629
Rp630
(lp631
g3
(g9
g5
Ntp632
Rp633
(lp634
F-9.10459235652146
aF-2.9538460465910283
aF0.0
abag3
(g13
g5
Ntp635
Rp636
(lp637
F0.0
aF0.0
aF-0.9996856299017899
aF0.025072721588640583
ababag3
(g4
g5
Ntp638
Rp639
(lp640
g3
(g9
g5
Ntp641
Rp642
(lp643
F-9.10459235652146
aF-2.9538460465910283
aF0.0
abag3
(g13
g5
Ntp644
Rp645
(lp646
F0.0
aF0.0
aF-0.9996856299017899
aF0.025072721588640583
ababag3
(g4
g5
Ntp647
Rp648
(lp649
g3
(g9
g5
Ntp650
Rp651
(lp652
F-9.10459235652146
aF-2.9538460465910283
aF0.0
abag3
(g13
g5
Ntp653
Rp654
(lp655
F0.0
aF0.0
aF-0.9996856299017899
aF0.025072721588640583
ababag3
(g4
g5
Ntp656
Rp657
(lp658
g3
(g9
g5
Ntp659
Rp660
(lp661
F-9.10459235652146
aF-2.9538460465910283
aF0.0
abag3
(g13
g5
Ntp662
Rp663
(lp664
F0.0
aF0.0
aF-0.9996856299017899
aF0.025072721588640583
ababag3
(g4
g5
Ntp665
Rp666
(lp667
g3
(g9
g5
Ntp668
Rp669
(lp670
F-9.10459235652146
aF-2.9538460465910283
aF0.0
abag3
(g13
g5
Ntp671
Rp672
(lp673
F0.0
aF0.0
aF-0.9996856299017899
aF0.025072721588640583
ababag3
(g4
g5
Ntp674
Rp675
(lp676
g3
(g9
g5
Ntp677
Rp678
(lp679
F-9.10459235652146
aF-2.9538460465910283
aF0.0
abag3
(g13
g5
Ntp680
Rp681
(lp682
F0.0
aF0.0
aF-0.9996856299017899
aF0.025072721588640583
ababag3
(g4
g5
Ntp683
Rp684
(lp685
g3
(g9
g5
Ntp686
Rp687
(lp688
F-9.10459235652146
aF-2.9538460465910283
aF0.0
abag3
(g13
g5
Ntp689
Rp690
(lp691
F0.0
aF0.0
aF-0.9996856299017899
aF0.025072721588640583
ababag3
(g4
g5
Ntp692
Rp693
(lp694
g3
(g9
g5
Ntp695
Rp696
(lp697
F-9.10459235652146
aF-2.9538460465910283
aF0.0
abag3
(g13
g5
Ntp698
Rp699
(lp700
F0.0
aF0.0
aF-0.9996856299017899
aF0.025072721588640583
ababag3
(g4
g5
Ntp701
Rp702
(lp703
g3
(g9
g5
Ntp704
Rp705
(lp706
F-9.10459235652146
aF-2.9538460465910283
aF0.0
abag3
(g13
g5
Ntp707
Rp708
(lp709
F0.0
aF0.0
aF-0.9996856299017899
aF0.025072721588640583
ababag3
(g4
g5
Ntp710
Rp711
(lp712
g3
(g9
g5
Ntp713
Rp714
(lp715
F-9.10459235652146
aF-2.9538460465910283
aF0.0
abag3
(g13
g5
Ntp716
Rp717
(lp718
F0.0
aF0.0
aF-0.9996856299017899
aF0.025072721588640583
ababaaa(lp719
I3
aF29.243999999999915
a(lp720
g3
(g4
g5
Ntp721
Rp722
(lp723
g3
(g9
g5
Ntp724
Rp725
(lp726
F-12.778354972872918
aF-4.086779938582812
aF0.0
abag3
(g13
g5
Ntp727
Rp728
(lp729
F0.0
aF0.0
aF-0.5651765765299113
aF0.8249699614785555
ababag3
(g4
g5
Ntp730
Rp731
(lp732
g3
(g9
g5
Ntp733
Rp734
(lp735
F-12.785685969403731
aF-4.105763734480646
aF0.0
abag3
(g13
g5
Ntp736
Rp737
(lp738
F0.0
aF0.0
aF-0.45707684990136194
aF0.8894272051631026
ababag3
(g4
g5
Ntp739
Rp740
(lp741
g3
(g9
g5
Ntp742
Rp743
(lp744
F-12.037784556698133
aF-4.353366727847101
aF0.0
abag3
(g13
g5
Ntp745
Rp746
(lp747
F0.0
aF0.0
aF-0.012124506141373542
aF0.9999264954739562
ababag3
(g4
g5
Ntp748
Rp749
(lp750
g3
(g9
g5
Ntp751
Rp752
(lp753
F-11.0220580711541
aF-4.209525695567575
aF0.0
abag3
(g13
g5
Ntp754
Rp755
(lp756
F0.0
aF0.0
aF0.14951230887179306
aF0.9887598644240296
ababag3
(g4
g5
Ntp757
Rp758
(lp759
g3
(g9
g5
Ntp760
Rp761
(lp762
F-10.08759420621022
aF-3.781474957906623
aF0.0
abag3
(g13
g5
Ntp763
Rp764
(lp765
F0.0
aF0.0
aF0.25294499757445965
aF0.9674806603762458
ababag3
(g4
g5
Ntp766
Rp767
(lp768
g3
(g9
g5
Ntp769
Rp770
(lp771
F-9.498668993036285
aF-3.3277054465409175
aF0.0
abag3
(g13
g5
Ntp772
Rp773
(lp774
F0.0
aF0.0
aF0.41963664909378784
aF0.907692173998067
ababag3
(g4
g5
Ntp775
Rp776
(lp777
g3
(g9
g5
Ntp778
Rp779
(lp780
F-9.091352211926518
aF-2.3104072587389686
aF0.0
abag3
(g13
g5
Ntp781
Rp782
(lp783
F0.0
aF0.0
aF0.6867485105036865
aF0.7268950978793075
ababag3
(g4
g5
Ntp784
Rp785
(lp786
g3
(g9
g5
Ntp787
Rp788
(lp789
F-9.14110044334037
aF-1.5445928863988434
aF0.0
abag3
(g13
g5
Ntp790
Rp791
(lp792
F0.0
aF0.0
aF0.7668331049921081
aF0.6418465463708304
ababag3
(g4
g5
Ntp793
Rp794
(lp795
g3
(g9
g5
Ntp796
Rp797
(lp798
F-9.185075955275336
aF-0.5581004974638789
aF0.0
abag3
(g13
g5
Ntp799
Rp800
(lp801
F0.0
aF0.0
aF0.6373695252481668
aF0.7705582964869864
ababag3
(g4
g5
Ntp802
Rp803
(lp804
g3
(g9
g5
Ntp805
Rp806
(lp807
F-8.806107758266668
aF0.25032048796458495
aF0.0
abag3
(g13
g5
Ntp808
Rp809
(lp810
F0.0
aF0.0
aF0.4167393599228034
aF0.909026020469784
ababag3
(g4
g5
Ntp811
Rp812
(lp813
g3
(g9
g5
Ntp814
Rp815
(lp816
F-7.9595274337750235
aF0.6966125064243964
aF0.0
abag3
(g13
g5
Ntp817
Rp818
(lp819
F0.0
aF0.0
aF0.09492281544494982
aF0.9954846352947915
ababag3
(g4
g5
Ntp820
Rp821
(lp822
g3
(g9
g5
Ntp823
Rp824
(lp825
F-6.923417701596605
aF0.6837833509394918
aF0.0
abag3
(g13
g5
Ntp826
Rp827
(lp828
F0.0
aF0.0
aF-0.06210750226562889
aF0.998069465599627
ababag3
(g4
g5
Ntp829
Rp830
(lp831
g3
(g9
g5
Ntp832
Rp833
(lp834
F-6.133000434820672
aF0.6035307937676979
aF0.0
abag3
(g13
g5
Ntp835
Rp836
(lp837
F0.0
aF0.0
aF-0.052289922818342036
aF0.9986319462002263
ababag3
(g4
g5
Ntp838
Rp839
(lp840
g3
(g9
g5
Ntp841
Rp842
(lp843
F-5.212605419877884
aF0.37145547753832037
aF0.0
abag3
(g13
g5
Ntp844
Rp845
(lp846
F0.0
aF0.0
aF-0.21049834056789313
aF0.9775942147016641
ababag3
(g4
g5
Ntp847
Rp848
(lp849
g3
(g9
g5
Ntp850
Rp851
(lp852
F-4.273641781076829
aF-0.038486544362734625
aF0.0
abag3
(g13
g5
Ntp853
Rp854
(lp855
F0.0
aF0.0
aF-0.14165074667164612
aF0.9899166964787316
ababag3
(g4
g5
Ntp856
Rp857
(lp858
g3
(g9
g5
Ntp859
Rp860
(lp861
F-3.3602318356932726
aF-0.17201428659884718
aF0.0
abag3
(g13
g5
Ntp862
Rp863
(lp864
F0.0
aF0.0
aF-0.018186622510737098
aF0.999834609703851
ababag3
(g4
g5
Ntp865
Rp866
(lp867
g3
(g9
g5
Ntp868
Rp869
(lp870
F-2.297290613649805
aF-0.16082882022297196
aF0.0
abag3
(g13
g5
Ntp871
Rp872
(lp873
F0.0
aF0.0
aF0.021102518591048978
aF0.9997773170607115
ababag3
(g4
g5
Ntp874
Rp875
(lp876
g3
(g9
g5
Ntp877
Rp878
(lp879
F-1.2607076291437862
aF-0.013292587878932009
aF0.0
abag3
(g13
g5
Ntp880
Rp881
(lp882
F0.0
aF0.0
aF0.10334791585986444
aF0.9946452675639805
ababag3
(g4
g5
Ntp883
Rp884
(lp885
g3
(g9
g5
Ntp886
Rp887
(lp888
F-0.4910311289847143
aF0.14089177942172165
aF0.0
abag3
(g13
g5
Ntp889
Rp890
(lp891
F0.0
aF0.0
aF0.08886288828871176
aF0.996043868052501
ababag3
(g4
g5
Ntp892
Rp893
(lp894
g3
(g9
g5
Ntp895
Rp896
(lp897
F0.5348252929211174
aF0.3184748259154574
aF0.0
abag3
(g13
g5
Ntp898
Rp899
(lp900
F0.0
aF0.0
aF0.05797169550403748
aF0.9983182270801165
ababag3
(g4
g5
Ntp901
Rp902
(lp903
g3
(g9
g5
Ntp904
Rp905
(lp906
F1.5815315058240422
aF0.43194590901238045
aF0.0
abag3
(g13
g5
Ntp907
Rp908
(lp909
F0.0
aF0.0
aF0.050537613311884735
aF0.9987221583807673
ababag3
(g4
g5
Ntp910
Rp911
(lp912
g3
(g9
g5
Ntp913
Rp914
(lp915
F2.648264188789377
aF0.4934894070186377
aF0.0
abag3
(g13
g5
Ntp916
Rp917
(lp918
F0.0
aF0.0
aF0.009786604600802447
aF0.9999521100384696
ababag3
(g4
g5
Ntp919
Rp920
(lp921
g3
(g9
g5
Ntp922
Rp923
(lp924
F3.449527950929354
aF0.49888053345054395
aF0.0
abag3
(g13
g5
Ntp925
Rp926
(lp927
F0.0
aF0.0
aF-0.005317102920134962
aF0.9999858641083567
ababag3
(g4
g5
Ntp928
Rp929
(lp930
g3
(g9
g5
Ntp931
Rp932
(lp933
F4.5085716213189695
aF0.4329088010590275
aF0.0
abag3
(g13
g5
Ntp934
Rp935
(lp936
F0.0
aF0.0
aF-0.07389238374033183
aF0.9972662210388816
ababag3
(g4
g5
Ntp937
Rp938
(lp939
g3
(g9
g5
Ntp940
Rp941
(lp942
F5.473873636330123
aF0.22572249446191983
aF0.0
abag3
(g13
g5
Ntp943
Rp944
(lp945
F0.0
aF0.0
aF-0.14587105052181742
aF0.9893036119511853
ababag3
(g4
g5
Ntp946
Rp947
(lp948
g3
(g9
g5
Ntp949
Rp950
(lp951
F6.242609144401311
aF-0.032134605120745736
aF0.0
abag3
(g13
g5
Ntp952
Rp953
(lp954
F0.0
aF0.0
aF-0.19214238304149897
aF0.981367059075825
ababag3
(g4
g5
Ntp955
Rp956
(lp957
g3
(g9
g5
Ntp958
Rp959
(lp960
F6.493899232043345
aF-0.14415605449352584
aF0.0
abag3
(g13
g5
Ntp961
Rp962
(lp963
F0.0
aF0.0
aF-0.22894954562205572
aF0.9734382905759636
ababag3
(g4
g5
Ntp964
Rp965
(lp966
g3
(g9
g5
Ntp967
Rp968
(lp969
F6.69975635065791
aF-0.25387992546340554
aF0.0
abag3
(g13
g5
Ntp970
Rp971
(lp972
F0.0
aF0.0
aF-0.25570762334596264
aF0.9667541628370468
ababag3
(g4
g5
Ntp973
Rp974
(lp975
g3
(g9
g5
Ntp976
Rp977
(lp978
F6.69975635065791
aF-0.25387992546340554
aF0.0
abag3
(g13
g5
Ntp979
Rp980
(lp981
F0.0
aF0.0
aF-0.25570762334596264
aF0.9667541628370468
ababag3
(g4
g5
Ntp982
Rp983
(lp984
g3
(g9
g5
Ntp985
Rp986
(lp987
F6.775988464346355
aF-0.307743213137961
aF0.0
abag3
(g13
g5
Ntp988
Rp989
(lp990
F0.0
aF0.0
aF-0.4972563300030479
aF0.8676036781110946
ababaaa.