(lp0
(lp1
I3
aF37.562000000000126
a(lp2
ccopy_reg
_reconstructor
p3
(cgeometry_msgs.msg._Pose
Pose
p4
c__builtin__
object
p5
Ntp6
Rp7
(lp8
g3
(cgeometry_msgs.msg._Point
Point
p9
g5
Ntp10
Rp11
(lp12
F4.821377014373391
aF2.423123193941473
aF0.0
abag3
(cgeometry_msgs.msg._Quaternion
Quaternion
p13
g5
Ntp14
Rp15
(lp16
F0.0
aF0.0
aF0.779535702494373
aF0.6263577959414287
ababag3
(g4
g5
Ntp17
Rp18
(lp19
g3
(g9
g5
Ntp20
Rp21
(lp22
F4.8559278527687075
aF2.420562628400629
aF0.0
abag3
(g13
g5
Ntp23
Rp24
(lp25
F0.0
aF0.0
aF0.4147480920034879
aF0.9099362725924637
ababag3
(g4
g5
Ntp26
Rp27
(lp28
g3
(g9
g5
Ntp29
Rp30
(lp31
F5.252323435078042
aF2.4794493751061437
aF0.0
abag3
(g13
g5
Ntp32
Rp33
(lp34
F0.0
aF0.0
aF-0.07053188013021042
aF0.9975095257115582
ababag3
(g4
g5
Ntp35
Rp36
(lp37
g3
(g9
g5
Ntp38
Rp39
(lp40
F6.353148880936339
aF2.2999940482426995
aF0.0
abag3
(g13
g5
Ntp41
Rp42
(lp43
F0.0
aF0.0
aF-0.05503938914852149
aF0.9984841839719634
ababag3
(g4
g5
Ntp44
Rp45
(lp46
g3
(g9
g5
Ntp47
Rp48
(lp49
F7.15408423825726
aF2.246484408488293
aF0.0
abag3
(g13
g5
Ntp50
Rp51
(lp52
F0.0
aF0.0
aF-0.017579434474284936
aF0.9998454698019911
ababag3
(g4
g5
Ntp53
Rp54
(lp55
g3
(g9
g5
Ntp56
Rp57
(lp58
F8.220264352577168
aF2.1957343813974846
aF0.0
abag3
(g13
g5
Ntp59
Rp60
(lp61
F0.0
aF0.0
aF-0.046753255458404086
aF0.9989064686466101
ababag3
(g4
g5
Ntp62
Rp63
(lp64
g3
(g9
g5
Ntp65
Rp66
(lp67
F9.268584483867672
aF2.0764397720063674
aF0.0
abag3
(g13
g5
Ntp68
Rp69
(lp70
F0.0
aF0.0
aF-0.05228465653050654
aF0.9986322219373291
ababag3
(g4
g5
Ntp71
Rp72
(lp73
g3
(g9
g5
Ntp74
Rp75
(lp76
F10.112457337541171
aF1.8852667773979574
aF0.0
abag3
(g13
g5
Ntp77
Rp78
(lp79
F0.0
aF0.0
aF-0.2477689490591979
aF0.9688191512775233
ababag3
(g4
g5
Ntp80
Rp81
(lp82
g3
(g9
g5
Ntp83
Rp84
(lp85
F10.639002563048715
aF1.1011691373118517
aF0.0
abag3
(g13
g5
Ntp86
Rp87
(lp88
F0.0
aF0.0
aF-0.6669855750199757
aF0.745070629346824
ababag3
(g4
g5
Ntp89
Rp90
(lp91
g3
(g9
g5
Ntp92
Rp93
(lp94
F10.338802571864383
aF0.3245690903497734
aF0.0
abag3
(g13
g5
Ntp95
Rp96
(lp97
F0.0
aF0.0
aF-0.9230232043772498
aF0.3847442841435772
ababag3
(g4
g5
Ntp98
Rp99
(lp100
g3
(g9
g5
Ntp101
Rp102
(lp103
F9.718610071051144
aF-0.04226292243708124
aF0.0
abag3
(g13
g5
Ntp104
Rp105
(lp106
F0.0
aF0.0
aF-0.9877325829767463
aF0.1561548735265248
ababag3
(g4
g5
Ntp107
Rp108
(lp109
g3
(g9
g5
Ntp110
Rp111
(lp112
F8.69264789289886
aF-0.11893332506153366
aF0.0
abag3
(g13
g5
Ntp113
Rp114
(lp115
F0.0
aF0.0
aF0.9998302599910159
aF0.01842420164613515
ababag3
(g4
g5
Ntp116
Rp117
(lp118
g3
(g9
g5
Ntp119
Rp120
(lp121
F7.624048340365733
aF-0.022787069162083597
aF0.0
abag3
(g13
g5
Ntp122
Rp123
(lp124
F0.0
aF0.0
aF0.9970284451633512
aF0.07703427506733788
ababag3
(g4
g5
Ntp125
Rp126
(lp127
g3
(g9
g5
Ntp128
Rp129
(lp130
F6.563838817882254
aF0.11521453443323468
aF0.0
abag3
(g13
g5
Ntp131
Rp132
(lp133
F0.0
aF0.0
aF0.9980446506509283
aF0.06250500225635176
ababag3
(g4
g5
Ntp134
Rp135
(lp136
g3
(g9
g5
Ntp137
Rp138
(lp139
F5.77310579252384
aF0.2045033818484039
aF0.0
abag3
(g13
g5
Ntp140
Rp141
(lp142
F0.0
aF0.0
aF0.9981959827299425
aF0.060039820634344876
ababag3
(g4
g5
Ntp143
Rp144
(lp145
g3
(g9
g5
Ntp146
Rp147
(lp148
F4.6548539452631825
aF0.3540537954617366
aF0.0
abag3
(g13
g5
Ntp149
Rp150
(lp151
F0.0
aF0.0
aF0.9973727185848984
aF0.07244073593337592
ababag3
(g4
g5
Ntp152
Rp153
(lp154
g3
(g9
g5
Ntp155
Rp156
(lp157
F3.5895568689966217
aF0.47433761829098287
aF0.0
abag3
(g13
g5
Ntp158
Rp159
(lp160
F0.0
aF0.0
aF0.9992353735365845
aF0.03909818759485371
ababag3
(g4
g5
Ntp161
Rp162
(lp163
g3
(g9
g5
Ntp164
Rp165
(lp166
F2.7856077762216738
aF0.5078678703387479
aF0.0
abag3
(g13
g5
Ntp167
Rp168
(lp169
F0.0
aF0.0
aF0.9999690508633152
aF0.007867484701004297
ababag3
(g4
g5
Ntp170
Rp171
(lp172
g3
(g9
g5
Ntp173
Rp174
(lp175
F1.73098757317248
aF0.5277588934441807
aF0.0
abag3
(g13
g5
Ntp176
Rp177
(lp178
F0.0
aF0.0
aF-0.9999998812094141
aF0.0004874229762041673
ababag3
(g4
g5
Ntp179
Rp180
(lp181
g3
(g9
g5
Ntp182
Rp183
(lp184
F0.6834313893413849
aF0.48507983813021704
aF0.0
abag3
(g13
g5
Ntp185
Rp186
(lp187
F0.0
aF0.0
aF-0.9984095058318536
aF0.056377820679712365
ababag3
(g4
g5
Ntp188
Rp189
(lp190
g3
(g9
g5
Ntp191
Rp192
(lp193
F-0.3644376159881875
aF0.33100484432591676
aF0.0
abag3
(g13
g5
Ntp194
Rp195
(lp196
F0.0
aF0.0
aF-0.9960635196948094
aF0.08864234164995835
ababag3
(g4
g5
Ntp197
Rp198
(lp199
g3
(g9
g5
Ntp200
Rp201
(lp202
F-1.137305181004878
aF0.18073455509620195
aF0.0
abag3
(g13
g5
Ntp203
Rp204
(lp205
F0.0
aF0.0
aF-0.995784666463786
aF0.09172185146194076
ababag3
(g4
g5
Ntp206
Rp207
(lp208
g3
(g9
g5
Ntp209
Rp210
(lp211
F-2.188659884610012
aF0.05941946259768052
aF0.0
abag3
(g13
g5
Ntp212
Rp213
(lp214
F0.0
aF0.0
aF-0.9998698880340221
aF0.016130933104817464
ababag3
(g4
g5
Ntp215
Rp216
(lp217
g3
(g9
g5
Ntp218
Rp219
(lp220
F-3.2290567128369405
aF0.07589164011080417
aF0.0
abag3
(g13
g5
Ntp221
Rp222
(lp223
F0.0
aF0.0
aF0.9988496014980576
aF0.04795282668593699
ababag3
(g4
g5
Ntp224
Rp225
(lp226
g3
(g9
g5
Ntp227
Rp228
(lp229
F-4.265697539521365
aF0.25979038580096525
aF0.0
abag3
(g13
g5
Ntp230
Rp231
(lp232
F0.0
aF0.0
aF0.9952204919075078
aF0.09765332809166345
ababag3
(g4
g5
Ntp233
Rp234
(lp235
g3
(g9
g5
Ntp236
Rp237
(lp238
F-5.050816405268815
aF0.38536198750147405
aF0.0
abag3
(g13
g5
Ntp239
Rp240
(lp241
F0.0
aF0.0
aF0.9963962826691459
aF0.08482009127033227
ababag3
(g4
g5
Ntp242
Rp243
(lp244
g3
(g9
g5
Ntp245
Rp246
(lp247
F-6.226305722900136
aF0.5309424545665519
aF0.0
abag3
(g13
g5
Ntp248
Rp249
(lp250
F0.0
aF0.0
aF0.9991828867197353
aF0.04041730924265675
ababag3
(g4
g5
Ntp251
Rp252
(lp253
g3
(g9
g5
Ntp254
Rp255
(lp256
F-7.012432058951638
aF0.5745698431409226
aF0.0
abag3
(g13
g5
Ntp257
Rp258
(lp259
F0.0
aF0.0
aF0.9999413564321006
aF0.01082975977252985
ababag3
(g4
g5
Ntp260
Rp261
(lp262
g3
(g9
g5
Ntp263
Rp264
(lp265
F-8.043257666623887
aF0.571666488198484
aF0.0
abag3
(g13
g5
Ntp266
Rp267
(lp268
F0.0
aF0.0
aF-0.9994670585141064
aF0.03264351306400296
ababag3
(g4
g5
Ntp269
Rp270
(lp271
g3
(g9
g5
Ntp272
Rp273
(lp274
F-9.060358664400972
aF0.39064462451493437
aF0.0
abag3
(g13
g5
Ntp275
Rp276
(lp277
F0.0
aF0.0
aF-0.9914261203709693
aF0.1306684653853725
ababag3
(g4
g5
Ntp278
Rp279
(lp280
g3
(g9
g5
Ntp281
Rp282
(lp283
F-10.026985692623313
aF0.10216737133546742
aF0.0
abag3
(g13
g5
Ntp284
Rp285
(lp286
F0.0
aF0.0
aF-0.9881075311935872
aF0.1537644523240471
ababag3
(g4
g5
Ntp287
Rp288
(lp289
g3
(g9
g5
Ntp290
Rp291
(lp292
F-10.257305906339747
aF0.02863335990809251
aF0.0
abag3
(g13
g5
Ntp293
Rp294
(lp295
F0.0
aF0.0
aF-0.9869270710483388
aF0.16116747944901086
ababag3
(g4
g5
Ntp296
Rp297
(lp298
g3
(g9
g5
Ntp299
Rp300
(lp301
F-10.4612870962081
aF-0.04274836991738622
aF0.0
abag3
(g13
g5
Ntp302
Rp303
(lp304
F0.0
aF0.0
aF-0.9820638997640616
aF0.18854839373541005
ababag3
(g4
g5
Ntp305
Rp306
(lp307
g3
(g9
g5
Ntp308
Rp309
(lp310
F-10.4612870962081
aF-0.04274836991738622
aF0.0
abag3
(g13
g5
Ntp311
Rp312
(lp313
F0.0
aF0.0
aF-0.9820638997640616
aF0.18854839373541005
ababag3
(g4
g5
Ntp314
Rp315
(lp316
g3
(g9
g5
Ntp317
Rp318
(lp319
F-10.635114756821777
aF-0.13463472382933714
aF0.0
abag3
(g13
g5
Ntp320
Rp321
(lp322
F0.0
aF0.0
aF-0.9653746437591879
aF0.2608673938743992
ababag3
(g4
g5
Ntp323
Rp324
(lp325
g3
(g9
g5
Ntp326
Rp327
(lp328
F-10.635114756821777
aF-0.13463472382933714
aF0.0
abag3
(g13
g5
Ntp329
Rp330
(lp331
F0.0
aF0.0
aF-0.9653746437591879
aF0.2608673938743992
ababag3
(g4
g5
Ntp332
Rp333
(lp334
g3
(g9
g5
Ntp335
Rp336
(lp337
F-10.665139319725476
aF-0.16174379883034437
aF0.0
abag3
(g13
g5
Ntp338
Rp339
(lp340
F0.0
aF0.0
aF-0.8661322620143312
aF0.4998148704249784
ababag3
(g4
g5
Ntp341
Rp342
(lp343
g3
(g9
g5
Ntp344
Rp345
(lp346
F-10.665139319725476
aF-0.16174379883034437
aF0.0
abag3
(g13
g5
Ntp347
Rp348
(lp349
F0.0
aF0.0
aF-0.8661322620143312
aF0.4998148704249784
ababaaa.