(lp0
(lp1
I3
aF21.199999999999818
a(lp2
ccopy_reg
_reconstructor
p3
(cgeometry_msgs.msg._Pose
Pose
p4
c__builtin__
object
p5
Ntp6
Rp7
(lp8
g3
(cgeometry_msgs.msg._Point
Point
p9
g5
Ntp10
Rp11
(lp12
F-12.519558234486814
aF-0.2540162702517358
aF0.0
abag3
(cgeometry_msgs.msg._Quaternion
Quaternion
p13
g5
Ntp14
Rp15
(lp16
F0.0
aF0.0
aF-0.6066743081473733
aF0.7949504914357283
ababag3
(g4
g5
Ntp17
Rp18
(lp19
g3
(g9
g5
Ntp20
Rp21
(lp22
F-12.529920544214942
aF-0.2858261981330816
aF0.0
abag3
(g13
g5
Ntp23
Rp24
(lp25
F0.0
aF0.0
aF-0.5158606781154168
aF0.8566724932985197
ababag3
(g4
g5
Ntp26
Rp27
(lp28
g3
(g9
g5
Ntp29
Rp30
(lp31
F-11.790115599200512
aF-0.5756874242515785
aF0.0
abag3
(g13
g5
Ntp32
Rp33
(lp34
F0.0
aF0.0
aF-0.03237532684099229
aF0.9994757817035583
ababag3
(g4
g5
Ntp35
Rp36
(lp37
g3
(g9
g5
Ntp38
Rp39
(lp40
F-10.907132734207156
aF-0.4824116591738609
aF0.0
abag3
(g13
g5
Ntp41
Rp42
(lp43
F0.0
aF0.0
aF0.1380100764415565
aF0.990430824843712
ababag3
(g4
g5
Ntp44
Rp45
(lp46
g3
(g9
g5
Ntp47
Rp48
(lp49
F-10.018455846362475
aF-0.4252288032990816
aF0.0
abag3
(g13
g5
Ntp50
Rp51
(lp52
F0.0
aF0.0
aF-0.14927485273207383
aF0.9887957414662635
ababag3
(g4
g5
Ntp53
Rp54
(lp55
g3
(g9
g5
Ntp56
Rp57
(lp58
F-9.263776461883072
aF-0.9761180765252991
aF0.0
abag3
(g13
g5
Ntp59
Rp60
(lp61
F0.0
aF0.0
aF-0.4587685085905685
aF0.8885558257788789
ababag3
(g4
g5
Ntp62
Rp63
(lp64
g3
(g9
g5
Ntp65
Rp66
(lp67
F-9.012113406664485
aF-1.6578768803089752
aF0.0
abag3
(g13
g5
Ntp68
Rp69
(lp70
F0.0
aF0.0
aF-0.6653379789106422
aF0.7465422786548006
ababag3
(g4
g5
Ntp71
Rp72
(lp73
g3
(g9
g5
Ntp74
Rp75
(lp76
F-8.980380384039199
aF-1.9617206311593107
aF0.0
abag3
(g13
g5
Ntp77
Rp78
(lp79
F0.0
aF0.0
aF-0.6754432054550569
aF0.737412012517153
ababag3
(g4
g5
Ntp80
Rp81
(lp82
g3
(g9
g5
Ntp83
Rp84
(lp85
F-8.980380384039199
aF-1.9617206311593107
aF0.0
abag3
(g13
g5
Ntp86
Rp87
(lp88
F0.0
aF0.0
aF-0.6754432054550569
aF0.737412012517153
ababag3
(g4
g5
Ntp89
Rp90
(lp91
g3
(g9
g5
Ntp92
Rp93
(lp94
F-8.959439949958162
aF-2.179300732150912
aF0.0
abag3
(g13
g5
Ntp95
Rp96
(lp97
F0.0
aF0.0
aF-0.7650123823991802
aF0.6440155702899817
ababag3
(g4
g5
Ntp98
Rp99
(lp100
g3
(g9
g5
Ntp101
Rp102
(lp103
F-8.959439949958162
aF-2.179300732150912
aF0.0
abag3
(g13
g5
Ntp104
Rp105
(lp106
F0.0
aF0.0
aF-0.7650123823991802
aF0.6440155702899817
ababag3
(g4
g5
Ntp107
Rp108
(lp109
g3
(g9
g5
Ntp110
Rp111
(lp112
F-8.959439949958162
aF-2.179300732150912
aF0.0
abag3
(g13
g5
Ntp113
Rp114
(lp115
F0.0
aF0.0
aF-0.7650123823991802
aF0.6440155702899817
ababag3
(g4
g5
Ntp116
Rp117
(lp118
g3
(g9
g5
Ntp119
Rp120
(lp121
F-8.914561292299826
aF-1.950749301050919
aF0.0
abag3
(g13
g5
Ntp122
Rp123
(lp124
F0.0
aF0.0
aF-0.7665908271823451
aF0.6421358919106516
ababag3
(g4
g5
Ntp125
Rp126
(lp127
g3
(g9
g5
Ntp128
Rp129
(lp130
F-9.103594370113232
aF-2.4313056178405192
aF0.0
abag3
(g13
g5
Ntp131
Rp132
(lp133
F0.0
aF0.0
aF-0.8417211213260323
aF0.5399125428378626
ababag3
(g4
g5
Ntp134
Rp135
(lp136
g3
(g9
g5
Ntp137
Rp138
(lp139
F-9.652506322069565
aF-3.2690021524062933
aF0.0
abag3
(g13
g5
Ntp140
Rp141
(lp142
F0.0
aF0.0
aF-0.909928296338169
aF0.4147655910548961
ababag3
(g4
g5
Ntp143
Rp144
(lp145
g3
(g9
g5
Ntp146
Rp147
(lp148
F-9.972037953777939
aF-3.598721060783611
aF0.0
abag3
(g13
g5
Ntp149
Rp150
(lp151
F0.0
aF0.0
aF-0.9340469053597268
aF0.3571503585157345
ababag3
(g4
g5
Ntp152
Rp153
(lp154
g3
(g9
g5
Ntp155
Rp156
(lp157
F-10.155428228070438
aF-3.754942823650619
aF0.0
abag3
(g13
g5
Ntp158
Rp159
(lp160
F0.0
aF0.0
aF-0.9446640784959682
aF0.3280392945964906
ababag3
(g4
g5
Ntp161
Rp162
(lp163
g3
(g9
g5
Ntp164
Rp165
(lp166
F-10.155428228070438
aF-3.754942823650619
aF0.0
abag3
(g13
g5
Ntp167
Rp168
(lp169
F0.0
aF0.0
aF-0.9446640784959682
aF0.3280392945964906
ababag3
(g4
g5
Ntp170
Rp171
(lp172
g3
(g9
g5
Ntp173
Rp174
(lp175
F-10.155428228070438
aF-3.754942823650619
aF0.0
abag3
(g13
g5
Ntp176
Rp177
(lp178
F0.0
aF0.0
aF-0.9446640784959682
aF0.3280392945964906
ababag3
(g4
g5
Ntp179
Rp180
(lp181
g3
(g9
g5
Ntp182
Rp183
(lp184
F-10.320526076517835
aF-3.8751027718512203
aF0.0
abag3
(g13
g5
Ntp185
Rp186
(lp187
F0.0
aF0.0
aF-0.928202558199953
aF0.37207527592015954
ababag3
(g4
g5
Ntp188
Rp189
(lp190
g3
(g9
g5
Ntp191
Rp192
(lp193
F-10.323287275239196
aF-3.8806866048335396
aF0.0
abag3
(g13
g5
Ntp194
Rp195
(lp196
F0.0
aF0.0
aF-0.8022946829037921
aF0.5969281713776824
ababag3
(g4
g5
Ntp197
Rp198
(lp199
g3
(g9
g5
Ntp200
Rp201
(lp202
F-10.323287275239196
aF-3.8806866048335396
aF0.0
abag3
(g13
g5
Ntp203
Rp204
(lp205
F0.0
aF0.0
aF-0.8022946829037921
aF0.5969281713776824
ababaaa.