(lp0
(lp1
I3
aF37.04099999999994
a(lp2
ccopy_reg
_reconstructor
p3
(cgeometry_msgs.msg._Pose
Pose
p4
c__builtin__
object
p5
Ntp6
Rp7
(lp8
g3
(cgeometry_msgs.msg._Point
Point
p9
g5
Ntp10
Rp11
(lp12
F-5.242088027536202
aF2.410370131679778
aF0.0
abag3
(cgeometry_msgs.msg._Quaternion
Quaternion
p13
g5
Ntp14
Rp15
(lp16
F0.0
aF0.0
aF0.7134719408161714
aF0.700683801488236
ababag3
(g4
g5
Ntp17
Rp18
(lp19
g3
(g9
g5
Ntp20
Rp21
(lp22
F-5.242088027536202
aF2.410370131679778
aF0.0
abag3
(g13
g5
Ntp23
Rp24
(lp25
F0.0
aF0.0
aF0.7134719408161714
aF0.700683801488236
ababag3
(g4
g5
Ntp26
Rp27
(lp28
g3
(g9
g5
Ntp29
Rp30
(lp31
F-5.237441858397197
aF2.4206838333624785
aF0.0
abag3
(g13
g5
Ntp32
Rp33
(lp34
F0.0
aF0.0
aF0.8003950346583785
aF0.5994729255723007
ababag3
(g4
g5
Ntp35
Rp36
(lp37
g3
(g9
g5
Ntp38
Rp39
(lp40
F-5.237441858397197
aF2.4206838333624785
aF0.0
abag3
(g13
g5
Ntp41
Rp42
(lp43
F0.0
aF0.0
aF0.8003950346583785
aF0.5994729255723007
ababag3
(g4
g5
Ntp44
Rp45
(lp46
g3
(g9
g5
Ntp47
Rp48
(lp49
F-5.255783572830081
aF2.4474304295577554
aF0.0
abag3
(g13
g5
Ntp50
Rp51
(lp52
F0.0
aF0.0
aF0.9290708517017804
aF0.3699018146996962
ababag3
(g4
g5
Ntp53
Rp54
(lp55
g3
(g9
g5
Ntp56
Rp57
(lp58
F-5.255783572830081
aF2.4474304295577554
aF0.0
abag3
(g13
g5
Ntp59
Rp60
(lp61
F0.0
aF0.0
aF0.9290708517017804
aF0.3699018146996962
ababag3
(g4
g5
Ntp62
Rp63
(lp64
g3
(g9
g5
Ntp65
Rp66
(lp67
F-5.277108589252771
aF2.4671023495323143
aF0.0
abag3
(g13
g5
Ntp68
Rp69
(lp70
F0.0
aF0.0
aF0.9937179621115028
aF0.11191341196193604
ababag3
(g4
g5
Ntp71
Rp72
(lp73
g3
(g9
g5
Ntp74
Rp75
(lp76
F-5.305200661140353
aF2.4657263749033462
aF0.0
abag3
(g13
g5
Ntp77
Rp78
(lp79
F0.0
aF0.0
aF-0.988443322287836
aF0.15159089228771316
ababag3
(g4
g5
Ntp80
Rp81
(lp82
g3
(g9
g5
Ntp83
Rp84
(lp85
F-5.343207877231189
aF2.4215505431312976
aF0.0
abag3
(g13
g5
Ntp86
Rp87
(lp88
F0.0
aF0.0
aF-0.768011762617578
aF0.6404357364178245
ababag3
(g4
g5
Ntp89
Rp90
(lp91
g3
(g9
g5
Ntp92
Rp93
(lp94
F-5.229217079453572
aF2.2832355682632417
aF0.0
abag3
(g13
g5
Ntp95
Rp96
(lp97
F0.0
aF0.0
aF-0.3234585466491176
aF0.9462423413690811
ababag3
(g4
g5
Ntp98
Rp99
(lp100
g3
(g9
g5
Ntp101
Rp102
(lp103
F-4.424766584268928
aF2.1586606991735486
aF0.0
abag3
(g13
g5
Ntp104
Rp105
(lp106
F0.0
aF0.0
aF0.05745431640942874
aF0.9983481364363461
ababag3
(g4
g5
Ntp107
Rp108
(lp109
g3
(g9
g5
Ntp110
Rp111
(lp112
F-3.3624320308247913
aF2.32164312939576
aF0.0
abag3
(g13
g5
Ntp113
Rp114
(lp115
F0.0
aF0.0
aF0.057404129577694814
aF0.9983510233917864
ababag3
(g4
g5
Ntp116
Rp117
(lp118
g3
(g9
g5
Ntp119
Rp120
(lp121
F-2.306109265691831
aF2.3854624190876517
aF0.0
abag3
(g13
g5
Ntp122
Rp123
(lp124
F0.0
aF0.0
aF0.0005121553361818921
aF0.9999998688484472
ababag3
(g4
g5
Ntp125
Rp126
(lp127
g3
(g9
g5
Ntp128
Rp129
(lp130
F-1.2553352317743693
aF2.3361873582093726
aF0.0
abag3
(g13
g5
Ntp131
Rp132
(lp133
F0.0
aF0.0
aF-0.04953272456180093
aF0.9987725012221176
ababag3
(g4
g5
Ntp134
Rp135
(lp136
g3
(g9
g5
Ntp137
Rp138
(lp139
F-0.4808919928661614
aF2.219629641897342
aF0.0
abag3
(g13
g5
Ntp140
Rp141
(lp142
F0.0
aF0.0
aF-0.09274367172825854
aF0.9956900177034823
ababag3
(g4
g5
Ntp143
Rp144
(lp145
g3
(g9
g5
Ntp146
Rp147
(lp148
F0.4670565527544534
aF1.900481553755808
aF0.0
abag3
(g13
g5
Ntp149
Rp150
(lp151
F0.0
aF0.0
aF-0.2758662787649811
aF0.9611960238371576
ababag3
(g4
g5
Ntp152
Rp153
(lp154
g3
(g9
g5
Ntp155
Rp156
(lp157
F1.1118970846276237
aF1.299141974323617
aF0.0
abag3
(g13
g5
Ntp158
Rp159
(lp160
F0.0
aF0.0
aF-0.44134839021769445
aF0.8973358337056699
ababag3
(g4
g5
Ntp161
Rp162
(lp163
g3
(g9
g5
Ntp164
Rp165
(lp166
F1.805482188227988
aF0.6885507845165185
aF0.0
abag3
(g13
g5
Ntp167
Rp168
(lp169
F0.0
aF0.0
aF-0.23909563976240597
aF0.9709960221579725
ababag3
(g4
g5
Ntp170
Rp171
(lp172
g3
(g9
g5
Ntp173
Rp174
(lp175
F2.7904547915281954
aF0.45592409678896273
aF0.0
abag3
(g13
g5
Ntp176
Rp177
(lp178
F0.0
aF0.0
aF-0.02106866837677632
aF0.9997780309712898
ababag3
(g4
g5
Ntp179
Rp180
(lp181
g3
(g9
g5
Ntp182
Rp183
(lp184
F3.8430758267668734
aF0.45238065078764067
aF0.0
abag3
(g13
g5
Ntp185
Rp186
(lp187
F0.0
aF0.0
aF-0.006020866091640743
aF0.999981874421485
ababag3
(g4
g5
Ntp188
Rp189
(lp190
g3
(g9
g5
Ntp191
Rp192
(lp193
F4.889917412042955
aF0.3851130538045627
aF0.0
abag3
(g13
g5
Ntp194
Rp195
(lp196
F0.0
aF0.0
aF-0.05290706219722386
aF0.9985994406015152
ababag3
(g4
g5
Ntp197
Rp198
(lp199
g3
(g9
g5
Ntp200
Rp201
(lp202
F5.672658006672635
aF0.25916925409545627
aF0.0
abag3
(g13
g5
Ntp203
Rp204
(lp205
F0.0
aF0.0
aF-0.10056134081281284
aF0.9949308602782051
ababag3
(g4
g5
Ntp206
Rp207
(lp208
g3
(g9
g5
Ntp209
Rp210
(lp211
F6.703419710316562
aF0.09777135656883995
aF0.0
abag3
(g13
g5
Ntp212
Rp213
(lp214
F0.0
aF0.0
aF-0.06178530227801062
aF0.9980894631356524
ababag3
(g4
g5
Ntp215
Rp216
(lp217
g3
(g9
g5
Ntp218
Rp219
(lp220
F7.7584770632113775
aF0.02846130837319893
aF0.0
abag3
(g13
g5
Ntp221
Rp222
(lp223
F0.0
aF0.0
aF-0.0039777388975745405
aF0.9999920887653375
ababag3
(g4
g5
Ntp224
Rp225
(lp226
g3
(g9
g5
Ntp227
Rp228
(lp229
F8.80270534512172
aF0.07329209587915385
aF0.0
abag3
(g13
g5
Ntp230
Rp231
(lp232
F0.0
aF0.0
aF0.0395101335028956
aF0.9992191698274124
ababag3
(g4
g5
Ntp233
Rp234
(lp235
g3
(g9
g5
Ntp236
Rp237
(lp238
F9.56531487963837
aF0.18427794937873604
aF0.0
abag3
(g13
g5
Ntp239
Rp240
(lp241
F0.0
aF0.0
aF0.10488820633028867
aF0.9944840190635619
ababag3
(g4
g5
Ntp242
Rp243
(lp244
g3
(g9
g5
Ntp245
Rp246
(lp247
F10.307714610364954
aF0.4526696026577838
aF0.0
abag3
(g13
g5
Ntp248
Rp249
(lp250
F0.0
aF0.0
aF0.2985308665020972
aF0.9543999799588782
ababag3
(g4
g5
Ntp251
Rp252
(lp253
g3
(g9
g5
Ntp254
Rp255
(lp256
F10.806699646856593
aF1.3408145365421087
aF0.0
abag3
(g13
g5
Ntp257
Rp258
(lp259
F0.0
aF0.0
aF0.6979452790101481
aF0.7161510926525536
ababag3
(g4
g5
Ntp260
Rp261
(lp262
g3
(g9
g5
Ntp263
Rp264
(lp265
F10.383573795048676
aF2.073585031528625
aF0.0
abag3
(g13
g5
Ntp266
Rp267
(lp268
F0.0
aF0.0
aF0.9516819355799668
aF0.30708548238359934
ababag3
(g4
g5
Ntp269
Rp270
(lp271
g3
(g9
g5
Ntp272
Rp273
(lp274
F9.445790694203547
aF2.3221464651838777
aF0.0
abag3
(g13
g5
Ntp275
Rp276
(lp277
F0.0
aF0.0
aF-0.999832904342964
aF0.01828013657261101
ababag3
(g4
g5
Ntp278
Rp279
(lp280
g3
(g9
g5
Ntp281
Rp282
(lp283
F8.647865542803785
aF2.2470956379213787
aF0.0
abag3
(g13
g5
Ntp284
Rp285
(lp286
F0.0
aF0.0
aF-0.9985319243434916
aF0.054166373949929146
ababag3
(g4
g5
Ntp287
Rp288
(lp289
g3
(g9
g5
Ntp290
Rp291
(lp292
F7.639635807388199
aF2.2170857675784084
aF0.0
abag3
(g13
g5
Ntp293
Rp294
(lp295
F0.0
aF0.0
aF0.9998085756460352
aF0.019565583677629953
ababag3
(g4
g5
Ntp296
Rp297
(lp298
g3
(g9
g5
Ntp299
Rp300
(lp301
F7.188589734311346
aF2.27141962431216
aF0.0
abag3
(g13
g5
Ntp302
Rp303
(lp304
F0.0
aF0.0
aF0.9908156970340866
aF0.1352192830585089
ababag3
(g4
g5
Ntp305
Rp306
(lp307
g3
(g9
g5
Ntp308
Rp309
(lp310
F7.188589734311346
aF2.27141962431216
aF0.0
abag3
(g13
g5
Ntp311
Rp312
(lp313
F0.0
aF0.0
aF0.9908156970340866
aF0.1352192830585089
ababag3
(g4
g5
Ntp314
Rp315
(lp316
g3
(g9
g5
Ntp317
Rp318
(lp319
F7.063119885014881
aF2.3246001360025175
aF0.0
abag3
(g13
g5
Ntp320
Rp321
(lp322
F0.0
aF0.0
aF0.9378369658639725
aF0.3470761090295011
ababag3
(g4
g5
Ntp323
Rp324
(lp325
g3
(g9
g5
Ntp326
Rp327
(lp328
F7.063119885014881
aF2.3246001360025175
aF0.0
abag3
(g13
g5
Ntp329
Rp330
(lp331
F0.0
aF0.0
aF0.9378369658639725
aF0.3470761090295011
ababag3
(g4
g5
Ntp332
Rp333
(lp334
g3
(g9
g5
Ntp335
Rp336
(lp337
F7.0417617852462016
aF2.356512688746928
aF0.0
abag3
(g13
g5
Ntp338
Rp339
(lp340
F0.0
aF0.0
aF0.819386015550429
aF0.5732421456246847
ababaaa(lp341
I3
aF31.91999999999996
a(lp342
g3
(g4
g5
Ntp343
Rp344
(lp345
g3
(g9
g5
Ntp346
Rp347
(lp348
F-5.241967561507356
aF2.410079138882153
aF0.0
abag3
(g13
g5
Ntp349
Rp350
(lp351
F0.0
aF0.0
aF0.7140680070676076
aF0.700076339610542
ababag3
(g4
g5
Ntp352
Rp353
(lp354
g3
(g9
g5
Ntp355
Rp356
(lp357
F-5.222593132689108
aF2.43811241254722
aF0.0
abag3
(g13
g5
Ntp358
Rp359
(lp360
F0.0
aF0.0
aF0.3713403302515151
aF0.9284968277429362
ababag3
(g4
g5
Ntp361
Rp362
(lp363
g3
(g9
g5
Ntp364
Rp365
(lp366
F-4.832887683646402
aF2.505739883255627
aF0.0
abag3
(g13
g5
Ntp367
Rp368
(lp369
F0.0
aF0.0
aF-0.0292454207279984
aF0.9995722612029819
ababag3
(g4
g5
Ntp370
Rp371
(lp372
g3
(g9
g5
Ntp373
Rp374
(lp375
F-3.794075134504915
aF2.409183500676343
aF0.0
abag3
(g13
g5
Ntp376
Rp377
(lp378
F0.0
aF0.0
aF-0.050575500622114467
aF0.9987202404761919
ababag3
(g4
g5
Ntp379
Rp380
(lp381
g3
(g9
g5
Ntp382
Rp383
(lp384
F-2.735936565429444
aF2.344917841090936
aF0.0
abag3
(g13
g5
Ntp385
Rp386
(lp387
F0.0
aF0.0
aF-0.020887924669364795
aF0.9997818235010111
ababag3
(g4
g5
Ntp388
Rp389
(lp390
g3
(g9
g5
Ntp391
Rp392
(lp393
F-1.6828645254010148
aF2.301116727616357
aF0.0
abag3
(g13
g5
Ntp394
Rp395
(lp396
F0.0
aF0.0
aF-0.024113054469764875
aF0.9997092380308077
ababag3
(g4
g5
Ntp397
Rp398
(lp399
g3
(g9
g5
Ntp400
Rp401
(lp402
F-0.8925492201815401
aF2.257453463554061
aF0.0
abag3
(g13
g5
Ntp403
Rp404
(lp405
F0.0
aF0.0
aF-0.047292130575684946
aF0.9988811012255725
ababag3
(g4
g5
Ntp406
Rp407
(lp408
g3
(g9
g5
Ntp409
Rp410
(lp411
F0.13048902260466194
aF2.0704958046295867
aF0.0
abag3
(g13
g5
Ntp412
Rp413
(lp414
F0.0
aF0.0
aF-0.1678116024355346
aF0.9858190838526195
ababag3
(g4
g5
Ntp415
Rp416
(lp417
g3
(g9
g5
Ntp418
Rp419
(lp420
F0.9201847220869795
aF1.585553139945682
aF0.0
abag3
(g13
g5
Ntp421
Rp422
(lp423
F0.0
aF0.0
aF-0.3738947894543827
aF0.927471124304613
ababag3
(g4
g5
Ntp424
Rp425
(lp426
g3
(g9
g5
Ntp427
Rp428
(lp429
F1.578655997073405
aF0.8141733758216189
aF0.0
abag3
(g13
g5
Ntp430
Rp431
(lp432
F0.0
aF0.0
aF-0.36208028626588734
aF0.9321469124004076
ababag3
(g4
g5
Ntp433
Rp434
(lp435
g3
(g9
g5
Ntp436
Rp437
(lp438
F2.3484760069119943
aF0.41486854730273737
aF0.0
abag3
(g13
g5
Ntp439
Rp440
(lp441
F0.0
aF0.0
aF-0.1250791023576529
aF0.9921467724855046
ababag3
(g4
g5
Ntp442
Rp443
(lp444
g3
(g9
g5
Ntp445
Rp446
(lp447
F3.3880429036593
aF0.3189718790750134
aF0.0
abag3
(g13
g5
Ntp448
Rp449
(lp450
F0.0
aF0.0
aF0.006006191037083139
aF0.9999819626719404
ababag3
(g4
g5
Ntp451
Rp452
(lp453
g3
(g9
g5
Ntp454
Rp455
(lp456
F4.440452237251544
aF0.3631386436266558
aF0.0
abag3
(g13
g5
Ntp457
Rp458
(lp459
F0.0
aF0.0
aF0.007982709184629724
aF0.9999681376694327
ababag3
(g4
g5
Ntp460
Rp461
(lp462
g3
(g9
g5
Ntp463
Rp464
(lp465
F5.234498749078301
aF0.33184561704410026
aF0.0
abag3
(g13
g5
Ntp466
Rp467
(lp468
F0.0
aF0.0
aF-0.054029810441780325
aF0.9985393230031681
ababag3
(g4
g5
Ntp469
Rp470
(lp471
g3
(g9
g5
Ntp472
Rp473
(lp474
F6.279040495689713
aF0.15901242075680186
aF0.0
abag3
(g13
g5
Ntp475
Rp476
(lp477
F0.0
aF0.0
aF-0.09186468235886895
aF0.9957714999612632
ababag3
(g4
g5
Ntp478
Rp479
(lp480
g3
(g9
g5
Ntp481
Rp482
(lp483
F7.319579857406411
aF0.013158788154903654
aF0.0
abag3
(g13
g5
Ntp484
Rp485
(lp486
F0.0
aF0.0
aF-0.06023638008430827
aF0.9981841405844609
ababag3
(g4
g5
Ntp487
Rp488
(lp489
g3
(g9
g5
Ntp490
Rp491
(lp492
F8.367110316089175
aF-0.05338165084934168
aF0.0
abag3
(g13
g5
Ntp493
Rp494
(lp495
F0.0
aF0.0
aF0.015575978605361562
aF0.9998786870868313
ababag3
(g4
g5
Ntp496
Rp497
(lp498
g3
(g9
g5
Ntp499
Rp500
(lp501
F9.151097713674961
aF0.04331684666667323
aF0.0
abag3
(g13
g5
Ntp502
Rp503
(lp504
F0.0
aF0.0
aF0.10693452305634284
aF0.9942660648833955
ababag3
(g4
g5
Ntp505
Rp506
(lp507
g3
(g9
g5
Ntp508
Rp509
(lp510
F10.134258958713815
aF0.35962562776312135
aF0.0
abag3
(g13
g5
Ntp511
Rp512
(lp513
F0.0
aF0.0
aF0.2327538873509173
aF0.9725356692291736
ababag3
(g4
g5
Ntp514
Rp515
(lp516
g3
(g9
g5
Ntp517
Rp518
(lp519
F10.704252076415651
aF0.9426446263920546
aF0.0
abag3
(g13
g5
Ntp520
Rp521
(lp522
F0.0
aF0.0
aF0.5482686543405494
aF0.8363022675250875
ababag3
(g4
g5
Ntp523
Rp524
(lp525
g3
(g9
g5
Ntp526
Rp527
(lp528
F10.674264566009736
aF1.9226942687613418
aF0.0
abag3
(g13
g5
Ntp529
Rp530
(lp531
F0.0
aF0.0
aF0.8487594613771502
aF0.5287791379420806
ababag3
(g4
g5
Ntp532
Rp533
(lp534
g3
(g9
g5
Ntp535
Rp536
(lp537
F10.086191432593417
aF2.4881961956431304
aF0.0
abag3
(g13
g5
Ntp538
Rp539
(lp540
F0.0
aF0.0
aF0.9776249755518279
aF0.21035543058663342
ababag3
(g4
g5
Ntp541
Rp542
(lp543
g3
(g9
g5
Ntp544
Rp545
(lp546
F9.019437903044443
aF2.603487863089194
aF0.0
abag3
(g13
g5
Ntp547
Rp548
(lp549
F0.0
aF0.0
aF-0.9977438132976448
aF0.0671363018513418
ababag3
(g4
g5
Ntp550
Rp551
(lp552
g3
(g9
g5
Ntp553
Rp554
(lp555
F8.222169960299096
aF2.4900179573306205
aF0.0
abag3
(g13
g5
Ntp556
Rp557
(lp558
F0.0
aF0.0
aF-0.9981324517112243
aF0.061086895820138855
ababag3
(g4
g5
Ntp559
Rp560
(lp561
g3
(g9
g5
Ntp562
Rp563
(lp564
F7.486699810023568
aF2.4228557103307704
aF0.0
abag3
(g13
g5
Ntp565
Rp566
(lp567
F0.0
aF0.0
aF-0.9990208028357855
aF0.04424291470215886
ababag3
(g4
g5
Ntp568
Rp569
(lp570
g3
(g9
g5
Ntp571
Rp572
(lp573
F7.251102528776853
aF2.3999719724230704
aF0.0
abag3
(g13
g5
Ntp574
Rp575
(lp576
F0.0
aF0.0
aF-0.9986125328658275
aF0.052659369567974575
ababag3
(g4
g5
Ntp577
Rp578
(lp579
g3
(g9
g5
Ntp580
Rp581
(lp582
F7.251102528776853
aF2.3999719724230704
aF0.0
abag3
(g13
g5
Ntp583
Rp584
(lp585
F0.0
aF0.0
aF-0.9986125328658275
aF0.052659369567974575
ababag3
(g4
g5
Ntp586
Rp587
(lp588
g3
(g9
g5
Ntp589
Rp590
(lp591
F7.052270188807884
aF2.375629778831597
aF0.0
abag3
(g13
g5
Ntp592
Rp593
(lp594
F0.0
aF0.0
aF-0.9992626034364956
aF0.03839595516870113
ababag3
(g4
g5
Ntp595
Rp596
(lp597
g3
(g9
g5
Ntp598
Rp599
(lp600
F7.020058054727023
aF2.379973077564442
aF0.0
abag3
(g13
g5
Ntp601
Rp602
(lp603
F0.0
aF0.0
aF0.9747012308433921
aF0.22351176835320444
ababag3
(g4
g5
Ntp604
Rp605
(lp606
g3
(g9
g5
Ntp607
Rp608
(lp609
F7.020058054727023
aF2.379973077564442
aF0.0
abag3
(g13
g5
Ntp610
Rp611
(lp612
F0.0
aF0.0
aF0.9747012308433921
aF0.22351176835320444
ababag3
(g4
g5
Ntp613
Rp614
(lp615
g3
(g9
g5
Ntp616
Rp617
(lp618
F6.989828300718659
aF2.4017008312434545
aF0.0
abag3
(g13
g5
Ntp619
Rp620
(lp621
F0.0
aF0.0
aF0.8865493704381774
aF0.46263399548203477
ababag3
(g4
g5
Ntp622
Rp623
(lp624
g3
(g9
g5
Ntp625
Rp626
(lp627
F6.989828300718659
aF2.4017008312434545
aF0.0
abag3
(g13
g5
Ntp628
Rp629
(lp630
F0.0
aF0.0
aF0.8865493704381774
aF0.46263399548203477
ababaaa.