(lp0
(lp1
I3
aF17.04
a(lp2
ccopy_reg
_reconstructor
p3
(cgeometry_msgs.msg._Pose
Pose
p4
c__builtin__
object
p5
Ntp6
Rp7
(lp8
g3
(cgeometry_msgs.msg._Point
Point
p9
g5
Ntp10
Rp11
(lp12
F-0.7127513748333854
aF2.2690800458532285
aF0.0
abag3
(cgeometry_msgs.msg._Quaternion
Quaternion
p13
g5
Ntp14
Rp15
(lp16
F0.0
aF0.0
aF0.6196831079222447
aF0.7848521171251485
ababag3
(g4
g5
Ntp17
Rp18
(lp19
g3
(g9
g5
Ntp20
Rp21
(lp22
F-0.7329171641044089
aF2.2755600398736155
aF0.0
abag3
(g13
g5
Ntp23
Rp24
(lp25
F0.0
aF0.0
aF0.5284436358405344
aF0.8489683879507155
ababag3
(g4
g5
Ntp26
Rp27
(lp28
g3
(g9
g5
Ntp29
Rp30
(lp31
F-0.3635550580488359
aF2.29543152145632
aF0.0
abag3
(g13
g5
Ntp32
Rp33
(lp34
F0.0
aF0.0
aF-0.11056658829589151
aF0.9938687184697015
ababag3
(g4
g5
Ntp35
Rp36
(lp37
g3
(g9
g5
Ntp38
Rp39
(lp40
F0.3064571450947447
aF2.0616167691538703
aF0.0
abag3
(g13
g5
Ntp41
Rp42
(lp43
F0.0
aF0.0
aF-0.27714421868739914
aF0.9608283312060231
ababag3
(g4
g5
Ntp44
Rp45
(lp46
g3
(g9
g5
Ntp47
Rp48
(lp49
F0.9313710918025601
aF1.140260561201301
aF0.0
abag3
(g13
g5
Ntp50
Rp51
(lp52
F0.0
aF0.0
aF-0.630938695481631
aF0.7758326897881641
ababag3
(g4
g5
Ntp53
Rp54
(lp55
g3
(g9
g5
Ntp56
Rp57
(lp58
F0.968362096081015
aF0.39279290074000284
aF0.0
abag3
(g13
g5
Ntp59
Rp60
(lp61
F0.0
aF0.0
aF-0.7403329260745044
aF0.6722404023635907
ababag3
(g4
g5
Ntp62
Rp63
(lp64
g3
(g9
g5
Ntp65
Rp66
(lp67
F0.849532058418882
aF-0.6403236115704499
aF0.0
abag3
(g13
g5
Ntp68
Rp69
(lp70
F0.0
aF0.0
aF-0.7483861770661361
aF0.6632632433478687
ababag3
(g4
g5
Ntp71
Rp72
(lp73
g3
(g9
g5
Ntp74
Rp75
(lp76
F0.7389613579026892
aF-1.675312624839126
aF0.0
abag3
(g13
g5
Ntp77
Rp78
(lp79
F0.0
aF0.0
aF-0.7394281287095195
aF0.6732355029803007
ababag3
(g4
g5
Ntp80
Rp81
(lp82
g3
(g9
g5
Ntp83
Rp84
(lp85
F0.6384552874635578
aF-2.7076556049309515
aF0.0
abag3
(g13
g5
Ntp86
Rp87
(lp88
F0.0
aF0.0
aF-0.7483925034986764
aF0.6632561049149746
ababag3
(g4
g5
Ntp89
Rp90
(lp91
g3
(g9
g5
Ntp92
Rp93
(lp94
F0.5065923998243343
aF-3.431593823891608
aF0.0
abag3
(g13
g5
Ntp95
Rp96
(lp97
F0.0
aF0.0
aF-0.8111092204563908
aF0.5848947191509136
ababag3
(g4
g5
Ntp98
Rp99
(lp100
g3
(g9
g5
Ntp101
Rp102
(lp103
F0.4168203972658321
aF-3.6582178445691667
aF0.0
abag3
(g13
g5
Ntp104
Rp105
(lp106
F0.0
aF0.0
aF-0.8439382605848866
aF0.5364403157117816
ababag3
(g4
g5
Ntp107
Rp108
(lp109
g3
(g9
g5
Ntp110
Rp111
(lp112
F0.4168203972658321
aF-3.6582178445691667
aF0.0
abag3
(g13
g5
Ntp113
Rp114
(lp115
F0.0
aF0.0
aF-0.8439382605848866
aF0.5364403157117816
ababag3
(g4
g5
Ntp116
Rp117
(lp118
g3
(g9
g5
Ntp119
Rp120
(lp121
F0.4168203972658321
aF-3.6582178445691667
aF0.0
abag3
(g13
g5
Ntp122
Rp123
(lp124
F0.0
aF0.0
aF-0.8439382605848866
aF0.5364403157117816
ababag3
(g4
g5
Ntp125
Rp126
(lp127
g3
(g9
g5
Ntp128
Rp129
(lp130
F0.3299010668225963
aF-3.8312196156335214
aF0.0
abag3
(g13
g5
Ntp131
Rp132
(lp133
F0.0
aF0.0
aF-0.791714669512692
aF0.6108910558179822
ababag3
(g4
g5
Ntp134
Rp135
(lp136
g3
(g9
g5
Ntp137
Rp138
(lp139
F0.3299010668225963
aF-3.8312196156335214
aF0.0
abag3
(g13
g5
Ntp140
Rp141
(lp142
F0.0
aF0.0
aF-0.791714669512692
aF0.6108910558179822
ababag3
(g4
g5
Ntp143
Rp144
(lp145
g3
(g9
g5
Ntp146
Rp147
(lp148
F0.33289636898608577
aF-3.8325740552325205
aF0.0
abag3
(g13
g5
Ntp149
Rp150
(lp151
F0.0
aF0.0
aF-0.6025302993057701
aF0.7980960082712475
ababag3
(g4
g5
Ntp152
Rp153
(lp154
g3
(g9
g5
Ntp155
Rp156
(lp157
F0.34290710528117335
aF-3.839662546260469
aF0.0
abag3
(g13
g5
Ntp158
Rp159
(lp160
F0.0
aF0.0
aF-0.3763370265018304
aF0.9264828344247726
ababaaa(lp161
I3
aF16.200000000000045
a(lp162
g3
(g4
g5
Ntp163
Rp164
(lp165
g3
(g9
g5
Ntp166
Rp167
(lp168
F-0.7096801356689709
aF2.2688322029587273
aF0.0
abag3
(g13
g5
Ntp169
Rp170
(lp171
F0.0
aF0.0
aF0.6186687365834951
aF0.7856519549865462
ababag3
(g4
g5
Ntp172
Rp173
(lp174
g3
(g9
g5
Ntp175
Rp176
(lp177
F-0.7045728765002913
aF2.311172607412834
aF0.0
abag3
(g13
g5
Ntp178
Rp179
(lp180
F0.0
aF0.0
aF0.3152377614417437
aF0.949012725816255
ababag3
(g4
g5
Ntp181
Rp182
(lp183
g3
(g9
g5
Ntp184
Rp185
(lp186
F-0.3200428529238543
aF2.339731281029768
aF0.0
abag3
(g13
g5
Ntp187
Rp188
(lp189
F0.0
aF0.0
aF-0.09186950967110379
aF0.9957710546068262
ababag3
(g4
g5
Ntp190
Rp191
(lp192
g3
(g9
g5
Ntp193
Rp194
(lp195
F0.5895319199530551
aF1.87827668602101
aF0.0
abag3
(g13
g5
Ntp196
Rp197
(lp198
F0.0
aF0.0
aF-0.4053219488980192
aF0.9141740084587351
ababag3
(g4
g5
Ntp199
Rp200
(lp201
g3
(g9
g5
Ntp202
Rp203
(lp204
F0.9901498952339708
aF1.1280479174206082
aF0.0
abag3
(g13
g5
Ntp205
Rp206
(lp207
F0.0
aF0.0
aF-0.6224112685933049
aF0.7826903683629133
ababag3
(g4
g5
Ntp208
Rp209
(lp210
g3
(g9
g5
Ntp211
Rp212
(lp213
F1.0357427178405456
aF0.0995047068098315
aF0.0
abag3
(g13
g5
Ntp214
Rp215
(lp216
F0.0
aF0.0
aF-0.746686227685619
aF0.6651764257583246
ababag3
(g4
g5
Ntp217
Rp218
(lp219
g3
(g9
g5
Ntp220
Rp221
(lp222
F0.9072581224746198
aF-0.949748543378006
aF0.0
abag3
(g13
g5
Ntp223
Rp224
(lp225
F0.0
aF0.0
aF-0.7393651143166493
aF0.6733047064528274
ababag3
(g4
g5
Ntp226
Rp227
(lp228
g3
(g9
g5
Ntp229
Rp230
(lp231
F0.8459284024904178
aF-1.7452571853318446
aF0.0
abag3
(g13
g5
Ntp232
Rp233
(lp234
F0.0
aF0.0
aF-0.7328183152799334
aF0.6804243652238507
ababag3
(g4
g5
Ntp235
Rp236
(lp237
g3
(g9
g5
Ntp238
Rp239
(lp240
F0.6730665986924381
aF-2.7906106917259628
aF0.0
abag3
(g13
g5
Ntp241
Rp242
(lp243
F0.0
aF0.0
aF-0.7874425596292496
aF0.6163880395372187
ababag3
(g4
g5
Ntp244
Rp245
(lp246
g3
(g9
g5
Ntp247
Rp248
(lp249
F0.47453541365364355
aF-3.4762538268981245
aF0.0
abag3
(g13
g5
Ntp250
Rp251
(lp252
F0.0
aF0.0
aF-0.8209736877753108
aF0.5709660269933813
ababag3
(g4
g5
Ntp253
Rp254
(lp255
g3
(g9
g5
Ntp256
Rp257
(lp258
F0.39123183641052395
aF-3.6828971786805855
aF0.0
abag3
(g13
g5
Ntp259
Rp260
(lp261
F0.0
aF0.0
aF-0.8380358982719535
aF0.5456150962056677
ababag3
(g4
g5
Ntp262
Rp263
(lp264
g3
(g9
g5
Ntp265
Rp266
(lp267
F0.39123183641052395
aF-3.6828971786805855
aF0.0
abag3
(g13
g5
Ntp268
Rp269
(lp270
F0.0
aF0.0
aF-0.8380358982719535
aF0.5456150962056677
ababag3
(g4
g5
Ntp271
Rp272
(lp273
g3
(g9
g5
Ntp274
Rp275
(lp276
F0.3377898460939328
aF-3.809785234984116
aF0.0
abag3
(g13
g5
Ntp277
Rp278
(lp279
F0.0
aF0.0
aF-0.7628275121516669
aF0.6466020311632948
ababag3
(g4
g5
Ntp280
Rp281
(lp282
g3
(g9
g5
Ntp283
Rp284
(lp285
F0.3377898460939328
aF-3.809785234984116
aF0.0
abag3
(g13
g5
Ntp286
Rp287
(lp288
F0.0
aF0.0
aF-0.7628275121516669
aF0.6466020311632948
ababag3
(g4
g5
Ntp289
Rp290
(lp291
g3
(g9
g5
Ntp292
Rp293
(lp294
F0.3444336550710487
aF-3.8364055576187783
aF0.0
abag3
(g13
g5
Ntp295
Rp296
(lp297
F0.0
aF0.0
aF-0.5726761203951151
aF0.8197817155372518
ababag3
(g4
g5
Ntp298
Rp299
(lp300
g3
(g9
g5
Ntp301
Rp302
(lp303
F0.3444336550710487
aF-3.8364055576187783
aF0.0
abag3
(g13
g5
Ntp304
Rp305
(lp306
F0.0
aF0.0
aF-0.5726761203951151
aF0.8197817155372518
ababag3
(g4
g5
Ntp307
Rp308
(lp309
g3
(g9
g5
Ntp310
Rp311
(lp312
F0.3599450436543225
aF-3.8466194487036875
aF0.0
abag3
(g13
g5
Ntp313
Rp314
(lp315
F0.0
aF0.0
aF-0.33847304435638537
aF0.9409760880299353
ababaaa(lp316
I3
aF18.202999999999975
a(lp317
g3
(g4
g5
Ntp318
Rp319
(lp320
g3
(g9
g5
Ntp321
Rp322
(lp323
F-0.712968950431835
aF2.268724987669758
aF0.0
abag3
(g13
g5
Ntp324
Rp325
(lp326
F0.0
aF0.0
aF0.618605289370998
aF0.7857019129175032
ababag3
(g4
g5
Ntp327
Rp328
(lp329
g3
(g9
g5
Ntp330
Rp331
(lp332
F-0.6837755201739779
aF2.332526537274555
aF0.0
abag3
(g13
g5
Ntp333
Rp334
(lp335
F0.0
aF0.0
aF0.3052910508055202
aF0.9522590899004647
ababag3
(g4
g5
Ntp336
Rp337
(lp338
g3
(g9
g5
Ntp339
Rp340
(lp341
F-0.205061089475149
aF2.401272780608289
aF0.0
abag3
(g13
g5
Ntp342
Rp343
(lp344
F0.0
aF0.0
aF-0.08947437423498923
aF0.9959891246169594
ababag3
(g4
g5
Ntp345
Rp346
(lp347
g3
(g9
g5
Ntp348
Rp349
(lp350
F0.6694087336951821
aF1.8261709009831186
aF0.0
abag3
(g13
g5
Ntp351
Rp352
(lp353
F0.0
aF0.0
aF-0.4623414283196635
aF0.8867019813101431
ababag3
(g4
g5
Ntp354
Rp355
(lp356
g3
(g9
g5
Ntp357
Rp358
(lp359
F0.9460091277562451
aF1.1544095193846933
aF0.0
abag3
(g13
g5
Ntp360
Rp361
(lp362
F0.0
aF0.0
aF-0.6532660089422836
aF0.7571284709747879
ababag3
(g4
g5
Ntp363
Rp364
(lp365
g3
(g9
g5
Ntp366
Rp367
(lp368
F0.9231690264749506
aF0.11223221838498358
aF0.0
abag3
(g13
g5
Ntp369
Rp370
(lp371
F0.0
aF0.0
aF-0.7456204169669866
aF0.6663709130821791
ababag3
(g4
g5
Ntp372
Rp373
(lp374
g3
(g9
g5
Ntp375
Rp376
(lp377
F0.8348208653567921
aF-0.9351463059907905
aF0.0
abag3
(g13
g5
Ntp378
Rp379
(lp380
F0.0
aF0.0
aF-0.7329192108020381
aF0.6803156843975579
ababag3
(g4
g5
Ntp381
Rp382
(lp383
g3
(g9
g5
Ntp384
Rp385
(lp386
F0.7996690895857181
aF-1.9988333757659704
aF0.0
abag3
(g13
g5
Ntp387
Rp388
(lp389
F0.0
aF0.0
aF-0.709412094363495
aF0.704793927592172
ababag3
(g4
g5
Ntp390
Rp391
(lp392
g3
(g9
g5
Ntp393
Rp394
(lp395
F0.7924681709910699
aF-2.7850460466254305
aF0.0
abag3
(g13
g5
Ntp396
Rp397
(lp398
F0.0
aF0.0
aF-0.7321253208271222
aF0.6811699601448844
ababag3
(g4
g5
Ntp399
Rp400
(lp401
g3
(g9
g5
Ntp402
Rp403
(lp404
F0.6501074459418233
aF-3.386675825942584
aF0.0
abag3
(g13
g5
Ntp405
Rp406
(lp407
F0.0
aF0.0
aF-0.841226840348484
aF0.540682349515227
ababag3
(g4
g5
Ntp408
Rp409
(lp410
g3
(g9
g5
Ntp411
Rp412
(lp413
F0.5231329168238698
aF-3.60239444178337
aF0.0
abag3
(g13
g5
Ntp414
Rp415
(lp416
F0.0
aF0.0
aF-0.8889432432020067
aF0.4580173690652986
ababag3
(g4
g5
Ntp417
Rp418
(lp419
g3
(g9
g5
Ntp420
Rp421
(lp422
F0.371137373718054
aF-3.7779409506621864
aF0.0
abag3
(g13
g5
Ntp423
Rp424
(lp425
F0.0
aF0.0
aF-0.9229460989417242
aF0.3849292122562965
ababag3
(g4
g5
Ntp426
Rp427
(lp428
g3
(g9
g5
Ntp429
Rp430
(lp431
F0.371137373718054
aF-3.7779409506621864
aF0.0
abag3
(g13
g5
Ntp432
Rp433
(lp434
F0.0
aF0.0
aF-0.9229460989417242
aF0.3849292122562965
ababag3
(g4
g5
Ntp435
Rp436
(lp437
g3
(g9
g5
Ntp438
Rp439
(lp440
F0.27060444413995155
aF-3.880847465984761
aF0.0
abag3
(g13
g5
Ntp441
Rp442
(lp443
F0.0
aF0.0
aF-0.8760652047284345
aF0.4821926555476826
ababag3
(g4
g5
Ntp444
Rp445
(lp446
g3
(g9
g5
Ntp447
Rp448
(lp449
F0.27060444413995155
aF-3.880847465984761
aF0.0
abag3
(g13
g5
Ntp450
Rp451
(lp452
F0.0
aF0.0
aF-0.8760652047284345
aF0.4821926555476826
ababag3
(g4
g5
Ntp453
Rp454
(lp455
g3
(g9
g5
Ntp456
Rp457
(lp458
F0.2704230723095236
aF-3.901688104732558
aF0.0
abag3
(g13
g5
Ntp459
Rp460
(lp461
F0.0
aF0.0
aF-0.7226739442934826
aF0.6911890987561221
ababag3
(g4
g5
Ntp462
Rp463
(lp464
g3
(g9
g5
Ntp465
Rp466
(lp467
F0.2704230723095236
aF-3.901688104732558
aF0.0
abag3
(g13
g5
Ntp468
Rp469
(lp470
F0.0
aF0.0
aF-0.7226739442934826
aF0.6911890987561221
ababag3
(g4
g5
Ntp471
Rp472
(lp473
g3
(g9
g5
Ntp474
Rp475
(lp476
F0.27865910669577587
aF-3.914243387691027
aF0.0
abag3
(g13
g5
Ntp477
Rp478
(lp479
F0.0
aF0.0
aF-0.51897063101935
aF0.8547920707045531
ababag3
(g4
g5
Ntp480
Rp481
(lp482
g3
(g9
g5
Ntp483
Rp484
(lp485
F0.2996399386601075
aF-3.937102240637963
aF0.0
abag3
(g13
g5
Ntp486
Rp487
(lp488
F0.0
aF0.0
aF-0.2869052014263894
aF0.957958978972734
ababaaa(lp489
I3
aF16.918000000000006
a(lp490
g3
(g4
g5
Ntp491
Rp492
(lp493
g3
(g9
g5
Ntp494
Rp495
(lp496
F-0.7156031637084396
aF2.268767343479723
aF0.0
abag3
(g13
g5
Ntp497
Rp498
(lp499
F0.0
aF0.0
aF0.6209144273430086
aF0.7838783540303328
ababag3
(g4
g5
Ntp500
Rp501
(lp502
g3
(g9
g5
Ntp503
Rp504
(lp505
F-0.6882603648175889
aF2.3418581768155855
aF0.0
abag3
(g13
g5
Ntp506
Rp507
(lp508
F0.0
aF0.0
aF0.2912510703615633
aF0.9566466505524617
ababag3
(g4
g5
Ntp509
Rp510
(lp511
g3
(g9
g5
Ntp512
Rp513
(lp514
F-0.19481951457408553
aF2.389222925499885
aF0.0
abag3
(g13
g5
Ntp515
Rp516
(lp517
F0.0
aF0.0
aF-0.11264644417329427
aF0.9936351335450618
ababag3
(g4
g5
Ntp518
Rp519
(lp520
g3
(g9
g5
Ntp521
Rp522
(lp523
F0.6041208804825483
aF1.8784795136667964
aF0.0
abag3
(g13
g5
Ntp524
Rp525
(lp526
F0.0
aF0.0
aF-0.4415774995856886
aF0.8972231115278134
ababag3
(g4
g5
Ntp527
Rp528
(lp529
g3
(g9
g5
Ntp530
Rp531
(lp532
F0.9341430257335097
aF1.1398064227691416
aF0.0
abag3
(g13
g5
Ntp533
Rp534
(lp535
F0.0
aF0.0
aF-0.6441699806658707
aF0.7648823674323599
ababag3
(g4
g5
Ntp536
Rp537
(lp538
g3
(g9
g5
Ntp539
Rp540
(lp541
F0.9226263482465092
aF0.03763602424351851
aF0.0
abag3
(g13
g5
Ntp542
Rp543
(lp544
F0.0
aF0.0
aF-0.7425053811610101
aF0.6698400995364067
ababag3
(g4
g5
Ntp545
Rp546
(lp547
g3
(g9
g5
Ntp548
Rp549
(lp550
F0.8410073328144192
aF-1.013654575589367
aF0.0
abag3
(g13
g5
Ntp551
Rp552
(lp553
F0.0
aF0.0
aF-0.7234679715182589
aF0.6903579464214602
ababag3
(g4
g5
Ntp554
Rp555
(lp556
g3
(g9
g5
Ntp557
Rp558
(lp559
F0.8186689404795121
aF-2.0666149013652797
aF0.0
abag3
(g13
g5
Ntp560
Rp561
(lp562
F0.0
aF0.0
aF-0.71228141520665
aF0.7018939987998272
ababag3
(g4
g5
Ntp563
Rp564
(lp565
g3
(g9
g5
Ntp566
Rp567
(lp568
F0.7926013571874078
aF-2.848877865612909
aF0.0
abag3
(g13
g5
Ntp569
Rp570
(lp571
F0.0
aF0.0
aF-0.7562662935850142
aF0.6542639323600111
ababag3
(g4
g5
Ntp572
Rp573
(lp574
g3
(g9
g5
Ntp575
Rp576
(lp577
F0.5686788615393701
aF-3.5141059256121583
aF0.0
abag3
(g13
g5
Ntp578
Rp579
(lp580
F0.0
aF0.0
aF-0.8710293833797883
aF0.4912309164629459
ababag3
(g4
g5
Ntp581
Rp582
(lp583
g3
(g9
g5
Ntp584
Rp585
(lp586
F0.45098382650592106
aF-3.6851781985267578
aF0.0
abag3
(g13
g5
Ntp587
Rp588
(lp589
F0.0
aF0.0
aF-0.8935006533855661
aF0.44906189150223663
ababag3
(g4
g5
Ntp590
Rp591
(lp592
g3
(g9
g5
Ntp593
Rp594
(lp595
F0.45098382650592106
aF-3.6851781985267578
aF0.0
abag3
(g13
g5
Ntp596
Rp597
(lp598
F0.0
aF0.0
aF-0.8935006533855661
aF0.44906189150223663
ababag3
(g4
g5
Ntp599
Rp600
(lp601
g3
(g9
g5
Ntp602
Rp603
(lp604
F0.35869187682078574
aF-3.811817107435353
aF0.0
abag3
(g13
g5
Ntp605
Rp606
(lp607
F0.0
aF0.0
aF-0.8361484704827925
aF0.5485031771186806
ababag3
(g4
g5
Ntp608
Rp609
(lp610
g3
(g9
g5
Ntp611
Rp612
(lp613
F0.35869187682078574
aF-3.811817107435353
aF0.0
abag3
(g13
g5
Ntp614
Rp615
(lp616
F0.0
aF0.0
aF-0.8361484704827925
aF0.5485031771186806
ababag3
(g4
g5
Ntp617
Rp618
(lp619
g3
(g9
g5
Ntp620
Rp621
(lp622
F0.36312969160394787
aF-3.8322165758073297
aF0.0
abag3
(g13
g5
Ntp623
Rp624
(lp625
F0.0
aF0.0
aF-0.6716453698682924
aF0.7408727941654254
ababag3
(g4
g5
Ntp626
Rp627
(lp628
g3
(g9
g5
Ntp629
Rp630
(lp631
F0.37672195349085036
aF-3.856721944927795
aF0.0
abag3
(g13
g5
Ntp632
Rp633
(lp634
F0.0
aF0.0
aF-0.4636547984779915
aF0.8860159297937781
ababag3
(g4
g5
Ntp635
Rp636
(lp637
g3
(g9
g5
Ntp638
Rp639
(lp640
F0.37672195349085036
aF-3.856721944927795
aF0.0
abag3
(g13
g5
Ntp641
Rp642
(lp643
F0.0
aF0.0
aF-0.4636547984779915
aF0.8860159297937781
ababaaa(lp644
I3
aF13.600999999999999
a(lp645
g3
(g4
g5
Ntp646
Rp647
(lp648
g3
(g9
g5
Ntp649
Rp650
(lp651
F-0.7156031637084406
aF2.268767343479723
aF0.0
abag3
(g13
g5
Ntp652
Rp653
(lp654
F0.0
aF0.0
aF0.6209144273430086
aF0.7838783540303328
ababag3
(g4
g5
Ntp655
Rp656
(lp657
g3
(g9
g5
Ntp658
Rp659
(lp660
F-0.726216852184038
aF2.2860040512101207
aF0.0
abag3
(g13
g5
Ntp661
Rp662
(lp663
F0.0
aF0.0
aF0.2507001930341899
aF0.9680647773845611
ababag3
(g4
g5
Ntp664
Rp665
(lp666
g3
(g9
g5
Ntp667
Rp668
(lp669
F-0.33801581274212494
aF2.257424694010542
aF0.0
abag3
(g13
g5
Ntp670
Rp671
(lp672
F0.0
aF0.0
aF-0.12931375198363393
aF0.9916037280829048
ababag3
(g4
g5
Ntp673
Rp674
(lp675
g3
(g9
g5
Ntp676
Rp677
(lp678
F0.5101835453781395
aF1.8001224751463354
aF0.0
abag3
(g13
g5
Ntp679
Rp680
(lp681
F0.0
aF0.0
aF-0.39882505999066786
aF0.9170270287856516
ababag3
(g4
g5
Ntp682
Rp683
(lp684
g3
(g9
g5
Ntp685
Rp686
(lp687
F0.8691011760780096
aF1.0278505859119014
aF0.0
abag3
(g13
g5
Ntp688
Rp689
(lp690
F0.0
aF0.0
aF-0.6519754660875889
aF0.7582400619987519
ababag3
(g4
g5
Ntp691
Rp692
(lp693
g3
(g9
g5
Ntp694
Rp695
(lp696
F0.8719996570348313
aF0.0005341960654581228
aF0.0
abag3
(g13
g5
Ntp697
Rp698
(lp699
F0.0
aF0.0
aF-0.7394298748274417
aF0.6732335851787802
ababag3
(g4
g5
Ntp700
Rp701
(lp702
g3
(g9
g5
Ntp703
Rp704
(lp705
F0.7938232722328434
aF-1.0277003166754628
aF0.0
abag3
(g13
g5
Ntp706
Rp707
(lp708
F0.0
aF0.0
aF-0.7250858584670278
aF0.6886584769326037
ababag3
(g4
g5
Ntp709
Rp710
(lp711
g3
(g9
g5
Ntp712
Rp713
(lp714
F0.7753314189291094
aF-2.0592704331555183
aF0.0
abag3
(g13
g5
Ntp715
Rp716
(lp717
F0.0
aF0.0
aF-0.7243610614282479
aF0.6894208095833358
ababag3
(g4
g5
Ntp718
Rp719
(lp720
g3
(g9
g5
Ntp721
Rp722
(lp723
F0.6268426395928123
aF-2.80969236487419
aF0.0
abag3
(g13
g5
Ntp724
Rp725
(lp726
F0.0
aF0.0
aF-0.8043593802933965
aF0.5941430697517419
ababag3
(g4
g5
Ntp727
Rp728
(lp729
g3
(g9
g5
Ntp730
Rp731
(lp732
F0.3991695618688105
aF-3.480416771681821
aF0.0
abag3
(g13
g5
Ntp733
Rp734
(lp735
F0.0
aF0.0
aF-0.8187095270239223
aF0.5742078982043571
ababag3
(g4
g5
Ntp736
Rp737
(lp738
g3
(g9
g5
Ntp739
Rp740
(lp741
F0.33063693639657604
aF-3.688281895764427
aF0.0
abag3
(g13
g5
Ntp742
Rp743
(lp744
F0.0
aF0.0
aF-0.8078102291673437
aF0.5894426466184846
ababag3
(g4
g5
Ntp745
Rp746
(lp747
g3
(g9
g5
Ntp748
Rp749
(lp750
F0.2955720095037925
aF-3.8047134290905333
aF0.0
abag3
(g13
g5
Ntp751
Rp752
(lp753
F0.0
aF0.0
aF-0.8734232366929302
aF0.48696185641674816
ababag3
(g4
g5
Ntp754
Rp755
(lp756
g3
(g9
g5
Ntp757
Rp758
(lp759
F0.32474477234524246
aF-3.765367838407666
aF0.0
abag3
(g13
g5
Ntp760
Rp761
(lp762
F0.0
aF0.0
aF0.99812456726202
aF0.06121558811287545
ababag3
(g4
g5
Ntp763
Rp764
(lp765
g3
(g9
g5
Ntp766
Rp767
(lp768
F0.2858231584228463
aF-3.7207124445973223
aF0.0
abag3
(g13
g5
Ntp769
Rp770
(lp771
F0.0
aF0.0
aF0.526722309404869
aF0.8500374161030804
ababaaa(lp772
I3
aF18.6400000000001
a(lp773
g3
(g4
g5
Ntp774
Rp775
(lp776
g3
(g9
g5
Ntp777
Rp778
(lp779
F-0.716971700059374
aF2.268636981894439
aF0.0
abag3
(g13
g5
Ntp780
Rp781
(lp782
F0.0
aF0.0
aF0.6212007303738469
aF0.7836514866846097
ababag3
(g4
g5
Ntp783
Rp784
(lp785
g3
(g9
g5
Ntp786
Rp787
(lp788
F-0.6742930012953738
aF2.3374371130955502
aF0.0
abag3
(g13
g5
Ntp789
Rp790
(lp791
F0.0
aF0.0
aF0.29880736990006745
aF0.9543134472977965
ababag3
(g4
g5
Ntp792
Rp793
(lp794
g3
(g9
g5
Ntp795
Rp796
(lp797
F-0.19048252443996333
aF2.3955509062800813
aF0.0
abag3
(g13
g5
Ntp798
Rp799
(lp800
F0.0
aF0.0
aF-0.11071721444802073
aF0.9938519499527437
ababag3
(g4
g5
Ntp801
Rp802
(lp803
g3
(g9
g5
Ntp804
Rp805
(lp806
F0.6432176706161238
aF1.814915493619538
aF0.0
abag3
(g13
g5
Ntp807
Rp808
(lp809
F0.0
aF0.0
aF-0.4620597010396789
aF0.8868488217701609
ababag3
(g4
g5
Ntp810
Rp811
(lp812
g3
(g9
g5
Ntp813
Rp814
(lp815
F0.9345500346126104
aF0.8745317492350648
aF0.0
abag3
(g13
g5
Ntp816
Rp817
(lp818
F0.0
aF0.0
aF-0.6980729615954258
aF0.716026633784939
ababag3
(g4
g5
Ntp819
Rp820
(lp821
g3
(g9
g5
Ntp822
Rp823
(lp824
F0.8818245670221352
aF-0.10948323691370457
aF0.0
abag3
(g13
g5
Ntp825
Rp826
(lp827
F0.0
aF0.0
aF-0.7320508366820696
aF0.6812500073490508
ababag3
(g4
g5
Ntp828
Rp829
(lp830
g3
(g9
g5
Ntp831
Rp832
(lp833
F0.8318572365449112
aF-0.9094392922160295
aF0.0
abag3
(g13
g5
Ntp834
Rp835
(lp836
F0.0
aF0.0
aF-0.7276175520110687
aF0.6859830158286864
ababag3
(g4
g5
Ntp837
Rp838
(lp839
g3
(g9
g5
Ntp840
Rp841
(lp842
F0.8074049194143168
aF-2.0255945901287826
aF0.0
abag3
(g13
g5
Ntp843
Rp844
(lp845
F0.0
aF0.0
aF-0.7070890679727551
aF0.7071244939566304
ababag3
(g4
g5
Ntp846
Rp847
(lp848
g3
(g9
g5
Ntp849
Rp850
(lp851
F0.7884950238560808
aF-2.8635444180606635
aF0.0
abag3
(g13
g5
Ntp852
Rp853
(lp854
F0.0
aF0.0
aF-0.7476493099297237
aF0.6640937504310729
ababag3
(g4
g5
Ntp855
Rp856
(lp857
g3
(g9
g5
Ntp858
Rp859
(lp860
F0.6060788964315127
aF-3.446248019512883
aF0.0
abag3
(g13
g5
Ntp861
Rp862
(lp863
F0.0
aF0.0
aF-0.8587371860236895
aF0.5124162812988237
ababag3
(g4
g5
Ntp864
Rp865
(lp866
g3
(g9
g5
Ntp867
Rp868
(lp869
F0.48052628668877134
aF-3.648914356013802
aF0.0
abag3
(g13
g5
Ntp870
Rp871
(lp872
F0.0
aF0.0
aF-0.8904182074914169
aF0.4551432914673928
ababag3
(g4
g5
Ntp873
Rp874
(lp875
g3
(g9
g5
Ntp876
Rp877
(lp878
F0.35791997005145126
aF-3.8013424761909693
aF0.0
abag3
(g13
g5
Ntp879
Rp880
(lp881
F0.0
aF0.0
aF-0.9216607613252307
aF0.3879967023486103
ababag3
(g4
g5
Ntp882
Rp883
(lp884
g3
(g9
g5
Ntp885
Rp886
(lp887
F0.35791997005145126
aF-3.8013424761909693
aF0.0
abag3
(g13
g5
Ntp888
Rp889
(lp890
F0.0
aF0.0
aF-0.9216607613252307
aF0.3879967023486103
ababag3
(g4
g5
Ntp891
Rp892
(lp893
g3
(g9
g5
Ntp894
Rp895
(lp896
F0.35791997005145126
aF-3.8013424761909693
aF0.0
abag3
(g13
g5
Ntp897
Rp898
(lp899
F0.0
aF0.0
aF-0.9216607613252307
aF0.3879967023486103
ababag3
(g4
g5
Ntp900
Rp901
(lp902
g3
(g9
g5
Ntp903
Rp904
(lp905
F0.30958547520948054
aF-3.861095076442526
aF0.0
abag3
(g13
g5
Ntp906
Rp907
(lp908
F0.0
aF0.0
aF-0.7958963998886691
aF0.6054328374347197
ababag3
(g4
g5
Ntp909
Rp910
(lp911
g3
(g9
g5
Ntp912
Rp913
(lp914
F0.30958547520948054
aF-3.861095076442526
aF0.0
abag3
(g13
g5
Ntp915
Rp916
(lp917
F0.0
aF0.0
aF-0.7958963998886691
aF0.6054328374347197
ababag3
(g4
g5
Ntp918
Rp919
(lp920
g3
(g9
g5
Ntp921
Rp922
(lp923
F0.31266964833477284
aF-3.877423976378307
aF0.0
abag3
(g13
g5
Ntp924
Rp925
(lp926
F0.0
aF0.0
aF-0.6069457771594254
aF0.7947432438142152
ababag3
(g4
g5
Ntp927
Rp928
(lp929
g3
(g9
g5
Ntp930
Rp931
(lp932
F0.31266964833477284
aF-3.877423976378307
aF0.0
abag3
(g13
g5
Ntp933
Rp934
(lp935
F0.0
aF0.0
aF-0.6069457771594254
aF0.7947432438142152
ababag3
(g4
g5
Ntp936
Rp937
(lp938
g3
(g9
g5
Ntp939
Rp940
(lp941
F0.3211774251919003
aF-3.8945209409387234
aF0.0
abag3
(g13
g5
Ntp942
Rp943
(lp944
F0.0
aF0.0
aF-0.38331693743450784
aF0.9236168715846574
ababaaa.