(lp0
(lp1
I3
aF15.04099999999994
a(lp2
ccopy_reg
_reconstructor
p3
(cgeometry_msgs.msg._Pose
Pose
p4
c__builtin__
object
p5
Ntp6
Rp7
(lp8
g3
(cgeometry_msgs.msg._Point
Point
p9
g5
Ntp10
Rp11
(lp12
F-3.3139834809082007
aF-0.28527420458638775
aF0.0
abag3
(cgeometry_msgs.msg._Quaternion
Quaternion
p13
g5
Ntp14
Rp15
(lp16
F0.0
aF0.0
aF-0.4965014256961301
aF0.8680359061016487
ababag3
(g4
g5
Ntp17
Rp18
(lp19
g3
(g9
g5
Ntp20
Rp21
(lp22
F-3.3149525684849785
aF-0.2966114335885197
aF0.0
abag3
(g13
g5
Ntp23
Rp24
(lp25
F0.0
aF0.0
aF-0.3659422587459595
aF0.9306375574109962
ababag3
(g4
g5
Ntp26
Rp27
(lp28
g3
(g9
g5
Ntp29
Rp30
(lp31
F-2.740029854810326
aF-0.500856118746086
aF0.0
abag3
(g13
g5
Ntp32
Rp33
(lp34
F0.0
aF0.0
aF0.028379030043106747
aF0.9995972342167682
ababag3
(g4
g5
Ntp35
Rp36
(lp37
g3
(g9
g5
Ntp38
Rp39
(lp40
F-1.8252087092046148
aF-0.32146492741267396
aF0.0
abag3
(g13
g5
Ntp41
Rp42
(lp43
F0.0
aF0.0
aF0.2165801522196248
aF0.9762648399202566
ababag3
(g4
g5
Ntp44
Rp45
(lp46
g3
(g9
g5
Ntp47
Rp48
(lp49
F-0.9430898186586436
aF0.1877809933797458
aF0.0
abag3
(g13
g5
Ntp50
Rp51
(lp52
F0.0
aF0.0
aF0.23487533726491042
aF0.9720255016946286
ababag3
(g4
g5
Ntp53
Rp54
(lp55
g3
(g9
g5
Ntp56
Rp57
(lp58
F-0.022272455181464854
aF0.4848085775240987
aF0.0
abag3
(g13
g5
Ntp59
Rp60
(lp61
F0.0
aF0.0
aF0.06647700751061053
aF0.9977879571694751
ababag3
(g4
g5
Ntp62
Rp63
(lp64
g3
(g9
g5
Ntp65
Rp66
(lp67
F1.0271086804287426
aF0.5226379208348095
aF0.0
abag3
(g13
g5
Ntp68
Rp69
(lp70
F0.0
aF0.0
aF-0.00023537713013857035
aF0.9999999722988029
ababag3
(g4
g5
Ntp71
Rp72
(lp73
g3
(g9
g5
Ntp74
Rp75
(lp76
F2.1037712426910944
aF0.5155986011770342
aF0.0
abag3
(g13
g5
Ntp77
Rp78
(lp79
F0.0
aF0.0
aF-0.006719247383642621
aF0.999977425602497
ababag3
(g4
g5
Ntp80
Rp81
(lp82
g3
(g9
g5
Ntp83
Rp84
(lp85
F2.9001655683571452
aF0.5046043027298962
aF0.0
abag3
(g13
g5
Ntp86
Rp87
(lp88
F0.0
aF0.0
aF-0.0032742540198490992
aF0.9999946396159399
ababag3
(g4
g5
Ntp89
Rp90
(lp91
g3
(g9
g5
Ntp92
Rp93
(lp94
F3.902769672770107
aF0.36867766174196426
aF0.0
abag3
(g13
g5
Ntp95
Rp96
(lp97
F0.0
aF0.0
aF-0.17563101379499993
aF0.9844560665633284
ababag3
(g4
g5
Ntp98
Rp99
(lp100
g3
(g9
g5
Ntp101
Rp102
(lp103
F4.4943784610379
aF0.010138172675596677
aF0.0
abag3
(g13
g5
Ntp104
Rp105
(lp106
F0.0
aF0.0
aF-0.3494378182426162
aF0.9369595568549586
ababag3
(g4
g5
Ntp107
Rp108
(lp109
g3
(g9
g5
Ntp110
Rp111
(lp112
F4.6344330863849725
aF-0.1351265558474804
aF0.0
abag3
(g13
g5
Ntp113
Rp114
(lp115
F0.0
aF0.0
aF-0.42615761409307285
aF0.9046489307739769
ababag3
(g4
g5
Ntp116
Rp117
(lp118
g3
(g9
g5
Ntp119
Rp120
(lp121
F4.6344330863849725
aF-0.1351265558474804
aF0.0
abag3
(g13
g5
Ntp122
Rp123
(lp124
F0.0
aF0.0
aF-0.42615761409307285
aF0.9046489307739769
ababag3
(g4
g5
Ntp125
Rp126
(lp127
g3
(g9
g5
Ntp128
Rp129
(lp130
F4.6344330863849725
aF-0.1351265558474804
aF0.0
abag3
(g13
g5
Ntp131
Rp132
(lp133
F0.0
aF0.0
aF-0.42615761409307285
aF0.9046489307739769
ababag3
(g4
g5
Ntp134
Rp135
(lp136
g3
(g9
g5
Ntp137
Rp138
(lp139
F4.7357940646714365
aF-0.279986855211464
aF0.0
abag3
(g13
g5
Ntp140
Rp141
(lp142
F0.0
aF0.0
aF-0.5633089874556282
aF0.8262463220200832
ababaaa(lp143
I3
aF13.959000000000003
a(lp144
g3
(g4
g5
Ntp145
Rp146
(lp147
g3
(g9
g5
Ntp148
Rp149
(lp150
F-3.3179279799897423
aF-0.2811903925013692
aF0.0
abag3
(g13
g5
Ntp151
Rp152
(lp153
F0.0
aF0.0
aF-0.49456407397110363
aF0.8691411719261174
ababag3
(g4
g5
Ntp154
Rp155
(lp156
g3
(g9
g5
Ntp157
Rp158
(lp159
F-3.1467026478167286
aF-0.4142375484107065
aF0.0
abag3
(g13
g5
Ntp160
Rp161
(lp162
F0.0
aF0.0
aF-0.1438055236406075
aF0.9896059677318294
ababag3
(g4
g5
Ntp163
Rp164
(lp165
g3
(g9
g5
Ntp166
Rp167
(lp168
F-2.3765131673498923
aF-0.6808272767997856
aF0.0
abag3
(g13
g5
Ntp169
Rp170
(lp171
F0.0
aF0.0
aF0.04067118388826976
aF0.999172585092849
ababag3
(g4
g5
Ntp172
Rp173
(lp174
g3
(g9
g5
Ntp175
Rp176
(lp177
F-1.7065509762112183
aF-0.5009602619653235
aF0.0
abag3
(g13
g5
Ntp178
Rp179
(lp180
F0.0
aF0.0
aF0.2641923469989679
aF0.9644700118651575
ababag3
(g4
g5
Ntp181
Rp182
(lp183
g3
(g9
g5
Ntp184
Rp185
(lp186
F-0.8274806752655637
aF0.013420967688449335
aF0.0
abag3
(g13
g5
Ntp187
Rp188
(lp189
F0.0
aF0.0
aF0.20824017729568892
aF0.9780777211243797
ababag3
(g4
g5
Ntp190
Rp191
(lp192
g3
(g9
g5
Ntp193
Rp194
(lp195
F0.1849983667217689
aF0.3196990785348875
aF0.0
abag3
(g13
g5
Ntp196
Rp197
(lp198
F0.0
aF0.0
aF0.10156048948514487
aF0.9948293657585394
ababag3
(g4
g5
Ntp199
Rp200
(lp201
g3
(g9
g5
Ntp202
Rp203
(lp204
F1.2465601307975085
aF0.4550421350312027
aF0.0
abag3
(g13
g5
Ntp205
Rp206
(lp207
F0.0
aF0.0
aF0.03820096674211693
aF0.9992700766759544
ababag3
(g4
g5
Ntp208
Rp209
(lp210
g3
(g9
g5
Ntp211
Rp212
(lp213
F2.046612820533988
aF0.49837706867569337
aF0.0
abag3
(g13
g5
Ntp214
Rp215
(lp216
F0.0
aF0.0
aF0.008783660951984126
aF0.9999614229060442
ababag3
(g4
g5
Ntp217
Rp218
(lp219
g3
(g9
g5
Ntp220
Rp221
(lp222
F3.1126407090158086
aF0.5032271954129351
aF0.0
abag3
(g13
g5
Ntp223
Rp224
(lp225
F0.0
aF0.0
aF-0.0008725932672668668
aF0.9999996192904225
ababag3
(g4
g5
Ntp226
Rp227
(lp228
g3
(g9
g5
Ntp229
Rp230
(lp231
F4.1848037214388425
aF0.39789279113807036
aF0.0
abag3
(g13
g5
Ntp232
Rp233
(lp234
F0.0
aF0.0
aF-0.20178090473271681
aF0.979430684880378
ababag3
(g4
g5
Ntp235
Rp236
(lp237
g3
(g9
g5
Ntp238
Rp239
(lp240
F4.596897784004648
aF0.05111380964066222
aF0.0
abag3
(g13
g5
Ntp241
Rp242
(lp243
F0.0
aF0.0
aF-0.47241183641125695
aF0.8813779307530588
ababag3
(g4
g5
Ntp244
Rp245
(lp246
g3
(g9
g5
Ntp247
Rp248
(lp249
F4.6967846583659805
aF-0.14256589469153869
aF0.0
abag3
(g13
g5
Ntp250
Rp251
(lp252
F0.0
aF0.0
aF-0.5615599029772078
aF0.8274360853674614
ababag3
(g4
g5
Ntp253
Rp254
(lp255
g3
(g9
g5
Ntp256
Rp257
(lp258
F4.6967846583659805
aF-0.14256589469153869
aF0.0
abag3
(g13
g5
Ntp259
Rp260
(lp261
F0.0
aF0.0
aF-0.5615599029772078
aF0.8274360853674614
ababag3
(g4
g5
Ntp262
Rp263
(lp264
g3
(g9
g5
Ntp265
Rp266
(lp267
F4.6967846583659805
aF-0.14256589469153869
aF0.0
abag3
(g13
g5
Ntp268
Rp269
(lp270
F0.0
aF0.0
aF-0.5615599029772078
aF0.8274360853674614
ababaaa(lp271
I3
aF14.442999999999756
a(lp272
g3
(g4
g5
Ntp273
Rp274
(lp275
g3
(g9
g5
Ntp276
Rp277
(lp278
F-3.3139834809082536
aF-0.28527420458641667
aF0.0
abag3
(g13
g5
Ntp279
Rp280
(lp281
F0.0
aF0.0
aF-0.4965014256961301
aF0.8680359061016487
ababag3
(g4
g5
Ntp282
Rp283
(lp284
g3
(g9
g5
Ntp285
Rp286
(lp287
F-3.252368191565241
aF-0.39476909400205695
aF0.0
abag3
(g13
g5
Ntp288
Rp289
(lp290
F0.0
aF0.0
aF-0.22806283642694292
aF0.973646415615493
ababag3
(g4
g5
Ntp291
Rp292
(lp293
g3
(g9
g5
Ntp294
Rp295
(lp296
F-2.776057884884333
aF-0.46807163581487715
aF0.0
abag3
(g13
g5
Ntp297
Rp298
(lp299
F0.0
aF0.0
aF0.04638767811559793
aF0.9989235122465802
ababag3
(g4
g5
Ntp300
Rp301
(lp302
g3
(g9
g5
Ntp303
Rp304
(lp305
F-1.893667727376894
aF-0.19441807685523552
aF0.0
abag3
(g13
g5
Ntp306
Rp307
(lp308
F0.0
aF0.0
aF0.24714859497947061
aF0.9689775910719884
ababag3
(g4
g5
Ntp309
Rp310
(lp311
g3
(g9
g5
Ntp312
Rp313
(lp314
F-1.0164492269919891
aF0.37060950286364264
aF0.0
abag3
(g13
g5
Ntp315
Rp316
(lp317
F0.0
aF0.0
aF0.21703288475945542
aF0.9761642930024581
ababag3
(g4
g5
Ntp318
Rp319
(lp320
g3
(g9
g5
Ntp321
Rp322
(lp323
F-0.1586812764455903
aF0.5749545427886034
aF0.0
abag3
(g13
g5
Ntp324
Rp325
(lp326
F0.0
aF0.0
aF0.0219188266129472
aF0.999759753660804
ababag3
(g4
g5
Ntp327
Rp328
(lp329
g3
(g9
g5
Ntp330
Rp331
(lp332
F0.8891268416626876
aF0.5244080323159829
aF0.0
abag3
(g13
g5
Ntp333
Rp334
(lp335
F0.0
aF0.0
aF-0.02853273614233142
aF0.999592858602057
ababag3
(g4
g5
Ntp336
Rp337
(lp338
g3
(g9
g5
Ntp339
Rp340
(lp341
F1.9575974967918206
aF0.48874343791105473
aF0.0
abag3
(g13
g5
Ntp342
Rp343
(lp344
F0.0
aF0.0
aF0.0037027631686346396
aF0.9999931447489613
ababag3
(g4
g5
Ntp345
Rp346
(lp347
g3
(g9
g5
Ntp348
Rp349
(lp350
F3.022413105914602
aF0.5019639718955722
aF0.0
abag3
(g13
g5
Ntp351
Rp352
(lp353
F0.0
aF0.0
aF0.001264758816138335
aF0.9999992001922486
ababag3
(g4
g5
Ntp354
Rp355
(lp356
g3
(g9
g5
Ntp357
Rp358
(lp359
F3.777979725711972
aF0.41082501514418424
aF0.0
abag3
(g13
g5
Ntp360
Rp361
(lp362
F0.0
aF0.0
aF-0.14263661524924137
aF0.989775123950001
ababag3
(g4
g5
Ntp363
Rp364
(lp365
g3
(g9
g5
Ntp366
Rp367
(lp368
F4.442332624341345
aF0.08139748137307191
aF0.0
abag3
(g13
g5
Ntp369
Rp370
(lp371
F0.0
aF0.0
aF-0.3245590324148447
aF0.9458654420571352
ababag3
(g4
g5
Ntp372
Rp373
(lp374
g3
(g9
g5
Ntp375
Rp376
(lp377
F4.610111124358502
aF-0.07575050779508867
aF0.0
abag3
(g13
g5
Ntp378
Rp379
(lp380
F0.0
aF0.0
aF-0.42083002504794825
aF0.9071395096776147
ababag3
(g4
g5
Ntp381
Rp382
(lp383
g3
(g9
g5
Ntp384
Rp385
(lp386
F4.744145832151054
aF-0.2800089272794184
aF0.0
abag3
(g13
g5
Ntp387
Rp388
(lp389
F0.0
aF0.0
aF-0.5079502201355628
aF0.8613864254004896
ababag3
(g4
g5
Ntp390
Rp391
(lp392
g3
(g9
g5
Ntp393
Rp394
(lp395
F4.744145832151054
aF-0.2800089272794184
aF0.0
abag3
(g13
g5
Ntp396
Rp397
(lp398
F0.0
aF0.0
aF-0.5079502201355628
aF0.8613864254004896
ababag3
(g4
g5
Ntp399
Rp400
(lp401
g3
(g9
g5
Ntp402
Rp403
(lp404
F4.749275750852701
aF-0.3284098308173107
aF0.0
abag3
(g13
g5
Ntp405
Rp406
(lp407
F0.0
aF0.0
aF-0.7086023443203702
aF0.7056080481568188
ababaaa(lp408
I3
aF14.441000000000031
a(lp409
g3
(g4
g5
Ntp410
Rp411
(lp412
g3
(g9
g5
Ntp413
Rp414
(lp415
F-3.313676919877888
aF-0.2857946266899211
aF0.0
abag3
(g13
g5
Ntp416
Rp417
(lp418
F0.0
aF0.0
aF-0.4974361160388304
aF0.8675006112160402
ababag3
(g4
g5
Ntp419
Rp420
(lp421
g3
(g9
g5
Ntp422
Rp423
(lp424
F-3.2659409629830454
aF-0.3551487535104846
aF0.0
abag3
(g13
g5
Ntp425
Rp426
(lp427
F0.0
aF0.0
aF-0.21893502098631032
aF0.9757394409296591
ababag3
(g4
g5
Ntp428
Rp429
(lp430
g3
(g9
g5
Ntp431
Rp432
(lp433
F-2.8156546081580234
aF-0.4206094806453534
aF0.0
abag3
(g13
g5
Ntp434
Rp435
(lp436
F0.0
aF0.0
aF0.07304464902193422
aF0.997328671626993
ababag3
(g4
g5
Ntp437
Rp438
(lp439
g3
(g9
g5
Ntp440
Rp441
(lp442
F-1.8375891624314353
aF-0.01778291505571383
aF0.0
abag3
(g13
g5
Ntp443
Rp444
(lp445
F0.0
aF0.0
aF0.2897165844882667
aF0.9571124806794931
ababag3
(g4
g5
Ntp446
Rp447
(lp448
g3
(g9
g5
Ntp449
Rp450
(lp451
F-1.0646021586140144
aF0.4340488937278973
aF0.0
abag3
(g13
g5
Ntp452
Rp453
(lp454
F0.0
aF0.0
aF0.18676744330983042
aF0.9824041541644198
ababag3
(g4
g5
Ntp455
Rp456
(lp457
g3
(g9
g5
Ntp458
Rp459
(lp460
F-0.05906931461276281
aF0.6329462763540864
aF0.0
abag3
(g13
g5
Ntp461
Rp462
(lp463
F0.0
aF0.0
aF0.025522237494979654
aF0.9996742546416056
ababag3
(g4
g5
Ntp464
Rp465
(lp466
g3
(g9
g5
Ntp467
Rp468
(lp469
F1.0024773988572657
aF0.6294091696581756
aF0.0
abag3
(g13
g5
Ntp470
Rp471
(lp472
F0.0
aF0.0
aF-0.025854259554919108
aF0.9996657227607971
ababag3
(g4
g5
Ntp473
Rp474
(lp475
g3
(g9
g5
Ntp476
Rp477
(lp478
F1.7928448628415412
aF0.5733865752441926
aF0.0
abag3
(g13
g5
Ntp479
Rp480
(lp481
F0.0
aF0.0
aF-0.03364823419260115
aF0.9994337378414438
ababag3
(g4
g5
Ntp482
Rp483
(lp484
g3
(g9
g5
Ntp485
Rp486
(lp487
F2.8621565661769623
aF0.5133814959920951
aF0.0
abag3
(g13
g5
Ntp488
Rp489
(lp490
F0.0
aF0.0
aF-0.025296124601949528
aF0.9996800018406503
ababag3
(g4
g5
Ntp491
Rp492
(lp493
g3
(g9
g5
Ntp494
Rp495
(lp496
F3.89414651207594
aF0.4295286016388978
aF0.0
abag3
(g13
g5
Ntp497
Rp498
(lp499
F0.0
aF0.0
aF-0.0968609422982301
aF0.9952979241699939
ababag3
(g4
g5
Ntp500
Rp501
(lp502
g3
(g9
g5
Ntp503
Rp504
(lp505
F4.561084327452187
aF0.1078562109199534
aF0.0
abag3
(g13
g5
Ntp506
Rp507
(lp508
F0.0
aF0.0
aF-0.39651726868339116
aF0.9180272630133941
ababag3
(g4
g5
Ntp509
Rp510
(lp511
g3
(g9
g5
Ntp512
Rp513
(lp514
F4.70329345603945
aF-0.12545447031621693
aF0.0
abag3
(g13
g5
Ntp515
Rp516
(lp517
F0.0
aF0.0
aF-0.5475538205003151
aF0.8367704665292082
ababag3
(g4
g5
Ntp518
Rp519
(lp520
g3
(g9
g5
Ntp521
Rp522
(lp523
F4.70329345603945
aF-0.12545447031621693
aF0.0
abag3
(g13
g5
Ntp524
Rp525
(lp526
F0.0
aF0.0
aF-0.5475538205003151
aF0.8367704665292082
ababag3
(g4
g5
Ntp527
Rp528
(lp529
g3
(g9
g5
Ntp530
Rp531
(lp532
F4.70329345603945
aF-0.12545447031621693
aF0.0
abag3
(g13
g5
Ntp533
Rp534
(lp535
F0.0
aF0.0
aF-0.5475538205003151
aF0.8367704665292082
ababag3
(g4
g5
Ntp536
Rp537
(lp538
g3
(g9
g5
Ntp539
Rp540
(lp541
F4.754805967753679
aF-0.3137583779288346
aF0.0
abag3
(g13
g5
Ntp542
Rp543
(lp544
F0.0
aF0.0
aF-0.7059820076007131
aF0.7082297684678799
ababaaa.