(lp0
(lp1
I3
aF22.399999999999977
a(lp2
ccopy_reg
_reconstructor
p3
(cgeometry_msgs.msg._Pose
Pose
p4
c__builtin__
object
p5
Ntp6
Rp7
(lp8
g3
(cgeometry_msgs.msg._Point
Point
p9
g5
Ntp10
Rp11
(lp12
F-10.201180687189671
aF2.3492715282141337
aF0.0
abag3
(cgeometry_msgs.msg._Quaternion
Quaternion
p13
g5
Ntp14
Rp15
(lp16
F0.0
aF0.0
aF0.5957458007091384
aF0.8031730454499999
ababag3
(g4
g5
Ntp17
Rp18
(lp19
g3
(g9
g5
Ntp20
Rp21
(lp22
F-10.201180687189671
aF2.3492715282141337
aF0.0
abag3
(g13
g5
Ntp23
Rp24
(lp25
F0.0
aF0.0
aF0.5957458007091384
aF0.8031730454499999
ababag3
(g4
g5
Ntp26
Rp27
(lp28
g3
(g9
g5
Ntp29
Rp30
(lp31
F-10.227928267324376
aF2.3583960235757004
aF0.0
abag3
(g13
g5
Ntp32
Rp33
(lp34
F0.0
aF0.0
aF0.7292730965750486
aF0.6842227346499383
ababag3
(g4
g5
Ntp35
Rp36
(lp37
g3
(g9
g5
Ntp38
Rp39
(lp40
F-10.227928267324376
aF2.3583960235757004
aF0.0
abag3
(g13
g5
Ntp41
Rp42
(lp43
F0.0
aF0.0
aF0.7292730965750486
aF0.6842227346499383
ababag3
(g4
g5
Ntp44
Rp45
(lp46
g3
(g9
g5
Ntp47
Rp48
(lp49
F-10.257238079484326
aF2.3786774124655774
aF0.0
abag3
(g13
g5
Ntp50
Rp51
(lp52
F0.0
aF0.0
aF0.8977644554463781
aF0.44047585919896715
ababag3
(g4
g5
Ntp53
Rp54
(lp55
g3
(g9
g5
Ntp56
Rp57
(lp58
F-10.257238079484326
aF2.3786774124655774
aF0.0
abag3
(g13
g5
Ntp59
Rp60
(lp61
F0.0
aF0.0
aF0.8977644554463781
aF0.44047585919896715
ababag3
(g4
g5
Ntp62
Rp63
(lp64
g3
(g9
g5
Ntp65
Rp66
(lp67
F-10.28933036569935
aF2.4113048502612866
aF0.0
abag3
(g13
g5
Ntp68
Rp69
(lp70
F0.0
aF0.0
aF-0.9933917074516226
aF0.11477332253772964
ababag3
(g4
g5
Ntp71
Rp72
(lp73
g3
(g9
g5
Ntp74
Rp75
(lp76
F-10.293655796578006
aF2.2185919537811163
aF0.0
abag3
(g13
g5
Ntp77
Rp78
(lp79
F0.0
aF0.0
aF-0.6164349888133135
aF0.7874058067900758
ababag3
(g4
g5
Ntp80
Rp81
(lp82
g3
(g9
g5
Ntp83
Rp84
(lp85
F-9.815589755813427
aF1.6479805392226667
aF0.0
abag3
(g13
g5
Ntp86
Rp87
(lp88
F0.0
aF0.0
aF-0.3187245967985295
aF0.9478473671407305
ababag3
(g4
g5
Ntp89
Rp90
(lp91
g3
(g9
g5
Ntp92
Rp93
(lp94
F-8.98578129479008
aF1.036549688702367
aF0.0
abag3
(g13
g5
Ntp95
Rp96
(lp97
F0.0
aF0.0
aF-0.3375890445531612
aF0.9412935976610506
ababag3
(g4
g5
Ntp98
Rp99
(lp100
g3
(g9
g5
Ntp101
Rp102
(lp103
F-8.037643151746714
aF0.542983865808885
aF0.0
abag3
(g13
g5
Ntp104
Rp105
(lp106
F0.0
aF0.0
aF-0.10787262165435571
aF0.9941647235229262
ababag3
(g4
g5
Ntp107
Rp108
(lp109
g3
(g9
g5
Ntp110
Rp111
(lp112
F-7.189825274589394
aF0.4917682507140051
aF0.0
abag3
(g13
g5
Ntp113
Rp114
(lp115
F0.0
aF0.0
aF0.015169462700771952
aF0.9998849370809473
ababag3
(g4
g5
Ntp116
Rp117
(lp118
g3
(g9
g5
Ntp119
Rp120
(lp121
F-6.135432944553777
aF0.5408058891192681
aF0.0
abag3
(g13
g5
Ntp122
Rp123
(lp124
F0.0
aF0.0
aF0.00968432727752723
aF0.999953105803058
ababag3
(g4
g5
Ntp125
Rp126
(lp127
g3
(g9
g5
Ntp128
Rp129
(lp130
F-5.094161516922466
aF0.48331702858817865
aF0.0
abag3
(g13
g5
Ntp131
Rp132
(lp133
F0.0
aF0.0
aF-0.056708175620214275
aF0.9983907966411885
ababag3
(g4
g5
Ntp134
Rp135
(lp136
g3
(g9
g5
Ntp137
Rp138
(lp139
F-4.157248647244007
aF0.29960053755279326
aF0.0
abag3
(g13
g5
Ntp140
Rp141
(lp142
F0.0
aF0.0
aF-0.13027776724266701
aF0.9914775354803887
ababag3
(g4
g5
Ntp143
Rp144
(lp145
g3
(g9
g5
Ntp146
Rp147
(lp148
F-3.488717414674875
aF0.17531319615621488
aF0.0
abag3
(g13
g5
Ntp149
Rp150
(lp151
F0.0
aF0.0
aF-0.05422295353513409
aF0.998528853518979
ababag3
(g4
g5
Ntp152
Rp153
(lp154
g3
(g9
g5
Ntp155
Rp156
(lp157
F-2.4542734828394526
aF0.08774923434665095
aF0.0
abag3
(g13
g5
Ntp158
Rp159
(lp160
F0.0
aF0.0
aF-0.0471717506707326
aF0.9988867933548117
ababag3
(g4
g5
Ntp161
Rp162
(lp163
g3
(g9
g5
Ntp164
Rp165
(lp166
F-1.8446920767061785
aF0.00481800848594717
aF0.0
abag3
(g13
g5
Ntp167
Rp168
(lp169
F0.0
aF0.0
aF-0.08263508496629625
aF0.9965798727310385
ababag3
(g4
g5
Ntp170
Rp171
(lp172
g3
(g9
g5
Ntp173
Rp174
(lp175
F-1.5376367001920772
aF-0.045141693214643897
aF0.0
abag3
(g13
g5
Ntp176
Rp177
(lp178
F0.0
aF0.0
aF-0.10815509110686292
aF0.9941340333514723
ababag3
(g4
g5
Ntp179
Rp180
(lp181
g3
(g9
g5
Ntp182
Rp183
(lp184
F-1.2902104834586003
aF-0.11172089748254278
aF0.0
abag3
(g13
g5
Ntp185
Rp186
(lp187
F0.0
aF0.0
aF-0.175829397774632
aF0.9844206534191622
ababag3
(g4
g5
Ntp188
Rp189
(lp190
g3
(g9
g5
Ntp191
Rp192
(lp193
F-1.2902104834586003
aF-0.11172089748254278
aF0.0
abag3
(g13
g5
Ntp194
Rp195
(lp196
F0.0
aF0.0
aF-0.175829397774632
aF0.9844206534191622
ababag3
(g4
g5
Ntp197
Rp198
(lp199
g3
(g9
g5
Ntp200
Rp201
(lp202
F-1.2902104834586003
aF-0.11172089748254278
aF0.0
abag3
(g13
g5
Ntp203
Rp204
(lp205
F0.0
aF0.0
aF-0.175829397774632
aF0.9844206534191622
ababag3
(g4
g5
Ntp206
Rp207
(lp208
g3
(g9
g5
Ntp209
Rp210
(lp211
F-1.1723516625572992
aF-0.1616755479307059
aF0.0
abag3
(g13
g5
Ntp212
Rp213
(lp214
F0.0
aF0.0
aF-0.4059651940363766
aF0.913888538734898
ababaaa(lp215
I3
aF22.87900000000002
a(lp216
g3
(g4
g5
Ntp217
Rp218
(lp219
g3
(g9
g5
Ntp220
Rp221
(lp222
F-10.191928853773584
aF2.3511874179517616
aF0.0
abag3
(g13
g5
Ntp223
Rp224
(lp225
F0.0
aF0.0
aF0.5945967403627747
aF0.8040240769715563
ababag3
(g4
g5
Ntp226
Rp227
(lp228
g3
(g9
g5
Ntp229
Rp230
(lp231
F-10.191928853773584
aF2.3511874179517616
aF0.0
abag3
(g13
g5
Ntp232
Rp233
(lp234
F0.0
aF0.0
aF0.5945967403627747
aF0.8040240769715563
ababag3
(g4
g5
Ntp235
Rp236
(lp237
g3
(g9
g5
Ntp238
Rp239
(lp240
F-10.191928853773584
aF2.3511874179517616
aF0.0
abag3
(g13
g5
Ntp241
Rp242
(lp243
F0.0
aF0.0
aF0.5945967403627747
aF0.8040240769715563
ababag3
(g4
g5
Ntp244
Rp245
(lp246
g3
(g9
g5
Ntp247
Rp248
(lp249
F-10.226745614590698
aF2.3604780134886765
aF0.0
abag3
(g13
g5
Ntp250
Rp251
(lp252
F0.0
aF0.0
aF0.7290242627593565
aF0.6844878554862581
ababag3
(g4
g5
Ntp253
Rp254
(lp255
g3
(g9
g5
Ntp256
Rp257
(lp258
F-10.226745614590698
aF2.3604780134886765
aF0.0
abag3
(g13
g5
Ntp259
Rp260
(lp261
F0.0
aF0.0
aF0.7290242627593565
aF0.6844878554862581
ababag3
(g4
g5
Ntp262
Rp263
(lp264
g3
(g9
g5
Ntp265
Rp266
(lp267
F-10.249307076858955
aF2.3906649051454254
aF0.0
abag3
(g13
g5
Ntp268
Rp269
(lp270
F0.0
aF0.0
aF0.8946931935224405
aF0.4466811944380654
ababag3
(g4
g5
Ntp271
Rp272
(lp273
g3
(g9
g5
Ntp274
Rp275
(lp276
F-10.249307076858955
aF2.3906649051454254
aF0.0
abag3
(g13
g5
Ntp277
Rp278
(lp279
F0.0
aF0.0
aF0.8946931935224405
aF0.4466811944380654
ababag3
(g4
g5
Ntp280
Rp281
(lp282
g3
(g9
g5
Ntp283
Rp284
(lp285
F-10.267780943407177
aF2.4153778091823996
aF0.0
abag3
(g13
g5
Ntp286
Rp287
(lp288
F0.0
aF0.0
aF0.9882541203929555
aF0.15281948019263103
ababag3
(g4
g5
Ntp289
Rp290
(lp291
g3
(g9
g5
Ntp292
Rp293
(lp294
F-10.296427130016655
aF2.4016670371557614
aF0.0
abag3
(g13
g5
Ntp295
Rp296
(lp297
F0.0
aF0.0
aF-0.9219657911029382
aF0.3872713261215364
ababag3
(g4
g5
Ntp298
Rp299
(lp300
g3
(g9
g5
Ntp301
Rp302
(lp303
F-10.178090727573373
aF1.9307884194726779
aF0.0
abag3
(g13
g5
Ntp304
Rp305
(lp306
F0.0
aF0.0
aF-0.4888915144019572
aF0.8723445919736998
ababag3
(g4
g5
Ntp307
Rp308
(lp309
g3
(g9
g5
Ntp310
Rp311
(lp312
F-9.459404018221207
aF1.2664310814466235
aF0.0
abag3
(g13
g5
Ntp313
Rp314
(lp315
F0.0
aF0.0
aF-0.308784886583103
aF0.9511319013774379
ababag3
(g4
g5
Ntp316
Rp317
(lp318
g3
(g9
g5
Ntp319
Rp320
(lp321
F-8.835861090023434
aF0.8090121751355915
aF0.0
abag3
(g13
g5
Ntp322
Rp323
(lp324
F0.0
aF0.0
aF-0.280055057834862
aF0.9599839397516565
ababag3
(g4
g5
Ntp325
Rp326
(lp327
g3
(g9
g5
Ntp328
Rp329
(lp330
F-7.94897351682137
aF0.503480080595619
aF0.0
abag3
(g13
g5
Ntp331
Rp332
(lp333
F0.0
aF0.0
aF-0.05745121095715809
aF0.9983483151483534
ababag3
(g4
g5
Ntp334
Rp335
(lp336
g3
(g9
g5
Ntp337
Rp338
(lp339
F-6.906673651259305
aF0.49896240548296106
aF0.0
abag3
(g13
g5
Ntp340
Rp341
(lp342
F0.0
aF0.0
aF0.020910626562936165
aF0.9997813489442307
ababag3
(g4
g5
Ntp343
Rp344
(lp345
g3
(g9
g5
Ntp346
Rp347
(lp348
F-5.862135365358722
aF0.5192516598518138
aF0.0
abag3
(g13
g5
Ntp349
Rp350
(lp351
F0.0
aF0.0
aF-0.008516169040447826
aF0.9999637367749266
ababag3
(g4
g5
Ntp352
Rp353
(lp354
g3
(g9
g5
Ntp355
Rp356
(lp357
F-4.813455366806386
aF0.44182868532527025
aF0.0
abag3
(g13
g5
Ntp358
Rp359
(lp360
F0.0
aF0.0
aF-0.07875693046663279
aF0.9968938488642981
ababag3
(g4
g5
Ntp361
Rp362
(lp363
g3
(g9
g5
Ntp364
Rp365
(lp366
F-4.042874189061004
aF0.28287194672969207
aF0.0
abag3
(g13
g5
Ntp367
Rp368
(lp369
F0.0
aF0.0
aF-0.11527080347554262
aF0.993334103847292
ababag3
(g4
g5
Ntp370
Rp371
(lp372
g3
(g9
g5
Ntp373
Rp374
(lp375
F-2.9461770176527535
aF0.13724187016104958
aF0.0
abag3
(g13
g5
Ntp376
Rp377
(lp378
F0.0
aF0.0
aF-0.044380423444269575
aF0.9990147036029586
ababag3
(g4
g5
Ntp379
Rp380
(lp381
g3
(g9
g5
Ntp382
Rp383
(lp384
F-2.165349396497626
aF0.06809278526634671
aF0.0
abag3
(g13
g5
Ntp385
Rp386
(lp387
F0.0
aF0.0
aF-0.053912092065514824
aF0.9985456856494446
ababag3
(g4
g5
Ntp388
Rp389
(lp390
g3
(g9
g5
Ntp391
Rp392
(lp393
F-1.6010789274626922
aF-0.021158150285776844
aF0.0
abag3
(g13
g5
Ntp394
Rp395
(lp396
F0.0
aF0.0
aF-0.11271565127176526
aF0.9936272852324365
ababag3
(g4
g5
Ntp397
Rp398
(lp399
g3
(g9
g5
Ntp400
Rp401
(lp402
F-1.3376435581001562
aF-0.09715505950899428
aF0.0
abag3
(g13
g5
Ntp403
Rp404
(lp405
F0.0
aF0.0
aF-0.15928750099077116
aF0.9872322381426344
ababag3
(g4
g5
Ntp406
Rp407
(lp408
g3
(g9
g5
Ntp409
Rp410
(lp411
F-1.3376435581001562
aF-0.09715505950899428
aF0.0
abag3
(g13
g5
Ntp412
Rp413
(lp414
F0.0
aF0.0
aF-0.15928750099077116
aF0.9872322381426344
ababag3
(g4
g5
Ntp415
Rp416
(lp417
g3
(g9
g5
Ntp418
Rp419
(lp420
F-1.2419932184485862
aF-0.1430045229818273
aF0.0
abag3
(g13
g5
Ntp421
Rp422
(lp423
F0.0
aF0.0
aF-0.4049850442650816
aF0.9143233092957928
ababaaa.