(lp0
(lp1
I3
aF20.87700000000001
a(lp2
ccopy_reg
_reconstructor
p3
(cgeometry_msgs.msg._Pose
Pose
p4
c__builtin__
object
p5
Ntp6
Rp7
(lp8
g3
(cgeometry_msgs.msg._Point
Point
p9
g5
Ntp10
Rp11
(lp12
F-1.204858012826826
aF-0.14682277404551566
aF0.0
abag3
(cgeometry_msgs.msg._Quaternion
Quaternion
p13
g5
Ntp14
Rp15
(lp16
F0.0
aF0.0
aF-0.5606258539178672
aF0.8280692313562087
ababag3
(g4
g5
Ntp17
Rp18
(lp19
g3
(g9
g5
Ntp20
Rp21
(lp22
F-1.2529611377953767
aF-0.19527374059998187
aF0.0
abag3
(g13
g5
Ntp23
Rp24
(lp25
F0.0
aF0.0
aF-0.9038432787020145
aF0.4278636786935677
ababag3
(g4
g5
Ntp26
Rp27
(lp28
g3
(g9
g5
Ntp29
Rp30
(lp31
F-1.6663700038099578
aF-0.299509057067022
aF0.0
abag3
(g13
g5
Ntp32
Rp33
(lp34
F0.0
aF0.0
aF0.9999478353511622
aF0.010214038208516246
ababag3
(g4
g5
Ntp35
Rp36
(lp37
g3
(g9
g5
Ntp38
Rp39
(lp40
F-2.6772023551103303
aF-0.07532684397930937
aF0.0
abag3
(g13
g5
Ntp41
Rp42
(lp43
F0.0
aF0.0
aF0.9874878660586912
aF0.15769500431799466
ababag3
(g4
g5
Ntp44
Rp45
(lp46
g3
(g9
g5
Ntp47
Rp48
(lp49
F-3.7091276726859
aF0.19846779528476594
aF0.0
abag3
(g13
g5
Ntp50
Rp51
(lp52
F0.0
aF0.0
aF0.9945002290510752
aF0.1047343993984737
ababag3
(g4
g5
Ntp53
Rp54
(lp55
g3
(g9
g5
Ntp56
Rp57
(lp58
F-4.749133891064917
aF0.3726430217179307
aF0.0
abag3
(g13
g5
Ntp59
Rp60
(lp61
F0.0
aF0.0
aF0.9977086539923242
aF0.06765679381129966
ababag3
(g4
g5
Ntp62
Rp63
(lp64
g3
(g9
g5
Ntp65
Rp66
(lp67
F-5.532361250161181
aF0.4890926667468313
aF0.0
abag3
(g13
g5
Ntp68
Rp69
(lp70
F0.0
aF0.0
aF0.9978840606259614
aF0.0650184708267027
ababag3
(g4
g5
Ntp71
Rp72
(lp73
g3
(g9
g5
Ntp74
Rp75
(lp76
F-6.593874809857383
aF0.5714051758141392
aF0.0
abag3
(g13
g5
Ntp77
Rp78
(lp79
F0.0
aF0.0
aF0.9998523662979545
aF0.017182712486128023
ababag3
(g4
g5
Ntp80
Rp81
(lp82
g3
(g9
g5
Ntp83
Rp84
(lp85
F-7.641802502594126
aF0.597408112341616
aF0.0
abag3
(g13
g5
Ntp86
Rp87
(lp88
F0.0
aF0.0
aF0.9999892011437679
aF0.00464732136277763
ababag3
(g4
g5
Ntp89
Rp90
(lp91
g3
(g9
g5
Ntp92
Rp93
(lp94
F-8.37933051266547
aF0.7154534232546145
aF0.0
abag3
(g13
g5
Ntp95
Rp96
(lp97
F0.0
aF0.0
aF0.9856923309032252
aF0.16855452767151297
ababag3
(g4
g5
Ntp98
Rp99
(lp100
g3
(g9
g5
Ntp101
Rp102
(lp103
F-9.350768642773376
aF1.386958191742099
aF0.0
abag3
(g13
g5
Ntp104
Rp105
(lp106
F0.0
aF0.0
aF0.9270114766608887
aF0.3750329614033926
ababag3
(g4
g5
Ntp107
Rp108
(lp109
g3
(g9
g5
Ntp110
Rp111
(lp112
F-10.090331144935531
aF1.8786457672737014
aF0.0
abag3
(g13
g5
Ntp113
Rp114
(lp115
F0.0
aF0.0
aF0.9815345317342948
aF0.1912850308130215
ababag3
(g4
g5
Ntp116
Rp117
(lp118
g3
(g9
g5
Ntp119
Rp120
(lp121
F-10.915279332569323
aF2.0562496954494214
aF0.0
abag3
(g13
g5
Ntp122
Rp123
(lp124
F0.0
aF0.0
aF0.9990256653813381
aF0.04413297983792621
ababag3
(g4
g5
Ntp125
Rp126
(lp127
g3
(g9
g5
Ntp128
Rp129
(lp130
F-11.944473004655277
aF2.1334280436442294
aF0.0
abag3
(g13
g5
Ntp131
Rp132
(lp133
F0.0
aF0.0
aF0.9972475458903154
aF0.07414399649157864
ababag3
(g4
g5
Ntp134
Rp135
(lp136
g3
(g9
g5
Ntp137
Rp138
(lp139
F-12.17693575025879
aF2.18105048644545
aF0.0
abag3
(g13
g5
Ntp140
Rp141
(lp142
F0.0
aF0.0
aF0.990840219663705
aF0.13503947236560487
ababag3
(g4
g5
Ntp143
Rp144
(lp145
g3
(g9
g5
Ntp146
Rp147
(lp148
F-12.17693575025879
aF2.18105048644545
aF0.0
abag3
(g13
g5
Ntp149
Rp150
(lp151
F0.0
aF0.0
aF0.990840219663705
aF0.13503947236560487
ababag3
(g4
g5
Ntp152
Rp153
(lp154
g3
(g9
g5
Ntp155
Rp156
(lp157
F-12.17693575025879
aF2.18105048644545
aF0.0
abag3
(g13
g5
Ntp158
Rp159
(lp160
F0.0
aF0.0
aF0.990840219663705
aF0.13503947236560487
ababag3
(g4
g5
Ntp161
Rp162
(lp163
g3
(g9
g5
Ntp164
Rp165
(lp166
F-12.42636372598182
aF2.2871588230310476
aF0.0
abag3
(g13
g5
Ntp167
Rp168
(lp169
F0.0
aF0.0
aF0.9715077733725445
aF0.2370076924420825
ababag3
(g4
g5
Ntp170
Rp171
(lp172
g3
(g9
g5
Ntp173
Rp174
(lp175
F-12.438589351916013
aF2.297911204136813
aF0.0
abag3
(g13
g5
Ntp176
Rp177
(lp178
F0.0
aF0.0
aF0.8807242584904729
aF0.4736293704009568
ababag3
(g4
g5
Ntp179
Rp180
(lp181
g3
(g9
g5
Ntp182
Rp183
(lp184
F-12.438589351916013
aF2.297911204136813
aF0.0
abag3
(g13
g5
Ntp185
Rp186
(lp187
F0.0
aF0.0
aF0.8807242584904729
aF0.4736293704009568
ababag3
(g4
g5
Ntp188
Rp189
(lp190
g3
(g9
g5
Ntp191
Rp192
(lp193
F-12.441495930625848
aF2.3252595647757874
aF0.0
abag3
(g13
g5
Ntp194
Rp195
(lp196
F0.0
aF0.0
aF0.7273183958792185
aF0.6863001901614776
ababaaa(lp197
I3
aF25.6400000000001
a(lp198
g3
(g4
g5
Ntp199
Rp200
(lp201
g3
(g9
g5
Ntp202
Rp203
(lp204
F-1.2044682646990332
aF-0.14951129892606485
aF0.0
abag3
(g13
g5
Ntp205
Rp206
(lp207
F0.0
aF0.0
aF-0.5619284799156676
aF0.8271858216021761
ababag3
(g4
g5
Ntp208
Rp209
(lp210
g3
(g9
g5
Ntp211
Rp212
(lp213
F-1.2044682646990332
aF-0.14951129892606485
aF0.0
abag3
(g13
g5
Ntp214
Rp215
(lp216
F0.0
aF0.0
aF-0.5619284799156676
aF0.8271858216021761
ababag3
(g4
g5
Ntp217
Rp218
(lp219
g3
(g9
g5
Ntp220
Rp221
(lp222
F-1.2128484676550197
aF-0.16516400463399722
aF0.0
abag3
(g13
g5
Ntp223
Rp224
(lp225
F0.0
aF0.0
aF-0.48962814223511136
aF0.8719313518456562
ababag3
(g4
g5
Ntp226
Rp227
(lp228
g3
(g9
g5
Ntp229
Rp230
(lp231
F-1.2128484676550197
aF-0.16516400463399722
aF0.0
abag3
(g13
g5
Ntp232
Rp233
(lp234
F0.0
aF0.0
aF-0.48962814223511136
aF0.8719313518456562
ababag3
(g4
g5
Ntp235
Rp236
(lp237
g3
(g9
g5
Ntp238
Rp239
(lp240
F-1.2070634514852536
aF-0.184271146646841
aF0.0
abag3
(g13
g5
Ntp241
Rp242
(lp243
F0.0
aF0.0
aF-0.29853667076043117
aF0.9543981644006226
ababag3
(g4
g5
Ntp244
Rp245
(lp246
g3
(g9
g5
Ntp247
Rp248
(lp249
F-1.2070634514852536
aF-0.184271146646841
aF0.0
abag3
(g13
g5
Ntp250
Rp251
(lp252
F0.0
aF0.0
aF-0.29853667076043117
aF0.9543981644006226
ababag3
(g4
g5
Ntp253
Rp254
(lp255
g3
(g9
g5
Ntp256
Rp257
(lp258
F-1.1834836045515802
aF-0.16690641803061607
aF0.0
abag3
(g13
g5
Ntp259
Rp260
(lp261
F0.0
aF0.0
aF0.47545908777657697
aF0.8797378335905903
ababag3
(g4
g5
Ntp262
Rp263
(lp264
g3
(g9
g5
Ntp265
Rp266
(lp267
F-1.1917201690941954
aF-0.07998184894076779
aF0.0
abag3
(g13
g5
Ntp268
Rp269
(lp270
F0.0
aF0.0
aF0.8477905673472904
aF0.5303311738121372
ababag3
(g4
g5
Ntp271
Rp272
(lp273
g3
(g9
g5
Ntp274
Rp275
(lp276
F-1.929099967795733
aF0.2081370609388485
aF0.0
abag3
(g13
g5
Ntp277
Rp278
(lp279
F0.0
aF0.0
aF0.9995846437247845
aF0.028819091408226662
ababag3
(g4
g5
Ntp280
Rp281
(lp282
g3
(g9
g5
Ntp283
Rp284
(lp285
F-3.059649757713553
aF0.1712163004947169
aF0.0
abag3
(g13
g5
Ntp286
Rp287
(lp288
F0.0
aF0.0
aF-0.9999058755850337
aF0.013720057234828128
ababag3
(g4
g5
Ntp289
Rp290
(lp291
g3
(g9
g5
Ntp292
Rp293
(lp294
F-3.7146123221214324
aF0.1995839555808304
aF0.0
abag3
(g13
g5
Ntp295
Rp296
(lp297
F0.0
aF0.0
aF0.9985928222621243
aF0.05303183314355047
ababag3
(g4
g5
Ntp298
Rp299
(lp300
g3
(g9
g5
Ntp301
Rp302
(lp303
F-4.8892460750484315
aF0.3500178605547083
aF0.0
abag3
(g13
g5
Ntp304
Rp305
(lp306
F0.0
aF0.0
aF0.9968300089551029
aF0.07956087761311854
ababag3
(g4
g5
Ntp307
Rp308
(lp309
g3
(g9
g5
Ntp310
Rp311
(lp312
F-5.997778077183788
aF0.5035419234895365
aF0.0
abag3
(g13
g5
Ntp313
Rp314
(lp315
F0.0
aF0.0
aF0.998753727575074
aF0.04990983525213165
ababag3
(g4
g5
Ntp316
Rp317
(lp318
g3
(g9
g5
Ntp319
Rp320
(lp321
F-6.7308375373331275
aF0.5437866886226524
aF0.0
abag3
(g13
g5
Ntp322
Rp323
(lp324
F0.0
aF0.0
aF0.9997899240656521
aF0.020496529872088887
ababag3
(g4
g5
Ntp325
Rp326
(lp327
g3
(g9
g5
Ntp328
Rp329
(lp330
F-7.912434823682131
aF0.5890519678953722
aF0.0
abag3
(g13
g5
Ntp331
Rp332
(lp333
F0.0
aF0.0
aF0.9984828944736598
aF0.05506277729557693
ababag3
(g4
g5
Ntp334
Rp335
(lp336
g3
(g9
g5
Ntp337
Rp338
(lp339
F-8.720808346189996
aF0.8454058719929034
aF0.0
abag3
(g13
g5
Ntp340
Rp341
(lp342
F0.0
aF0.0
aF0.9722248181821146
aF0.2340489327272273
ababag3
(g4
g5
Ntp343
Rp344
(lp345
g3
(g9
g5
Ntp346
Rp347
(lp348
F-9.530426630276498
aF1.4350229487549655
aF0.0
abag3
(g13
g5
Ntp349
Rp350
(lp351
F0.0
aF0.0
aF0.9486042517491703
aF0.31646480620030537
ababag3
(g4
g5
Ntp352
Rp353
(lp354
g3
(g9
g5
Ntp355
Rp356
(lp357
F-10.431738988094919
aF1.8951760178557644
aF0.0
abag3
(g13
g5
Ntp358
Rp359
(lp360
F0.0
aF0.0
aF0.9908008999143558
aF0.13532766431481305
ababag3
(g4
g5
Ntp361
Rp362
(lp363
g3
(g9
g5
Ntp364
Rp365
(lp366
F-11.0809101841353
aF2.0043937931874005
aF0.0
abag3
(g13
g5
Ntp367
Rp368
(lp369
F0.0
aF0.0
aF0.9989489046621212
aF0.04583760327884124
ababag3
(g4
g5
Ntp370
Rp371
(lp372
g3
(g9
g5
Ntp373
Rp374
(lp375
F-11.797622164884347
aF2.088022596583759
aF0.0
abag3
(g13
g5
Ntp376
Rp377
(lp378
F0.0
aF0.0
aF0.9962985199440055
aF0.08596080012065907
ababag3
(g4
g5
Ntp379
Rp380
(lp381
g3
(g9
g5
Ntp382
Rp383
(lp384
F-12.087963713854244
aF2.1447567040048643
aF0.0
abag3
(g13
g5
Ntp385
Rp386
(lp387
F0.0
aF0.0
aF0.9935178690467312
aF0.11367604798215987
ababag3
(g4
g5
Ntp388
Rp389
(lp390
g3
(g9
g5
Ntp391
Rp392
(lp393
F-12.315242030277865
aF2.218023976021921
aF0.0
abag3
(g13
g5
Ntp394
Rp395
(lp396
F0.0
aF0.0
aF0.9658492393047132
aF0.2591047026483825
ababag3
(g4
g5
Ntp397
Rp398
(lp399
g3
(g9
g5
Ntp400
Rp401
(lp402
F-12.315242030277865
aF2.218023976021921
aF0.0
abag3
(g13
g5
Ntp403
Rp404
(lp405
F0.0
aF0.0
aF0.9658492393047132
aF0.2591047026483825
ababag3
(g4
g5
Ntp406
Rp407
(lp408
g3
(g9
g5
Ntp409
Rp410
(lp411
F-12.333651280036554
aF2.2363853491168757
aF0.0
abag3
(g13
g5
Ntp412
Rp413
(lp414
F0.0
aF0.0
aF0.8626462811134926
aF0.505807664711658
ababag3
(g4
g5
Ntp415
Rp416
(lp417
g3
(g9
g5
Ntp418
Rp419
(lp420
F-12.333651280036554
aF2.2363853491168757
aF0.0
abag3
(g13
g5
Ntp421
Rp422
(lp423
F0.0
aF0.0
aF0.8626462811134926
aF0.505807664711658
ababag3
(g4
g5
Ntp424
Rp425
(lp426
g3
(g9
g5
Ntp427
Rp428
(lp429
F-12.338635455805909
aF2.272360558635076
aF0.0
abag3
(g13
g5
Ntp430
Rp431
(lp432
F0.0
aF0.0
aF0.6974642193089934
aF0.7166196081490489
ababaaa(lp433
I3
aF22.160000000000082
a(lp434
g3
(g4
g5
Ntp435
Rp436
(lp437
g3
(g9
g5
Ntp438
Rp439
(lp440
F-1.2073645081036894
aF-0.148548811594599
aF0.0
abag3
(g13
g5
Ntp441
Rp442
(lp443
F0.0
aF0.0
aF-0.5639874802680339
aF0.8257833384737876
ababag3
(g4
g5
Ntp444
Rp445
(lp446
g3
(g9
g5
Ntp447
Rp448
(lp449
F-1.2449990231068289
aF-0.15564453703130027
aF0.0
abag3
(g13
g5
Ntp450
Rp451
(lp452
F0.0
aF0.0
aF-0.8990837747219254
aF0.4377766165886138
ababag3
(g4
g5
Ntp453
Rp454
(lp455
g3
(g9
g5
Ntp456
Rp457
(lp458
F-1.6369485198722
aF-0.24754519600551766
aF0.0
abag3
(g13
g5
Ntp459
Rp460
(lp461
F0.0
aF0.0
aF0.9995586256549472
aF0.029707808380846978
ababag3
(g4
g5
Ntp462
Rp463
(lp464
g3
(g9
g5
Ntp465
Rp466
(lp467
F-2.638718556924591
aF-0.019952049389814323
aF0.0
abag3
(g13
g5
Ntp468
Rp469
(lp470
F0.0
aF0.0
aF0.9908190725096698
aF0.13519454704638673
ababag3
(g4
g5
Ntp471
Rp472
(lp473
g3
(g9
g5
Ntp474
Rp475
(lp476
F-3.6760167008562705
aF0.2118920502469197
aF0.0
abag3
(g13
g5
Ntp477
Rp478
(lp479
F0.0
aF0.0
aF0.9961221569673651
aF0.08798095474978766
ababag3
(g4
g5
Ntp480
Rp481
(lp482
g3
(g9
g5
Ntp483
Rp484
(lp485
F-4.464935727929647
aF0.3509861858270472
aF0.0
abag3
(g13
g5
Ntp486
Rp487
(lp488
F0.0
aF0.0
aF0.9968767824718482
aF0.07897265709456303
ababag3
(g4
g5
Ntp489
Rp490
(lp491
g3
(g9
g5
Ntp492
Rp493
(lp494
F-5.504575365728299
aF0.49625828612931183
aF0.0
abag3
(g13
g5
Ntp495
Rp496
(lp497
F0.0
aF0.0
aF0.9982943583808617
aF0.0583812814602734
ababag3
(g4
g5
Ntp498
Rp499
(lp500
g3
(g9
g5
Ntp501
Rp502
(lp503
F-6.568360800121498
aF0.5666966657673572
aF0.0
abag3
(g13
g5
Ntp504
Rp505
(lp506
F0.0
aF0.0
aF0.9999441780349225
aF0.010566021676256998
ababag3
(g4
g5
Ntp507
Rp508
(lp509
g3
(g9
g5
Ntp510
Rp511
(lp512
F-7.362592409475325
aF0.5886843543151601
aF0.0
abag3
(g13
g5
Ntp513
Rp514
(lp515
F0.0
aF0.0
aF0.9999024421465594
aF0.013968041714798774
ababag3
(g4
g5
Ntp516
Rp517
(lp518
g3
(g9
g5
Ntp519
Rp520
(lp521
F-8.35536782183741
aF0.7280596544715061
aF0.0
abag3
(g13
g5
Ntp522
Rp523
(lp524
F0.0
aF0.0
aF0.9838059548333821
aF0.17923683559574835
ababag3
(g4
g5
Ntp525
Rp526
(lp527
g3
(g9
g5
Ntp528
Rp529
(lp530
F-9.222243941922162
aF1.3469220183915445
aF0.0
abag3
(g13
g5
Ntp531
Rp532
(lp533
F0.0
aF0.0
aF0.9265214668188388
aF0.3762419055924889
ababag3
(g4
g5
Ntp534
Rp535
(lp536
g3
(g9
g5
Ntp537
Rp538
(lp539
F-9.887141185298782
aF1.8171128863032355
aF0.0
abag3
(g13
g5
Ntp540
Rp541
(lp542
F0.0
aF0.0
aF0.9769469928356304
aF0.21348202076385447
ababag3
(g4
g5
Ntp543
Rp544
(lp545
g3
(g9
g5
Ntp546
Rp547
(lp548
F-10.88335679764019
aF2.081254269169011
aF0.0
abag3
(g13
g5
Ntp549
Rp550
(lp551
F0.0
aF0.0
aF0.9958509328638624
aF0.09099955776911747
ababag3
(g4
g5
Ntp552
Rp553
(lp554
g3
(g9
g5
Ntp555
Rp556
(lp557
F-11.65390394846062
aF2.193687625403351
aF0.0
abag3
(g13
g5
Ntp558
Rp559
(lp560
F0.0
aF0.0
aF0.9985061798094295
aF0.05463889532539273
ababag3
(g4
g5
Ntp561
Rp562
(lp563
g3
(g9
g5
Ntp564
Rp565
(lp566
F-12.087678407280084
aF2.2414203578368355
aF0.0
abag3
(g13
g5
Ntp567
Rp568
(lp569
F0.0
aF0.0
aF0.9986985260666362
aF0.05100249045221431
ababag3
(g4
g5
Ntp570
Rp571
(lp572
g3
(g9
g5
Ntp573
Rp574
(lp575
F-12.296233457114102
aF2.263062540005891
aF0.0
abag3
(g13
g5
Ntp576
Rp577
(lp578
F0.0
aF0.0
aF0.9989249281113411
aF0.04635717849213818
ababag3
(g4
g5
Ntp579
Rp580
(lp581
g3
(g9
g5
Ntp582
Rp583
(lp584
F-12.296233457114102
aF2.263062540005891
aF0.0
abag3
(g13
g5
Ntp585
Rp586
(lp587
F0.0
aF0.0
aF0.9989249281113411
aF0.04635717849213818
ababag3
(g4
g5
Ntp588
Rp589
(lp590
g3
(g9
g5
Ntp591
Rp592
(lp593
F-12.296233457114102
aF2.263062540005891
aF0.0
abag3
(g13
g5
Ntp594
Rp595
(lp596
F0.0
aF0.0
aF0.9989249281113411
aF0.04635717849213818
ababag3
(g4
g5
Ntp597
Rp598
(lp599
g3
(g9
g5
Ntp600
Rp601
(lp602
F-12.40831966658147
aF2.2768660988163
aF0.0
abag3
(g13
g5
Ntp603
Rp604
(lp605
F0.0
aF0.0
aF0.9805221563277834
aF0.19640850529015771
ababag3
(g4
g5
Ntp606
Rp607
(lp608
g3
(g9
g5
Ntp609
Rp610
(lp611
F-12.424727109277018
aF2.2927916014943173
aF0.0
abag3
(g13
g5
Ntp612
Rp613
(lp614
F0.0
aF0.0
aF0.8964053438854808
aF0.4432352191033028
ababag3
(g4
g5
Ntp615
Rp616
(lp617
g3
(g9
g5
Ntp618
Rp619
(lp620
F-12.424727109277018
aF2.2927916014943173
aF0.0
abag3
(g13
g5
Ntp621
Rp622
(lp623
F0.0
aF0.0
aF0.8964053438854808
aF0.4432352191033028
ababag3
(g4
g5
Ntp624
Rp625
(lp626
g3
(g9
g5
Ntp627
Rp628
(lp629
F-12.43119295048254
aF2.3189694253481896
aF0.0
abag3
(g13
g5
Ntp630
Rp631
(lp632
F0.0
aF0.0
aF0.7527976636710092
aF0.6582519863786741
ababag3
(g4
g5
Ntp633
Rp634
(lp635
g3
(g9
g5
Ntp636
Rp637
(lp638
F-12.42561305235762
aF2.3386994186528907
aF0.0
abag3
(g13
g5
Ntp639
Rp640
(lp641
F0.0
aF0.0
aF0.5626237274021966
aF0.8267130949513615
ababaaa(lp642
I3
aF28.12000000000012
a(lp643
g3
(g4
g5
Ntp644
Rp645
(lp646
g3
(g9
g5
Ntp647
Rp648
(lp649
F-1.2062278029368678
aF-0.14910454782157492
aF0.0
abag3
(g13
g5
Ntp650
Rp651
(lp652
F0.0
aF0.0
aF-0.563450028314636
aF0.8261501471235334
ababag3
(g4
g5
Ntp653
Rp654
(lp655
g3
(g9
g5
Ntp656
Rp657
(lp658
F-1.2062278029368678
aF-0.14910454782157492
aF0.0
abag3
(g13
g5
Ntp659
Rp660
(lp661
F0.0
aF0.0
aF-0.563450028314636
aF0.8261501471235334
ababag3
(g4
g5
Ntp662
Rp663
(lp664
g3
(g9
g5
Ntp665
Rp666
(lp667
F-1.2153707553555277
aF-0.1550326923981264
aF0.0
abag3
(g13
g5
Ntp668
Rp669
(lp670
F0.0
aF0.0
aF-0.5041613181031745
aF0.8636094981694387
ababag3
(g4
g5
Ntp671
Rp672
(lp673
g3
(g9
g5
Ntp674
Rp675
(lp676
F-1.2153707553555277
aF-0.1550326923981264
aF0.0
abag3
(g13
g5
Ntp677
Rp678
(lp679
F0.0
aF0.0
aF-0.5041613181031745
aF0.8636094981694387
ababag3
(g4
g5
Ntp680
Rp681
(lp682
g3
(g9
g5
Ntp683
Rp684
(lp685
F-1.2018839147562046
aF-0.1854681858223485
aF0.0
abag3
(g13
g5
Ntp686
Rp687
(lp688
F0.0
aF0.0
aF-0.312903087839075
aF0.9497850586426236
ababag3
(g4
g5
Ntp689
Rp690
(lp691
g3
(g9
g5
Ntp692
Rp693
(lp694
F-1.2018839147562046
aF-0.1854681858223485
aF0.0
abag3
(g13
g5
Ntp695
Rp696
(lp697
F0.0
aF0.0
aF-0.312903087839075
aF0.9497850586426236
ababag3
(g4
g5
Ntp698
Rp699
(lp700
g3
(g9
g5
Ntp701
Rp702
(lp703
F-1.183081469646651
aF-0.19158398010981273
aF0.0
abag3
(g13
g5
Ntp704
Rp705
(lp706
F0.0
aF0.0
aF-0.07606633561862967
aF0.9971027592909139
ababag3
(g4
g5
Ntp707
Rp708
(lp709
g3
(g9
g5
Ntp710
Rp711
(lp712
F-1.170755803604879
aF-0.18411294540899983
aF0.0
abag3
(g13
g5
Ntp713
Rp714
(lp715
F0.0
aF0.0
aF0.1832372822730468
aF0.9830687149864895
ababag3
(g4
g5
Ntp716
Rp717
(lp718
g3
(g9
g5
Ntp719
Rp720
(lp721
F-1.1686632730024697
aF-0.10635791733435737
aF0.0
abag3
(g13
g5
Ntp722
Rp723
(lp724
F0.0
aF0.0
aF0.8398371600063448
aF0.5428384148828058
ababag3
(g4
g5
Ntp725
Rp726
(lp727
g3
(g9
g5
Ntp728
Rp729
(lp730
F-1.453129183567038
aF0.039692903085314604
aF0.0
abag3
(g13
g5
Ntp731
Rp732
(lp733
F0.0
aF0.0
aF0.9970225129079473
aF0.0771110157806398
ababag3
(g4
g5
Ntp734
Rp735
(lp736
g3
(g9
g5
Ntp737
Rp738
(lp739
F-2.530192497274431
aF0.07125398805570632
aF0.0
abag3
(g13
g5
Ntp740
Rp741
(lp742
F0.0
aF0.0
aF0.9999029214464112
aF0.013933688776913818
ababag3
(g4
g5
Ntp743
Rp744
(lp745
g3
(g9
g5
Ntp746
Rp747
(lp748
F-3.5964794997799365
aF0.14054848247539356
aF0.0
abag3
(g13
g5
Ntp749
Rp750
(lp751
F0.0
aF0.0
aF0.9984457461687495
aF0.05573232417124887
ababag3
(g4
g5
Ntp752
Rp753
(lp754
g3
(g9
g5
Ntp755
Rp756
(lp757
F-4.386644580810212
aF0.2490725208945673
aF0.0
abag3
(g13
g5
Ntp758
Rp759
(lp760
F0.0
aF0.0
aF0.9977553586871214
aF0.06696449963326702
ababag3
(g4
g5
Ntp761
Rp762
(lp763
g3
(g9
g5
Ntp764
Rp765
(lp766
F-5.407906223351002
aF0.3941552752769771
aF0.0
abag3
(g13
g5
Ntp767
Rp768
(lp769
F0.0
aF0.0
aF0.9967560242186576
aF0.08048247128297453
ababag3
(g4
g5
Ntp770
Rp771
(lp772
g3
(g9
g5
Ntp773
Rp774
(lp775
F-6.441185542202602
aF0.5151263596669736
aF0.0
abag3
(g13
g5
Ntp776
Rp777
(lp778
F0.0
aF0.0
aF0.9994746397315291
aF0.03241056206748332
ababag3
(g4
g5
Ntp779
Rp780
(lp781
g3
(g9
g5
Ntp782
Rp783
(lp784
F-7.472976737093971
aF0.5900698482488625
aF0.0
abag3
(g13
g5
Ntp785
Rp786
(lp787
F0.0
aF0.0
aF0.9966553194628561
aF0.0817200965882451
ababag3
(g4
g5
Ntp788
Rp789
(lp790
g3
(g9
g5
Ntp791
Rp792
(lp793
F-8.21223795784064
aF0.7943527457247255
aF0.0
abag3
(g13
g5
Ntp794
Rp795
(lp796
F0.0
aF0.0
aF0.9831328936526429
aF0.18289262811327614
ababag3
(g4
g5
Ntp797
Rp798
(lp799
g3
(g9
g5
Ntp800
Rp801
(lp802
F-9.094612359480896
aF1.2847123552743736
aF0.0
abag3
(g13
g5
Ntp803
Rp804
(lp805
F0.0
aF0.0
aF0.9481297258065325
aF0.31788366274791396
ababag3
(g4
g5
Ntp806
Rp807
(lp808
g3
(g9
g5
Ntp809
Rp810
(lp811
F-10.012216219660756
aF1.7482558467880756
aF0.0
abag3
(g13
g5
Ntp812
Rp813
(lp814
F0.0
aF0.0
aF0.9884670696376543
aF0.15143596746463045
ababag3
(g4
g5
Ntp815
Rp816
(lp817
g3
(g9
g5
Ntp818
Rp819
(lp820
F-11.04149875469126
aF1.967469154732998
aF0.0
abag3
(g13
g5
Ntp821
Rp822
(lp823
F0.0
aF0.0
aF0.9966995331043894
aF0.08117906570965268
ababag3
(g4
g5
Ntp824
Rp825
(lp826
g3
(g9
g5
Ntp827
Rp828
(lp829
F-11.771302631772704
aF2.0969473603131488
aF0.0
abag3
(g13
g5
Ntp830
Rp831
(lp832
F0.0
aF0.0
aF0.9938475323567029
aF0.11075686176708198
ababag3
(g4
g5
Ntp833
Rp834
(lp835
g3
(g9
g5
Ntp836
Rp837
(lp838
F-12.198800188100268
aF2.2098273690340173
aF0.0
abag3
(g13
g5
Ntp839
Rp840
(lp841
F0.0
aF0.0
aF0.9881916720948697
aF0.1532227763824473
ababag3
(g4
g5
Ntp842
Rp843
(lp844
g3
(g9
g5
Ntp845
Rp846
(lp847
F-12.198800188100268
aF2.2098273690340173
aF0.0
abag3
(g13
g5
Ntp848
Rp849
(lp850
F0.0
aF0.0
aF0.9881916720948697
aF0.1532227763824473
ababag3
(g4
g5
Ntp851
Rp852
(lp853
g3
(g9
g5
Ntp854
Rp855
(lp856
F-12.198800188100268
aF2.2098273690340173
aF0.0
abag3
(g13
g5
Ntp857
Rp858
(lp859
F0.0
aF0.0
aF0.9881916720948697
aF0.1532227763824473
ababag3
(g4
g5
Ntp860
Rp861
(lp862
g3
(g9
g5
Ntp863
Rp864
(lp865
F-12.366218495310891
aF2.2689428811305077
aF0.0
abag3
(g13
g5
Ntp866
Rp867
(lp868
F0.0
aF0.0
aF0.9559787623718179
aF0.29343586333992533
ababag3
(g4
g5
Ntp869
Rp870
(lp871
g3
(g9
g5
Ntp872
Rp873
(lp874
F-12.366218495310891
aF2.2689428811305077
aF0.0
abag3
(g13
g5
Ntp875
Rp876
(lp877
F0.0
aF0.0
aF0.9559787623718179
aF0.29343586333992533
ababag3
(g4
g5
Ntp878
Rp879
(lp880
g3
(g9
g5
Ntp881
Rp882
(lp883
F-12.370916969097554
aF2.2879728655932134
aF0.0
abag3
(g13
g5
Ntp884
Rp885
(lp886
F0.0
aF0.0
aF0.8486068401657808
aF0.5290240361494447
ababag3
(g4
g5
Ntp887
Rp888
(lp889
g3
(g9
g5
Ntp890
Rp891
(lp892
F-12.364137155942064
aF2.3205875774213736
aF0.0
abag3
(g13
g5
Ntp893
Rp894
(lp895
F0.0
aF0.0
aF0.6785947862917618
aF0.7345128426499009
ababaaa.