(lp0
(lp1
I4
aF54.60500000000002
a(lp2
ccopy_reg
_reconstructor
p3
(cgeometry_msgs.msg._Pose
Pose
p4
c__builtin__
object
p5
Ntp6
Rp7
(lp8
g3
(cgeometry_msgs.msg._Point
Point
p9
g5
Ntp10
Rp11
(lp12
F-5.117722928976764
aF-4.102591309721727
aF0.0
abag3
(cgeometry_msgs.msg._Quaternion
Quaternion
p13
g5
Ntp14
Rp15
(lp16
F0.0
aF0.0
aF-0.7760409688935056
aF0.6306824990427664
ababag3
(g4
g5
Ntp17
Rp18
(lp19
g3
(g9
g5
Ntp20
Rp21
(lp22
F-5.117722928976764
aF-4.102591309721727
aF0.0
abag3
(g13
g5
Ntp23
Rp24
(lp25
F0.0
aF0.0
aF-0.7760409688935056
aF0.6306824990427664
ababag3
(g4
g5
Ntp26
Rp27
(lp28
g3
(g9
g5
Ntp29
Rp30
(lp31
F-5.117616139470146
aF-4.128601945840908
aF0.0
abag3
(g13
g5
Ntp32
Rp33
(lp34
F0.0
aF0.0
aF-0.8422894141734113
aF0.5390255492751819
ababag3
(g4
g5
Ntp35
Rp36
(lp37
g3
(g9
g5
Ntp38
Rp39
(lp40
F-5.117616139470146
aF-4.128601945840908
aF0.0
abag3
(g13
g5
Ntp41
Rp42
(lp43
F0.0
aF0.0
aF-0.8422894141734113
aF0.5390255492751819
ababag3
(g4
g5
Ntp44
Rp45
(lp46
g3
(g9
g5
Ntp47
Rp48
(lp49
F-5.13099612948586
aF-4.158358793992457
aF0.0
abag3
(g13
g5
Ntp50
Rp51
(lp52
F0.0
aF0.0
aF-0.9457112448874858
aF0.3250080634282199
ababag3
(g4
g5
Ntp53
Rp54
(lp55
g3
(g9
g5
Ntp56
Rp57
(lp58
F-5.148392246085108
aF-4.169920155799372
aF0.0
abag3
(g13
g5
Ntp59
Rp60
(lp61
F0.0
aF0.0
aF-0.998822868737524
aF0.04850646232145743
ababag3
(g4
g5
Ntp62
Rp63
(lp64
g3
(g9
g5
Ntp65
Rp66
(lp67
F-5.155632801202306
aF-4.143823234712418
aF0.0
abag3
(g13
g5
Ntp68
Rp69
(lp70
F0.0
aF0.0
aF0.7132957949779657
aF0.7008631170683416
ababag3
(g4
g5
Ntp71
Rp72
(lp73
g3
(g9
g5
Ntp74
Rp75
(lp76
F-4.995416470456808
aF-3.977121440054884
aF0.0
abag3
(g13
g5
Ntp77
Rp78
(lp79
F0.0
aF0.0
aF0.24753378871252943
aF0.968879261541716
ababag3
(g4
g5
Ntp80
Rp81
(lp82
g3
(g9
g5
Ntp83
Rp84
(lp85
F-3.9957060399005098
aF-3.8371819672748138
aF0.0
abag3
(g13
g5
Ntp86
Rp87
(lp88
F0.0
aF0.0
aF-0.003325577591811857
aF0.9999944702515514
ababag3
(g4
g5
Ntp89
Rp90
(lp91
g3
(g9
g5
Ntp92
Rp93
(lp94
F-2.946164944809366
aF-3.8555597478828685
aF0.0
abag3
(g13
g5
Ntp95
Rp96
(lp97
F0.0
aF0.0
aF-0.017002709149458676
aF0.9998554434924976
ababag3
(g4
g5
Ntp98
Rp99
(lp100
g3
(g9
g5
Ntp101
Rp102
(lp103
F-2.1632131819149323
aF-3.875337828916836
aF0.0
abag3
(g13
g5
Ntp104
Rp105
(lp106
F0.0
aF0.0
aF-0.012184572250760561
aF0.9999257653441409
ababag3
(g4
g5
Ntp107
Rp108
(lp109
g3
(g9
g5
Ntp110
Rp111
(lp112
F-1.1094979707603045
aF-3.87838500995239
aF0.0
abag3
(g13
g5
Ntp113
Rp114
(lp115
F0.0
aF0.0
aF0.0016728127440052685
aF0.9999986008477829
ababag3
(g4
g5
Ntp116
Rp117
(lp118
g3
(g9
g5
Ntp119
Rp120
(lp121
F-0.09247439832098758
aF-3.7866846738223234
aF0.0
abag3
(g13
g5
Ntp122
Rp123
(lp124
F0.0
aF0.0
aF0.13018751967521985
aF0.9914893896158518
ababag3
(g4
g5
Ntp125
Rp126
(lp127
g3
(g9
g5
Ntp128
Rp129
(lp130
F0.6885923747708673
aF-3.250959009306446
aF0.0
abag3
(g13
g5
Ntp131
Rp132
(lp133
F0.0
aF0.0
aF0.44426456765897576
aF0.8958956378523022
ababag3
(g4
g5
Ntp134
Rp135
(lp136
g3
(g9
g5
Ntp137
Rp138
(lp139
F1.009840506120848
aF-2.5225675950734727
aF0.0
abag3
(g13
g5
Ntp140
Rp141
(lp142
F0.0
aF0.0
aF0.6382673803364676
aF0.7698147512216319
ababag3
(g4
g5
Ntp143
Rp144
(lp145
g3
(g9
g5
Ntp146
Rp147
(lp148
F1.0769561226563014
aF-1.89182438158563
aF0.0
abag3
(g13
g5
Ntp149
Rp150
(lp151
F0.0
aF0.0
aF0.6658282957543117
aF0.7461050063985021
ababag3
(g4
g5
Ntp152
Rp153
(lp154
g3
(g9
g5
Ntp155
Rp156
(lp157
F1.0769561226563014
aF-1.89182438158563
aF0.0
abag3
(g13
g5
Ntp158
Rp159
(lp160
F0.0
aF0.0
aF0.6658282957543117
aF0.7461050063985021
ababag3
(g4
g5
Ntp161
Rp162
(lp163
g3
(g9
g5
Ntp164
Rp165
(lp166
F1.0769561226563014
aF-1.89182438158563
aF0.0
abag3
(g13
g5
Ntp167
Rp168
(lp169
F0.0
aF0.0
aF0.6658282957543117
aF0.7461050063985021
ababag3
(g4
g5
Ntp170
Rp171
(lp172
g3
(g9
g5
Ntp173
Rp174
(lp175
F1.0769561226563014
aF-1.89182438158563
aF0.0
abag3
(g13
g5
Ntp176
Rp177
(lp178
F0.0
aF0.0
aF0.6658282957543117
aF0.7461050063985021
ababag3
(g4
g5
Ntp179
Rp180
(lp181
g3
(g9
g5
Ntp182
Rp183
(lp184
F1.0769561226563014
aF-1.89182438158563
aF0.0
abag3
(g13
g5
Ntp185
Rp186
(lp187
F0.0
aF0.0
aF0.6658282957543117
aF0.7461050063985021
ababag3
(g4
g5
Ntp188
Rp189
(lp190
g3
(g9
g5
Ntp191
Rp192
(lp193
F1.089678490728073
aF-2.01810243445729
aF0.0
abag3
(g13
g5
Ntp194
Rp195
(lp196
F0.0
aF0.0
aF0.7630088181217072
aF0.6463880749739398
ababag3
(g4
g5
Ntp197
Rp198
(lp199
g3
(g9
g5
Ntp200
Rp201
(lp202
F1.089678490728073
aF-2.01810243445729
aF0.0
abag3
(g13
g5
Ntp203
Rp204
(lp205
F0.0
aF0.0
aF0.7630088181217072
aF0.6463880749739398
ababag3
(g4
g5
Ntp206
Rp207
(lp208
g3
(g9
g5
Ntp209
Rp210
(lp211
F1.089678490728073
aF-2.01810243445729
aF0.0
abag3
(g13
g5
Ntp212
Rp213
(lp214
F0.0
aF0.0
aF0.7630088181217072
aF0.6463880749739398
ababag3
(g4
g5
Ntp215
Rp216
(lp217
g3
(g9
g5
Ntp218
Rp219
(lp220
F1.117293253789328
aF-2.253990450297011
aF0.0
abag3
(g13
g5
Ntp221
Rp222
(lp223
F0.0
aF0.0
aF0.7537671372701346
aF0.6571416154616797
ababag3
(g4
g5
Ntp224
Rp225
(lp226
g3
(g9
g5
Ntp227
Rp228
(lp229
F1.117293253789328
aF-2.253990450297011
aF0.0
abag3
(g13
g5
Ntp230
Rp231
(lp232
F0.0
aF0.0
aF0.7537671372701346
aF0.6571416154616797
ababag3
(g4
g5
Ntp233
Rp234
(lp235
g3
(g9
g5
Ntp236
Rp237
(lp238
F1.117293253789328
aF-2.253990450297011
aF0.0
abag3
(g13
g5
Ntp239
Rp240
(lp241
F0.0
aF0.0
aF0.7537671372701346
aF0.6571416154616797
ababag3
(g4
g5
Ntp242
Rp243
(lp244
g3
(g9
g5
Ntp245
Rp246
(lp247
F1.155924742198218
aF-2.47340240270079
aF0.0
abag3
(g13
g5
Ntp248
Rp249
(lp250
F0.0
aF0.0
aF0.7511527555995825
aF0.6601284251985775
ababag3
(g4
g5
Ntp251
Rp252
(lp253
g3
(g9
g5
Ntp254
Rp255
(lp256
F1.155924742198218
aF-2.47340240270079
aF0.0
abag3
(g13
g5
Ntp257
Rp258
(lp259
F0.0
aF0.0
aF0.7511527555995825
aF0.6601284251985775
ababag3
(g4
g5
Ntp260
Rp261
(lp262
g3
(g9
g5
Ntp263
Rp264
(lp265
F1.155924742198218
aF-2.47340240270079
aF0.0
abag3
(g13
g5
Ntp266
Rp267
(lp268
F0.0
aF0.0
aF0.7511527555995825
aF0.6601284251985775
ababag3
(g4
g5
Ntp269
Rp270
(lp271
g3
(g9
g5
Ntp272
Rp273
(lp274
F1.155924742198218
aF-2.47340240270079
aF0.0
abag3
(g13
g5
Ntp275
Rp276
(lp277
F0.0
aF0.0
aF0.7511527555995825
aF0.6601284251985775
ababag3
(g4
g5
Ntp278
Rp279
(lp280
g3
(g9
g5
Ntp281
Rp282
(lp283
F1.155924742198218
aF-2.47340240270079
aF0.0
abag3
(g13
g5
Ntp284
Rp285
(lp286
F0.0
aF0.0
aF0.7511527555995825
aF0.6601284251985775
ababag3
(g4
g5
Ntp287
Rp288
(lp289
g3
(g9
g5
Ntp290
Rp291
(lp292
F1.155924742198218
aF-2.47340240270079
aF0.0
abag3
(g13
g5
Ntp293
Rp294
(lp295
F0.0
aF0.0
aF0.7511527555995825
aF0.6601284251985775
ababag3
(g4
g5
Ntp296
Rp297
(lp298
g3
(g9
g5
Ntp299
Rp300
(lp301
F1.155924742198218
aF-2.47340240270079
aF0.0
abag3
(g13
g5
Ntp302
Rp303
(lp304
F0.0
aF0.0
aF0.7511527555995825
aF0.6601284251985775
ababag3
(g4
g5
Ntp305
Rp306
(lp307
g3
(g9
g5
Ntp308
Rp309
(lp310
F1.155924742198218
aF-2.47340240270079
aF0.0
abag3
(g13
g5
Ntp311
Rp312
(lp313
F0.0
aF0.0
aF0.7511527555995825
aF0.6601284251985775
ababag3
(g4
g5
Ntp314
Rp315
(lp316
g3
(g9
g5
Ntp317
Rp318
(lp319
F1.155924742198218
aF-2.47340240270079
aF0.0
abag3
(g13
g5
Ntp320
Rp321
(lp322
F0.0
aF0.0
aF0.7511527555995825
aF0.6601284251985775
ababag3
(g4
g5
Ntp323
Rp324
(lp325
g3
(g9
g5
Ntp326
Rp327
(lp328
F1.155924742198218
aF-2.47340240270079
aF0.0
abag3
(g13
g5
Ntp329
Rp330
(lp331
F0.0
aF0.0
aF0.7511527555995825
aF0.6601284251985775
ababag3
(g4
g5
Ntp332
Rp333
(lp334
g3
(g9
g5
Ntp335
Rp336
(lp337
F1.155924742198218
aF-2.47340240270079
aF0.0
abag3
(g13
g5
Ntp338
Rp339
(lp340
F0.0
aF0.0
aF0.7511527555995825
aF0.6601284251985775
ababag3
(g4
g5
Ntp341
Rp342
(lp343
g3
(g9
g5
Ntp344
Rp345
(lp346
F1.155924742198218
aF-2.47340240270079
aF0.0
abag3
(g13
g5
Ntp347
Rp348
(lp349
F0.0
aF0.0
aF0.7511527555995825
aF0.6601284251985775
ababag3
(g4
g5
Ntp350
Rp351
(lp352
g3
(g9
g5
Ntp353
Rp354
(lp355
F1.155924742198218
aF-2.47340240270079
aF0.0
abag3
(g13
g5
Ntp356
Rp357
(lp358
F0.0
aF0.0
aF0.7511527555995825
aF0.6601284251985775
ababag3
(g4
g5
Ntp359
Rp360
(lp361
g3
(g9
g5
Ntp362
Rp363
(lp364
F1.155924742198218
aF-2.47340240270079
aF0.0
abag3
(g13
g5
Ntp365
Rp366
(lp367
F0.0
aF0.0
aF0.7511527555995825
aF0.6601284251985775
ababag3
(g4
g5
Ntp368
Rp369
(lp370
g3
(g9
g5
Ntp371
Rp372
(lp373
F1.155924742198218
aF-2.47340240270079
aF0.0
abag3
(g13
g5
Ntp374
Rp375
(lp376
F0.0
aF0.0
aF0.7511527555995825
aF0.6601284251985775
ababag3
(g4
g5
Ntp377
Rp378
(lp379
g3
(g9
g5
Ntp380
Rp381
(lp382
F1.155924742198218
aF-2.47340240270079
aF0.0
abag3
(g13
g5
Ntp383
Rp384
(lp385
F0.0
aF0.0
aF0.7511527555995825
aF0.6601284251985775
ababag3
(g4
g5
Ntp386
Rp387
(lp388
g3
(g9
g5
Ntp389
Rp390
(lp391
F1.155924742198218
aF-2.47340240270079
aF0.0
abag3
(g13
g5
Ntp392
Rp393
(lp394
F0.0
aF0.0
aF0.7511527555995825
aF0.6601284251985775
ababag3
(g4
g5
Ntp395
Rp396
(lp397
g3
(g9
g5
Ntp398
Rp399
(lp400
F1.155924742198218
aF-2.47340240270079
aF0.0
abag3
(g13
g5
Ntp401
Rp402
(lp403
F0.0
aF0.0
aF0.7511527555995825
aF0.6601284251985775
ababag3
(g4
g5
Ntp404
Rp405
(lp406
g3
(g9
g5
Ntp407
Rp408
(lp409
F1.155924742198218
aF-2.47340240270079
aF0.0
abag3
(g13
g5
Ntp410
Rp411
(lp412
F0.0
aF0.0
aF0.7511527555995825
aF0.6601284251985775
ababag3
(g4
g5
Ntp413
Rp414
(lp415
g3
(g9
g5
Ntp416
Rp417
(lp418
F1.155924742198218
aF-2.47340240270079
aF0.0
abag3
(g13
g5
Ntp419
Rp420
(lp421
F0.0
aF0.0
aF0.7511527555995825
aF0.6601284251985775
ababag3
(g4
g5
Ntp422
Rp423
(lp424
g3
(g9
g5
Ntp425
Rp426
(lp427
F1.155924742198218
aF-2.47340240270079
aF0.0
abag3
(g13
g5
Ntp428
Rp429
(lp430
F0.0
aF0.0
aF0.7511527555995825
aF0.6601284251985775
ababag3
(g4
g5
Ntp431
Rp432
(lp433
g3
(g9
g5
Ntp434
Rp435
(lp436
F1.1566634457621134
aF-2.6358407877501264
aF0.0
abag3
(g13
g5
Ntp437
Rp438
(lp439
F0.0
aF0.0
aF0.5735032462466786
aF0.819203287679268
ababag3
(g4
g5
Ntp440
Rp441
(lp442
g3
(g9
g5
Ntp443
Rp444
(lp445
F1.1566634457621134
aF-2.6358407877501264
aF0.0
abag3
(g13
g5
Ntp446
Rp447
(lp448
F0.0
aF0.0
aF0.5735032462466786
aF0.819203287679268
ababag3
(g4
g5
Ntp449
Rp450
(lp451
g3
(g9
g5
Ntp452
Rp453
(lp454
F1.1566634457621134
aF-2.6358407877501264
aF0.0
abag3
(g13
g5
Ntp455
Rp456
(lp457
F0.0
aF0.0
aF0.5735032462466786
aF0.819203287679268
ababag3
(g4
g5
Ntp458
Rp459
(lp460
g3
(g9
g5
Ntp461
Rp462
(lp463
F1.1566634457621134
aF-2.6358407877501264
aF0.0
abag3
(g13
g5
Ntp464
Rp465
(lp466
F0.0
aF0.0
aF0.5735032462466786
aF0.819203287679268
ababag3
(g4
g5
Ntp467
Rp468
(lp469
g3
(g9
g5
Ntp470
Rp471
(lp472
F1.1506125428082246
aF-2.6186853355520507
aF0.0
abag3
(g13
g5
Ntp473
Rp474
(lp475
F0.0
aF0.0
aF0.33932783037241576
aF0.9406681792931815
ababag3
(g4
g5
Ntp476
Rp477
(lp478
g3
(g9
g5
Ntp479
Rp480
(lp481
F1.1506125428082246
aF-2.6186853355520507
aF0.0
abag3
(g13
g5
Ntp482
Rp483
(lp484
F0.0
aF0.0
aF0.33932783037241576
aF0.9406681792931815
ababag3
(g4
g5
Ntp485
Rp486
(lp487
g3
(g9
g5
Ntp488
Rp489
(lp490
F1.1506125428082246
aF-2.6186853355520507
aF0.0
abag3
(g13
g5
Ntp491
Rp492
(lp493
F0.0
aF0.0
aF0.33932783037241576
aF0.9406681792931815
ababag3
(g4
g5
Ntp494
Rp495
(lp496
g3
(g9
g5
Ntp497
Rp498
(lp499
F1.1506125428082246
aF-2.6186853355520507
aF0.0
abag3
(g13
g5
Ntp500
Rp501
(lp502
F0.0
aF0.0
aF0.33932783037241576
aF0.9406681792931815
ababaaa(lp503
I3
aF38.84299999999999
a(lp504
g3
(g4
g5
Ntp505
Rp506
(lp507
g3
(g9
g5
Ntp508
Rp509
(lp510
F-5.115931298893882
aF-4.094593339656248
aF0.0
abag3
(g13
g5
Ntp511
Rp512
(lp513
F0.0
aF0.0
aF-0.7769448198091845
aF0.6295686991676712
ababag3
(g4
g5
Ntp514
Rp515
(lp516
g3
(g9
g5
Ntp517
Rp518
(lp519
F-5.115931298893882
aF-4.094593339656248
aF0.0
abag3
(g13
g5
Ntp520
Rp521
(lp522
F0.0
aF0.0
aF-0.7769448198091845
aF0.6295686991676712
ababag3
(g4
g5
Ntp523
Rp524
(lp525
g3
(g9
g5
Ntp526
Rp527
(lp528
F-5.11749215775681
aF-4.126356887970938
aF0.0
abag3
(g13
g5
Ntp529
Rp530
(lp531
F0.0
aF0.0
aF-0.9458563425806584
aF0.3245855498939225
ababag3
(g4
g5
Ntp532
Rp533
(lp534
g3
(g9
g5
Ntp535
Rp536
(lp537
F-5.123911168316539
aF-4.129196042331619
aF0.0
abag3
(g13
g5
Ntp538
Rp539
(lp540
F0.0
aF0.0
aF0.9809361250970653
aF0.19433043631802688
ababag3
(g4
g5
Ntp541
Rp542
(lp543
g3
(g9
g5
Ntp544
Rp545
(lp546
F-5.106519975399327
aF-3.97590963478511
aF0.0
abag3
(g13
g5
Ntp547
Rp548
(lp549
F0.0
aF0.0
aF0.5259886056458912
aF0.8504916147327328
ababag3
(g4
g5
Ntp550
Rp551
(lp552
g3
(g9
g5
Ntp553
Rp554
(lp555
F-4.647159374495785
aF-3.6186180909890897
aF0.0
abag3
(g13
g5
Ntp556
Rp557
(lp558
F0.0
aF0.0
aF0.20381630802328832
aF0.9790091483657117
ababag3
(g4
g5
Ntp559
Rp560
(lp561
g3
(g9
g5
Ntp562
Rp563
(lp564
F-3.6380253054034832
aF-3.4831340842931127
aF0.0
abag3
(g13
g5
Ntp565
Rp566
(lp567
F0.0
aF0.0
aF-0.03577785075891193
aF0.9993597677488688
ababag3
(g4
g5
Ntp568
Rp569
(lp570
g3
(g9
g5
Ntp571
Rp572
(lp573
F-2.5785111189296557
aF-3.6194806455784696
aF0.0
abag3
(g13
g5
Ntp574
Rp575
(lp576
F0.0
aF0.0
aF-0.06763192039614237
aF0.9977103404012257
ababag3
(g4
g5
Ntp577
Rp578
(lp579
g3
(g9
g5
Ntp580
Rp581
(lp582
F-1.5337877649542342
aF-3.7338338401026574
aF0.0
abag3
(g13
g5
Ntp583
Rp584
(lp585
F0.0
aF0.0
aF-0.04137483012274249
aF0.9991436950871052
ababag3
(g4
g5
Ntp586
Rp587
(lp588
g3
(g9
g5
Ntp589
Rp590
(lp591
F-0.7466969444898551
aF-3.7853416863491645
aF0.0
abag3
(g13
g5
Ntp592
Rp593
(lp594
F0.0
aF0.0
aF-0.020200846624099537
aF0.999795942078017
ababag3
(g4
g5
Ntp595
Rp596
(lp597
g3
(g9
g5
Ntp598
Rp599
(lp600
F0.24755074888835435
aF-3.6859703360863367
aF0.0
abag3
(g13
g5
Ntp601
Rp602
(lp603
F0.0
aF0.0
aF0.19618555485388722
aF0.9805667891921858
ababag3
(g4
g5
Ntp604
Rp605
(lp606
g3
(g9
g5
Ntp607
Rp608
(lp609
F0.8745108626218153
aF-3.072555916069829
aF0.0
abag3
(g13
g5
Ntp610
Rp611
(lp612
F0.0
aF0.0
aF0.5197355253935362
aF0.8543272111105352
ababag3
(g4
g5
Ntp613
Rp614
(lp615
g3
(g9
g5
Ntp616
Rp617
(lp618
F1.0298825938199923
aF-2.3781148080306087
aF0.0
abag3
(g13
g5
Ntp619
Rp620
(lp621
F0.0
aF0.0
aF0.7339460584540973
aF0.6792077614984201
ababag3
(g4
g5
Ntp622
Rp623
(lp624
g3
(g9
g5
Ntp625
Rp626
(lp627
F0.9778631191817229
aF-1.647318135622117
aF0.0
abag3
(g13
g5
Ntp628
Rp629
(lp630
F0.0
aF0.0
aF0.6990232427187727
aF0.7150989484951937
ababag3
(g4
g5
Ntp631
Rp632
(lp633
g3
(g9
g5
Ntp634
Rp635
(lp636
F1.156008429253884
aF-0.6340392998068616
aF0.0
abag3
(g13
g5
Ntp637
Rp638
(lp639
F0.0
aF0.0
aF0.5810628884896093
aF0.8138586607145689
ababag3
(g4
g5
Ntp640
Rp641
(lp642
g3
(g9
g5
Ntp643
Rp644
(lp645
F1.658055035348878
aF0.26921582892769774
aF0.0
abag3
(g13
g5
Ntp646
Rp647
(lp648
F0.0
aF0.0
aF0.34823260987371857
aF0.9374081551920372
ababag3
(g4
g5
Ntp649
Rp650
(lp651
g3
(g9
g5
Ntp652
Rp653
(lp654
F2.443534792850889
aF0.6340757006344881
aF0.0
abag3
(g13
g5
Ntp655
Rp656
(lp657
F0.0
aF0.0
aF0.11352857205786773
aF0.9935347318169111
ababag3
(g4
g5
Ntp658
Rp659
(lp660
g3
(g9
g5
Ntp661
Rp662
(lp663
F3.467620519314223
aF0.6695988131668343
aF0.0
abag3
(g13
g5
Ntp664
Rp665
(lp666
F0.0
aF0.0
aF-0.0605793310612718
aF0.9981633857481294
ababag3
(g4
g5
Ntp667
Rp668
(lp669
g3
(g9
g5
Ntp670
Rp671
(lp672
F4.251315045770705
aF0.5585597221021117
aF0.0
abag3
(g13
g5
Ntp673
Rp674
(lp675
F0.0
aF0.0
aF-0.09699185820237051
aF0.9952851749335219
ababag3
(g4
g5
Ntp676
Rp677
(lp678
g3
(g9
g5
Ntp679
Rp680
(lp681
F5.190823775483589
aF0.16616271924553708
aF0.0
abag3
(g13
g5
Ntp682
Rp683
(lp684
F0.0
aF0.0
aF-0.256248409632139
aF0.9666109623633489
ababag3
(g4
g5
Ntp685
Rp686
(lp687
g3
(g9
g5
Ntp688
Rp689
(lp690
F6.14240767283043
aF-0.19566475326327326
aF0.0
abag3
(g13
g5
Ntp691
Rp692
(lp693
F0.0
aF0.0
aF-0.12903500145057975
aF0.9916400397324873
ababag3
(g4
g5
Ntp694
Rp695
(lp696
g3
(g9
g5
Ntp697
Rp698
(lp699
F7.181951021411407
aF-0.3346956958974022
aF0.0
abag3
(g13
g5
Ntp700
Rp701
(lp702
F0.0
aF0.0
aF-0.007618663472292285
aF0.999970977562297
ababag3
(g4
g5
Ntp703
Rp704
(lp705
g3
(g9
g5
Ntp706
Rp707
(lp708
F7.984525816166155
aF-0.33834776975717196
aF0.0
abag3
(g13
g5
Ntp709
Rp710
(lp711
F0.0
aF0.0
aF-0.008128970102574124
aF0.9999669593766943
ababag3
(g4
g5
Ntp712
Rp713
(lp714
g3
(g9
g5
Ntp715
Rp716
(lp717
F9.02522097524614
aF-0.43172331267551856
aF0.0
abag3
(g13
g5
Ntp718
Rp719
(lp720
F0.0
aF0.0
aF-0.1006353562656962
aF0.9949233764814637
ababag3
(g4
g5
Ntp721
Rp722
(lp723
g3
(g9
g5
Ntp724
Rp725
(lp726
F9.92749466288629
aF-0.9454557273716512
aF0.0
abag3
(g13
g5
Ntp727
Rp728
(lp729
F0.0
aF0.0
aF-0.40708446984980223
aF0.9133905158294044
ababag3
(g4
g5
Ntp730
Rp731
(lp732
g3
(g9
g5
Ntp733
Rp734
(lp735
F10.379581090591895
aF-1.7309755649429739
aF0.0
abag3
(g13
g5
Ntp736
Rp737
(lp738
F0.0
aF0.0
aF-0.5593938781099504
aF0.828901978000481
ababag3
(g4
g5
Ntp739
Rp740
(lp741
g3
(g9
g5
Ntp742
Rp743
(lp744
F10.595248850336453
aF-2.739505843621597
aF0.0
abag3
(g13
g5
Ntp745
Rp746
(lp747
F0.0
aF0.0
aF-0.7120654852916848
aF0.7021130568906387
ababag3
(g4
g5
Ntp748
Rp749
(lp750
g3
(g9
g5
Ntp751
Rp752
(lp753
F10.460344666390954
aF-3.4504331339541174
aF0.0
abag3
(g13
g5
Ntp754
Rp755
(lp756
F0.0
aF0.0
aF-0.8512764883027834
aF0.5247173910429129
ababag3
(g4
g5
Ntp757
Rp758
(lp759
g3
(g9
g5
Ntp760
Rp761
(lp762
F9.810354384323531
aF-3.9989341569499435
aF0.0
abag3
(g13
g5
Ntp763
Rp764
(lp765
F0.0
aF0.0
aF-0.9827529873717247
aF0.18492313487487394
ababag3
(g4
g5
Ntp766
Rp767
(lp768
g3
(g9
g5
Ntp769
Rp770
(lp771
F8.82609140854832
aF-4.074545764071311
aF0.0
abag3
(g13
g5
Ntp772
Rp773
(lp774
F0.0
aF0.0
aF0.9979025986017764
aF0.0647333276127681
ababag3
(g4
g5
Ntp775
Rp776
(lp777
g3
(g9
g5
Ntp778
Rp779
(lp780
F7.764458222540049
aF-3.9379627401920283
aF0.0
abag3
(g13
g5
Ntp781
Rp782
(lp783
F0.0
aF0.0
aF0.999040511829756
aF0.04379561305586744
ababag3
(g4
g5
Ntp784
Rp785
(lp786
g3
(g9
g5
Ntp787
Rp788
(lp789
F6.704567570571153
aF-3.9273683900485783
aF0.0
abag3
(g13
g5
Ntp790
Rp791
(lp792
F0.0
aF0.0
aF-0.9996544822108995
aF0.026285284774157473
ababag3
(g4
g5
Ntp793
Rp794
(lp795
g3
(g9
g5
Ntp796
Rp797
(lp798
F5.903379007499976
aF-3.996900735097332
aF0.0
abag3
(g13
g5
Ntp799
Rp800
(lp801
F0.0
aF0.0
aF-0.9980642092055478
aF0.06219191509275411
ababag3
(g4
g5
Ntp802
Rp803
(lp804
g3
(g9
g5
Ntp805
Rp806
(lp807
F5.208297566534157
aF-4.129772275717769
aF0.0
abag3
(g13
g5
Ntp808
Rp809
(lp810
F0.0
aF0.0
aF-0.9904488459223393
aF0.13788068614242577
ababag3
(g4
g5
Ntp811
Rp812
(lp813
g3
(g9
g5
Ntp814
Rp815
(lp816
F4.996995710044819
aF-4.204466609429861
aF0.0
abag3
(g13
g5
Ntp817
Rp818
(lp819
F0.0
aF0.0
aF-0.9787589548852591
aF0.20501440981529898
ababag3
(g4
g5
Ntp820
Rp821
(lp822
g3
(g9
g5
Ntp823
Rp824
(lp825
F4.996995710044819
aF-4.204466609429861
aF0.0
abag3
(g13
g5
Ntp826
Rp827
(lp828
F0.0
aF0.0
aF-0.9787589548852591
aF0.20501440981529898
ababag3
(g4
g5
Ntp829
Rp830
(lp831
g3
(g9
g5
Ntp832
Rp833
(lp834
F4.996995710044819
aF-4.204466609429861
aF0.0
abag3
(g13
g5
Ntp835
Rp836
(lp837
F0.0
aF0.0
aF-0.9787589548852591
aF0.20501440981529898
ababag3
(g4
g5
Ntp838
Rp839
(lp840
g3
(g9
g5
Ntp841
Rp842
(lp843
F4.853436289456302
aF-4.267798879681692
aF0.0
abag3
(g13
g5
Ntp844
Rp845
(lp846
F0.0
aF0.0
aF-0.9451824497504373
aF0.3265427026956229
ababag3
(g4
g5
Ntp847
Rp848
(lp849
g3
(g9
g5
Ntp850
Rp851
(lp852
F4.853436289456302
aF-4.267798879681692
aF0.0
abag3
(g13
g5
Ntp853
Rp854
(lp855
F0.0
aF0.0
aF-0.9451824497504373
aF0.3265427026956229
ababaaa(lp856
I4
aF84.75999999999999
a(lp857
g3
(g4
g5
Ntp858
Rp859
(lp860
g3
(g9
g5
Ntp861
Rp862
(lp863
F-5.114602056249498
aF-4.088187574585299
aF0.0
abag3
(g13
g5
Ntp864
Rp865
(lp866
F0.0
aF0.0
aF-0.7257220299764592
aF0.6879880342032464
ababag3
(g4
g5
Ntp867
Rp868
(lp869
g3
(g9
g5
Ntp870
Rp871
(lp872
F-5.114602056249498
aF-4.088187574585299
aF0.0
abag3
(g13
g5
Ntp873
Rp874
(lp875
F0.0
aF0.0
aF-0.7257220299764592
aF0.6879880342032464
ababag3
(g4
g5
Ntp876
Rp877
(lp878
g3
(g9
g5
Ntp879
Rp880
(lp881
F-5.114602056249498
aF-4.088187574585299
aF0.0
abag3
(g13
g5
Ntp882
Rp883
(lp884
F0.0
aF0.0
aF-0.7257220299764592
aF0.6879880342032464
ababag3
(g4
g5
Ntp885
Rp886
(lp887
g3
(g9
g5
Ntp888
Rp889
(lp890
F-5.102662631719355
aF-4.0964611100815
aF0.0
abag3
(g13
g5
Ntp891
Rp892
(lp893
F0.0
aF0.0
aF-0.795836904596526
aF0.6055110414205672
ababag3
(g4
g5
Ntp894
Rp895
(lp896
g3
(g9
g5
Ntp897
Rp898
(lp899
F-5.102662631719355
aF-4.0964611100815
aF0.0
abag3
(g13
g5
Ntp900
Rp901
(lp902
F0.0
aF0.0
aF-0.795836904596526
aF0.6055110414205672
ababag3
(g4
g5
Ntp903
Rp904
(lp905
g3
(g9
g5
Ntp906
Rp907
(lp908
F-5.102662631719355
aF-4.0964611100815
aF0.0
abag3
(g13
g5
Ntp909
Rp910
(lp911
F0.0
aF0.0
aF-0.795836904596526
aF0.6055110414205672
ababag3
(g4
g5
Ntp912
Rp913
(lp914
g3
(g9
g5
Ntp915
Rp916
(lp917
F-5.102662631719355
aF-4.0964611100815
aF0.0
abag3
(g13
g5
Ntp918
Rp919
(lp920
F0.0
aF0.0
aF-0.795836904596526
aF0.6055110414205672
ababag3
(g4
g5
Ntp921
Rp922
(lp923
g3
(g9
g5
Ntp924
Rp925
(lp926
F-5.102662631719355
aF-4.0964611100815
aF0.0
abag3
(g13
g5
Ntp927
Rp928
(lp929
F0.0
aF0.0
aF-0.795836904596526
aF0.6055110414205672
ababag3
(g4
g5
Ntp930
Rp931
(lp932
g3
(g9
g5
Ntp933
Rp934
(lp935
F-5.102662631719355
aF-4.0964611100815
aF0.0
abag3
(g13
g5
Ntp936
Rp937
(lp938
F0.0
aF0.0
aF-0.795836904596526
aF0.6055110414205672
ababag3
(g4
g5
Ntp939
Rp940
(lp941
g3
(g9
g5
Ntp942
Rp943
(lp944
F-5.102662631719355
aF-4.0964611100815
aF0.0
abag3
(g13
g5
Ntp945
Rp946
(lp947
F0.0
aF0.0
aF-0.795836904596526
aF0.6055110414205672
ababag3
(g4
g5
Ntp948
Rp949
(lp950
g3
(g9
g5
Ntp951
Rp952
(lp953
F-5.102662631719355
aF-4.0964611100815
aF0.0
abag3
(g13
g5
Ntp954
Rp955
(lp956
F0.0
aF0.0
aF-0.795836904596526
aF0.6055110414205672
ababag3
(g4
g5
Ntp957
Rp958
(lp959
g3
(g9
g5
Ntp960
Rp961
(lp962
F-5.102662631719355
aF-4.0964611100815
aF0.0
abag3
(g13
g5
Ntp963
Rp964
(lp965
F0.0
aF0.0
aF-0.795836904596526
aF0.6055110414205672
ababag3
(g4
g5
Ntp966
Rp967
(lp968
g3
(g9
g5
Ntp969
Rp970
(lp971
F-5.102662631719355
aF-4.0964611100815
aF0.0
abag3
(g13
g5
Ntp972
Rp973
(lp974
F0.0
aF0.0
aF-0.795836904596526
aF0.6055110414205672
ababag3
(g4
g5
Ntp975
Rp976
(lp977
g3
(g9
g5
Ntp978
Rp979
(lp980
F-5.102662631719355
aF-4.0964611100815
aF0.0
abag3
(g13
g5
Ntp981
Rp982
(lp983
F0.0
aF0.0
aF-0.795836904596526
aF0.6055110414205672
ababag3
(g4
g5
Ntp984
Rp985
(lp986
g3
(g9
g5
Ntp987
Rp988
(lp989
F-5.102662631719355
aF-4.0964611100815
aF0.0
abag3
(g13
g5
Ntp990
Rp991
(lp992
F0.0
aF0.0
aF-0.795836904596526
aF0.6055110414205672
ababag3
(g4
g5
Ntp993
Rp994
(lp995
g3
(g9
g5
Ntp996
Rp997
(lp998
F-5.102662631719355
aF-4.0964611100815
aF0.0
abag3
(g13
g5
Ntp999
Rp1000
(lp1001
F0.0
aF0.0
aF-0.795836904596526
aF0.6055110414205672
ababag3
(g4
g5
Ntp1002
Rp1003
(lp1004
g3
(g9
g5
Ntp1005
Rp1006
(lp1007
F-5.102662631719355
aF-4.0964611100815
aF0.0
abag3
(g13
g5
Ntp1008
Rp1009
(lp1010
F0.0
aF0.0
aF-0.795836904596526
aF0.6055110414205672
ababag3
(g4
g5
Ntp1011
Rp1012
(lp1013
g3
(g9
g5
Ntp1014
Rp1015
(lp1016
F-5.102662631719355
aF-4.0964611100815
aF0.0
abag3
(g13
g5
Ntp1017
Rp1018
(lp1019
F0.0
aF0.0
aF-0.795836904596526
aF0.6055110414205672
ababag3
(g4
g5
Ntp1020
Rp1021
(lp1022
g3
(g9
g5
Ntp1023
Rp1024
(lp1025
F-5.102662631719355
aF-4.0964611100815
aF0.0
abag3
(g13
g5
Ntp1026
Rp1027
(lp1028
F0.0
aF0.0
aF-0.795836904596526
aF0.6055110414205672
ababag3
(g4
g5
Ntp1029
Rp1030
(lp1031
g3
(g9
g5
Ntp1032
Rp1033
(lp1034
F-5.102662631719355
aF-4.0964611100815
aF0.0
abag3
(g13
g5
Ntp1035
Rp1036
(lp1037
F0.0
aF0.0
aF-0.795836904596526
aF0.6055110414205672
ababag3
(g4
g5
Ntp1038
Rp1039
(lp1040
g3
(g9
g5
Ntp1041
Rp1042
(lp1043
F-5.102662631719355
aF-4.0964611100815
aF0.0
abag3
(g13
g5
Ntp1044
Rp1045
(lp1046
F0.0
aF0.0
aF-0.795836904596526
aF0.6055110414205672
ababag3
(g4
g5
Ntp1047
Rp1048
(lp1049
g3
(g9
g5
Ntp1050
Rp1051
(lp1052
F-5.105710578230741
aF-4.111853288813064
aF0.0
abag3
(g13
g5
Ntp1053
Rp1054
(lp1055
F0.0
aF0.0
aF-0.9202798699443454
aF0.3912607327284694
ababag3
(g4
g5
Ntp1056
Rp1057
(lp1058
g3
(g9
g5
Ntp1059
Rp1060
(lp1061
F-5.1055545484859
aF-4.112539483199399
aF0.0
abag3
(g13
g5
Ntp1062
Rp1063
(lp1064
F0.0
aF0.0
aF0.9791824458348105
aF0.2029821119432902
ababag3
(g4
g5
Ntp1065
Rp1066
(lp1067
g3
(g9
g5
Ntp1068
Rp1069
(lp1070
F-5.102838183112297
aF-4.092207110574865
aF0.0
abag3
(g13
g5
Ntp1071
Rp1072
(lp1073
F0.0
aF0.0
aF0.697533213718848
aF0.7165524515058587
ababag3
(g4
g5
Ntp1074
Rp1075
(lp1076
g3
(g9
g5
Ntp1077
Rp1078
(lp1079
F-4.899154055789358
aF-3.938669014469165
aF0.0
abag3
(g13
g5
Ntp1080
Rp1081
(lp1082
F0.0
aF0.0
aF0.2303676027176722
aF0.9731036777333198
ababag3
(g4
g5
Ntp1083
Rp1084
(lp1085
g3
(g9
g5
Ntp1086
Rp1087
(lp1088
F-4.1664111077898385
aF-3.7294914651948226
aF0.0
abag3
(g13
g5
Ntp1089
Rp1090
(lp1091
F0.0
aF0.0
aF0.09682094437718107
aF0.9953018158980274
ababag3
(g4
g5
Ntp1092
Rp1093
(lp1094
g3
(g9
g5
Ntp1095
Rp1096
(lp1097
F-3.1572731634008275
aF-3.636038799559163
aF0.0
abag3
(g13
g5
Ntp1098
Rp1099
(lp1100
F0.0
aF0.0
aF0.001657807870738452
aF0.9999986258355877
ababag3
(g4
g5
Ntp1101
Rp1102
(lp1103
g3
(g9
g5
Ntp1104
Rp1105
(lp1106
F-2.1380037647723085
aF-3.6772274274645125
aF0.0
abag3
(g13
g5
Ntp1107
Rp1108
(lp1109
F0.0
aF0.0
aF-0.05037922387679972
aF0.9987301606548044
ababag3
(g4
g5
Ntp1110
Rp1111
(lp1112
g3
(g9
g5
Ntp1113
Rp1114
(lp1115
F-1.1092176239079035
aF-3.7395359610579013
aF0.0
abag3
(g13
g5
Ntp1116
Rp1117
(lp1118
F0.0
aF0.0
aF-0.004132470221738963
aF0.9999914613084786
ababag3
(g4
g5
Ntp1119
Rp1120
(lp1121
g3
(g9
g5
Ntp1122
Rp1123
(lp1124
F-0.3556619282953526
aF-3.657716550714422
aF0.0
abag3
(g13
g5
Ntp1125
Rp1126
(lp1127
F0.0
aF0.0
aF0.1466427625638282
aF0.9891895168205377
ababag3
(g4
g5
Ntp1128
Rp1129
(lp1130
g3
(g9
g5
Ntp1131
Rp1132
(lp1133
F0.4792772303659831
aF-3.170251236388111
aF0.0
abag3
(g13
g5
Ntp1134
Rp1135
(lp1136
F0.0
aF0.0
aF0.36521039923638765
aF0.9309250046537575
ababag3
(g4
g5
Ntp1137
Rp1138
(lp1139
g3
(g9
g5
Ntp1140
Rp1141
(lp1142
F0.8954883385351528
aF-2.404424957664675
aF0.0
abag3
(g13
g5
Ntp1143
Rp1144
(lp1145
F0.0
aF0.0
aF0.6115587536104021
aF0.7911990210323137
ababag3
(g4
g5
Ntp1146
Rp1147
(lp1148
g3
(g9
g5
Ntp1149
Rp1150
(lp1151
F1.0073999887557945
aF-1.3996020178531965
aF0.0
abag3
(g13
g5
Ntp1152
Rp1153
(lp1154
F0.0
aF0.0
aF0.6759500750566799
aF0.7369474174124425
ababag3
(g4
g5
Ntp1155
Rp1156
(lp1157
g3
(g9
g5
Ntp1158
Rp1159
(lp1160
F1.1399641913432488
aF-0.4049372222746539
aF0.0
abag3
(g13
g5
Ntp1161
Rp1162
(lp1163
F0.0
aF0.0
aF0.635790659053465
aF0.7718615406019144
ababag3
(g4
g5
Ntp1164
Rp1165
(lp1166
g3
(g9
g5
Ntp1167
Rp1168
(lp1169
F1.3164946973611529
aF0.10075028148830094
aF0.0
abag3
(g13
g5
Ntp1170
Rp1171
(lp1172
F0.0
aF0.0
aF0.49545218013810227
aF0.8686352152638077
ababag3
(g4
g5
Ntp1173
Rp1174
(lp1175
g3
(g9
g5
Ntp1176
Rp1177
(lp1178
F2.114330824847185
aF0.7106872820130413
aF0.0
abag3
(g13
g5
Ntp1179
Rp1180
(lp1181
F0.0
aF0.0
aF0.17953201898110005
aF0.9837521304477922
ababag3
(g4
g5
Ntp1182
Rp1183
(lp1184
g3
(g9
g5
Ntp1185
Rp1186
(lp1187
F3.0634629797298683
aF0.8879201315214115
aF0.0
abag3
(g13
g5
Ntp1188
Rp1189
(lp1190
F0.0
aF0.0
aF0.04592496820783625
aF0.9989448920211311
ababag3
(g4
g5
Ntp1191
Rp1192
(lp1193
g3
(g9
g5
Ntp1194
Rp1195
(lp1196
F3.2981581700133944
aF0.9198785351320863
aF0.0
abag3
(g13
g5
Ntp1197
Rp1198
(lp1199
F0.0
aF0.0
aF0.08283792959178024
aF0.9965630323371157
ababag3
(g4
g5
Ntp1200
Rp1201
(lp1202
g3
(g9
g5
Ntp1203
Rp1204
(lp1205
F3.2981581700133944
aF0.9198785351320863
aF0.0
abag3
(g13
g5
Ntp1206
Rp1207
(lp1208
F0.0
aF0.0
aF0.08283792959178024
aF0.9965630323371157
ababag3
(g4
g5
Ntp1209
Rp1210
(lp1211
g3
(g9
g5
Ntp1212
Rp1213
(lp1214
F3.2981581700133944
aF0.9198785351320863
aF0.0
abag3
(g13
g5
Ntp1215
Rp1216
(lp1217
F0.0
aF0.0
aF0.08283792959178024
aF0.9965630323371157
ababag3
(g4
g5
Ntp1218
Rp1219
(lp1220
g3
(g9
g5
Ntp1221
Rp1222
(lp1223
F3.3061821426148996
aF0.9026216414807698
aF0.0
abag3
(g13
g5
Ntp1224
Rp1225
(lp1226
F0.0
aF0.0
aF0.17706451436577003
aF0.9841992469781787
ababag3
(g4
g5
Ntp1227
Rp1228
(lp1229
g3
(g9
g5
Ntp1230
Rp1231
(lp1232
F3.3061821426148996
aF0.9026216414807698
aF0.0
abag3
(g13
g5
Ntp1233
Rp1234
(lp1235
F0.0
aF0.0
aF0.17706451436577003
aF0.9841992469781787
ababag3
(g4
g5
Ntp1236
Rp1237
(lp1238
g3
(g9
g5
Ntp1239
Rp1240
(lp1241
F3.6495475493685445
aF0.8406883628555039
aF0.0
abag3
(g13
g5
Ntp1242
Rp1243
(lp1244
F0.0
aF0.0
aF-0.08245745688434318
aF0.9965945854780502
ababag3
(g4
g5
Ntp1245
Rp1246
(lp1247
g3
(g9
g5
Ntp1248
Rp1249
(lp1250
F4.630503002541815
aF0.6563981271676274
aF0.0
abag3
(g13
g5
Ntp1251
Rp1252
(lp1253
F0.0
aF0.0
aF-0.12362408016953383
aF0.9923291222181463
ababag3
(g4
g5
Ntp1254
Rp1255
(lp1256
g3
(g9
g5
Ntp1257
Rp1258
(lp1259
F5.635823328520431
aF0.37933175754636106
aF0.0
abag3
(g13
g5
Ntp1260
Rp1261
(lp1262
F0.0
aF0.0
aF-0.1211117231701931
aF0.9926388822279463
ababag3
(g4
g5
Ntp1263
Rp1264
(lp1265
g3
(g9
g5
Ntp1266
Rp1267
(lp1268
F5.876878474743578
aF0.3311667347791246
aF0.0
abag3
(g13
g5
Ntp1269
Rp1270
(lp1271
F0.0
aF0.0
aF-0.07773773324769204
aF0.9969738436034873
ababag3
(g4
g5
Ntp1272
Rp1273
(lp1274
g3
(g9
g5
Ntp1275
Rp1276
(lp1277
F5.876878474743578
aF0.3311667347791246
aF0.0
abag3
(g13
g5
Ntp1278
Rp1279
(lp1280
F0.0
aF0.0
aF-0.07773773324769204
aF0.9969738436034873
ababag3
(g4
g5
Ntp1281
Rp1282
(lp1283
g3
(g9
g5
Ntp1284
Rp1285
(lp1286
F5.876878474743578
aF0.3311667347791246
aF0.0
abag3
(g13
g5
Ntp1287
Rp1288
(lp1289
F0.0
aF0.0
aF-0.07773773324769204
aF0.9969738436034873
ababag3
(g4
g5
Ntp1290
Rp1291
(lp1292
g3
(g9
g5
Ntp1293
Rp1294
(lp1295
F5.876878474743578
aF0.3311667347791246
aF0.0
abag3
(g13
g5
Ntp1296
Rp1297
(lp1298
F0.0
aF0.0
aF-0.07773773324769204
aF0.9969738436034873
ababag3
(g4
g5
Ntp1299
Rp1300
(lp1301
g3
(g9
g5
Ntp1302
Rp1303
(lp1304
F5.876878474743578
aF0.3311667347791246
aF0.0
abag3
(g13
g5
Ntp1305
Rp1306
(lp1307
F0.0
aF0.0
aF-0.07773773324769204
aF0.9969738436034873
ababag3
(g4
g5
Ntp1308
Rp1309
(lp1310
g3
(g9
g5
Ntp1311
Rp1312
(lp1313
F5.876878474743578
aF0.3311667347791246
aF0.0
abag3
(g13
g5
Ntp1314
Rp1315
(lp1316
F0.0
aF0.0
aF-0.07773773324769204
aF0.9969738436034873
ababag3
(g4
g5
Ntp1317
Rp1318
(lp1319
g3
(g9
g5
Ntp1320
Rp1321
(lp1322
F5.876878474743578
aF0.3311667347791246
aF0.0
abag3
(g13
g5
Ntp1323
Rp1324
(lp1325
F0.0
aF0.0
aF-0.07773773324769204
aF0.9969738436034873
ababag3
(g4
g5
Ntp1326
Rp1327
(lp1328
g3
(g9
g5
Ntp1329
Rp1330
(lp1331
F5.876878474743578
aF0.3311667347791246
aF0.0
abag3
(g13
g5
Ntp1332
Rp1333
(lp1334
F0.0
aF0.0
aF-0.07773773324769204
aF0.9969738436034873
ababag3
(g4
g5
Ntp1335
Rp1336
(lp1337
g3
(g9
g5
Ntp1338
Rp1339
(lp1340
F5.876878474743578
aF0.3311667347791246
aF0.0
abag3
(g13
g5
Ntp1341
Rp1342
(lp1343
F0.0
aF0.0
aF-0.07773773324769204
aF0.9969738436034873
ababag3
(g4
g5
Ntp1344
Rp1345
(lp1346
g3
(g9
g5
Ntp1347
Rp1348
(lp1349
F5.876878474743578
aF0.3311667347791246
aF0.0
abag3
(g13
g5
Ntp1350
Rp1351
(lp1352
F0.0
aF0.0
aF-0.07773773324769204
aF0.9969738436034873
ababag3
(g4
g5
Ntp1353
Rp1354
(lp1355
g3
(g9
g5
Ntp1356
Rp1357
(lp1358
F5.876878474743578
aF0.3311667347791246
aF0.0
abag3
(g13
g5
Ntp1359
Rp1360
(lp1361
F0.0
aF0.0
aF-0.07773773324769204
aF0.9969738436034873
ababag3
(g4
g5
Ntp1362
Rp1363
(lp1364
g3
(g9
g5
Ntp1365
Rp1366
(lp1367
F5.876878474743578
aF0.3311667347791246
aF0.0
abag3
(g13
g5
Ntp1368
Rp1369
(lp1370
F0.0
aF0.0
aF-0.07773773324769204
aF0.9969738436034873
ababag3
(g4
g5
Ntp1371
Rp1372
(lp1373
g3
(g9
g5
Ntp1374
Rp1375
(lp1376
F5.876878474743578
aF0.3311667347791246
aF0.0
abag3
(g13
g5
Ntp1377
Rp1378
(lp1379
F0.0
aF0.0
aF-0.07773773324769204
aF0.9969738436034873
ababag3
(g4
g5
Ntp1380
Rp1381
(lp1382
g3
(g9
g5
Ntp1383
Rp1384
(lp1385
F5.876878474743578
aF0.3311667347791246
aF0.0
abag3
(g13
g5
Ntp1386
Rp1387
(lp1388
F0.0
aF0.0
aF-0.07773773324769204
aF0.9969738436034873
ababag3
(g4
g5
Ntp1389
Rp1390
(lp1391
g3
(g9
g5
Ntp1392
Rp1393
(lp1394
F5.876878474743578
aF0.3311667347791246
aF0.0
abag3
(g13
g5
Ntp1395
Rp1396
(lp1397
F0.0
aF0.0
aF-0.07773773324769204
aF0.9969738436034873
ababag3
(g4
g5
Ntp1398
Rp1399
(lp1400
g3
(g9
g5
Ntp1401
Rp1402
(lp1403
F5.876878474743578
aF0.3311667347791246
aF0.0
abag3
(g13
g5
Ntp1404
Rp1405
(lp1406
F0.0
aF0.0
aF-0.07773773324769204
aF0.9969738436034873
ababag3
(g4
g5
Ntp1407
Rp1408
(lp1409
g3
(g9
g5
Ntp1410
Rp1411
(lp1412
F5.876878474743578
aF0.3311667347791246
aF0.0
abag3
(g13
g5
Ntp1413
Rp1414
(lp1415
F0.0
aF0.0
aF-0.07773773324769204
aF0.9969738436034873
ababag3
(g4
g5
Ntp1416
Rp1417
(lp1418
g3
(g9
g5
Ntp1419
Rp1420
(lp1421
F5.876878474743578
aF0.3311667347791246
aF0.0
abag3
(g13
g5
Ntp1422
Rp1423
(lp1424
F0.0
aF0.0
aF-0.07773773324769204
aF0.9969738436034873
ababag3
(g4
g5
Ntp1425
Rp1426
(lp1427
g3
(g9
g5
Ntp1428
Rp1429
(lp1430
F5.876878474743578
aF0.3311667347791246
aF0.0
abag3
(g13
g5
Ntp1431
Rp1432
(lp1433
F0.0
aF0.0
aF-0.07773773324769204
aF0.9969738436034873
ababag3
(g4
g5
Ntp1434
Rp1435
(lp1436
g3
(g9
g5
Ntp1437
Rp1438
(lp1439
F5.876878474743578
aF0.3311667347791246
aF0.0
abag3
(g13
g5
Ntp1440
Rp1441
(lp1442
F0.0
aF0.0
aF-0.07773773324769204
aF0.9969738436034873
ababag3
(g4
g5
Ntp1443
Rp1444
(lp1445
g3
(g9
g5
Ntp1446
Rp1447
(lp1448
F5.876878474743578
aF0.3311667347791246
aF0.0
abag3
(g13
g5
Ntp1449
Rp1450
(lp1451
F0.0
aF0.0
aF-0.07773773324769204
aF0.9969738436034873
ababag3
(g4
g5
Ntp1452
Rp1453
(lp1454
g3
(g9
g5
Ntp1455
Rp1456
(lp1457
F5.876878474743578
aF0.3311667347791246
aF0.0
abag3
(g13
g5
Ntp1458
Rp1459
(lp1460
F0.0
aF0.0
aF-0.07773773324769204
aF0.9969738436034873
ababag3
(g4
g5
Ntp1461
Rp1462
(lp1463
g3
(g9
g5
Ntp1464
Rp1465
(lp1466
F5.876878474743578
aF0.3311667347791246
aF0.0
abag3
(g13
g5
Ntp1467
Rp1468
(lp1469
F0.0
aF0.0
aF-0.07773773324769204
aF0.9969738436034873
ababag3
(g4
g5
Ntp1470
Rp1471
(lp1472
g3
(g9
g5
Ntp1473
Rp1474
(lp1475
F5.876878474743578
aF0.3311667347791246
aF0.0
abag3
(g13
g5
Ntp1476
Rp1477
(lp1478
F0.0
aF0.0
aF-0.07773773324769204
aF0.9969738436034873
ababag3
(g4
g5
Ntp1479
Rp1480
(lp1481
g3
(g9
g5
Ntp1482
Rp1483
(lp1484
F5.876878474743578
aF0.3311667347791246
aF0.0
abag3
(g13
g5
Ntp1485
Rp1486
(lp1487
F0.0
aF0.0
aF-0.07773773324769204
aF0.9969738436034873
ababag3
(g4
g5
Ntp1488
Rp1489
(lp1490
g3
(g9
g5
Ntp1491
Rp1492
(lp1493
F5.876878474743578
aF0.3311667347791246
aF0.0
abag3
(g13
g5
Ntp1494
Rp1495
(lp1496
F0.0
aF0.0
aF-0.07773773324769204
aF0.9969738436034873
ababag3
(g4
g5
Ntp1497
Rp1498
(lp1499
g3
(g9
g5
Ntp1500
Rp1501
(lp1502
F5.876878474743578
aF0.3311667347791246
aF0.0
abag3
(g13
g5
Ntp1503
Rp1504
(lp1505
F0.0
aF0.0
aF-0.07773773324769204
aF0.9969738436034873
ababag3
(g4
g5
Ntp1506
Rp1507
(lp1508
g3
(g9
g5
Ntp1509
Rp1510
(lp1511
F5.876878474743578
aF0.3311667347791246
aF0.0
abag3
(g13
g5
Ntp1512
Rp1513
(lp1514
F0.0
aF0.0
aF-0.07773773324769204
aF0.9969738436034873
ababag3
(g4
g5
Ntp1515
Rp1516
(lp1517
g3
(g9
g5
Ntp1518
Rp1519
(lp1520
F5.876878474743578
aF0.3311667347791246
aF0.0
abag3
(g13
g5
Ntp1521
Rp1522
(lp1523
F0.0
aF0.0
aF-0.07773773324769204
aF0.9969738436034873
ababag3
(g4
g5
Ntp1524
Rp1525
(lp1526
g3
(g9
g5
Ntp1527
Rp1528
(lp1529
F5.876878474743578
aF0.3311667347791246
aF0.0
abag3
(g13
g5
Ntp1530
Rp1531
(lp1532
F0.0
aF0.0
aF-0.07773773324769204
aF0.9969738436034873
ababag3
(g4
g5
Ntp1533
Rp1534
(lp1535
g3
(g9
g5
Ntp1536
Rp1537
(lp1538
F5.876878474743578
aF0.3311667347791246
aF0.0
abag3
(g13
g5
Ntp1539
Rp1540
(lp1541
F0.0
aF0.0
aF-0.07773773324769204
aF0.9969738436034873
ababag3
(g4
g5
Ntp1542
Rp1543
(lp1544
g3
(g9
g5
Ntp1545
Rp1546
(lp1547
F5.876878474743578
aF0.3311667347791246
aF0.0
abag3
(g13
g5
Ntp1548
Rp1549
(lp1550
F0.0
aF0.0
aF-0.07773773324769204
aF0.9969738436034873
ababag3
(g4
g5
Ntp1551
Rp1552
(lp1553
g3
(g9
g5
Ntp1554
Rp1555
(lp1556
F5.876878474743578
aF0.3311667347791246
aF0.0
abag3
(g13
g5
Ntp1557
Rp1558
(lp1559
F0.0
aF0.0
aF-0.07773773324769204
aF0.9969738436034873
ababag3
(g4
g5
Ntp1560
Rp1561
(lp1562
g3
(g9
g5
Ntp1563
Rp1564
(lp1565
F5.876878474743578
aF0.3311667347791246
aF0.0
abag3
(g13
g5
Ntp1566
Rp1567
(lp1568
F0.0
aF0.0
aF-0.07773773324769204
aF0.9969738436034873
ababag3
(g4
g5
Ntp1569
Rp1570
(lp1571
g3
(g9
g5
Ntp1572
Rp1573
(lp1574
F5.876878474743578
aF0.3311667347791246
aF0.0
abag3
(g13
g5
Ntp1575
Rp1576
(lp1577
F0.0
aF0.0
aF-0.07773773324769204
aF0.9969738436034873
ababag3
(g4
g5
Ntp1578
Rp1579
(lp1580
g3
(g9
g5
Ntp1581
Rp1582
(lp1583
F5.876878474743578
aF0.3311667347791246
aF0.0
abag3
(g13
g5
Ntp1584
Rp1585
(lp1586
F0.0
aF0.0
aF-0.07773773324769204
aF0.9969738436034873
ababag3
(g4
g5
Ntp1587
Rp1588
(lp1589
g3
(g9
g5
Ntp1590
Rp1591
(lp1592
F5.876878474743578
aF0.3311667347791246
aF0.0
abag3
(g13
g5
Ntp1593
Rp1594
(lp1595
F0.0
aF0.0
aF-0.07773773324769204
aF0.9969738436034873
ababag3
(g4
g5
Ntp1596
Rp1597
(lp1598
g3
(g9
g5
Ntp1599
Rp1600
(lp1601
F5.876878474743578
aF0.3311667347791246
aF0.0
abag3
(g13
g5
Ntp1602
Rp1603
(lp1604
F0.0
aF0.0
aF-0.07773773324769204
aF0.9969738436034873
ababag3
(g4
g5
Ntp1605
Rp1606
(lp1607
g3
(g9
g5
Ntp1608
Rp1609
(lp1610
F5.876878474743578
aF0.3311667347791246
aF0.0
abag3
(g13
g5
Ntp1611
Rp1612
(lp1613
F0.0
aF0.0
aF-0.07773773324769204
aF0.9969738436034873
ababag3
(g4
g5
Ntp1614
Rp1615
(lp1616
g3
(g9
g5
Ntp1617
Rp1618
(lp1619
F5.876878474743578
aF0.3311667347791246
aF0.0
abag3
(g13
g5
Ntp1620
Rp1621
(lp1622
F0.0
aF0.0
aF-0.07773773324769204
aF0.9969738436034873
ababaaa(lp1623
I3
aF78.12999999999988
a(lp1624
g3
(g4
g5
Ntp1625
Rp1626
(lp1627
g3
(g9
g5
Ntp1628
Rp1629
(lp1630
F-5.115321603571592
aF-4.095741568065747
aF0.0
abag3
(g13
g5
Ntp1631
Rp1632
(lp1633
F0.0
aF0.0
aF-0.7583860336546232
aF0.6518056642570765
ababag3
(g4
g5
Ntp1634
Rp1635
(lp1636
g3
(g9
g5
Ntp1637
Rp1638
(lp1639
F-5.115321603571592
aF-4.095741568065747
aF0.0
abag3
(g13
g5
Ntp1640
Rp1641
(lp1642
F0.0
aF0.0
aF-0.7583860336546232
aF0.6518056642570765
ababag3
(g4
g5
Ntp1643
Rp1644
(lp1645
g3
(g9
g5
Ntp1646
Rp1647
(lp1648
F-5.106054437421011
aF-4.100115121163576
aF0.0
abag3
(g13
g5
Ntp1649
Rp1650
(lp1651
F0.0
aF0.0
aF-0.8249114762087489
aF0.5652619361137832
ababag3
(g4
g5
Ntp1652
Rp1653
(lp1654
g3
(g9
g5
Ntp1655
Rp1656
(lp1657
F-5.106054437421011
aF-4.100115121163576
aF0.0
abag3
(g13
g5
Ntp1658
Rp1659
(lp1660
F0.0
aF0.0
aF-0.8249114762087489
aF0.5652619361137832
ababag3
(g4
g5
Ntp1661
Rp1662
(lp1663
g3
(g9
g5
Ntp1664
Rp1665
(lp1666
F-5.130370992357516
aF-4.1404557351117575
aF0.0
abag3
(g13
g5
Ntp1667
Rp1668
(lp1669
F0.0
aF0.0
aF0.9830047191877338
aF0.1835802877616346
ababag3
(g4
g5
Ntp1670
Rp1671
(lp1672
g3
(g9
g5
Ntp1673
Rp1674
(lp1675
F-5.145657530403463
aF-4.100335892975551
aF0.0
abag3
(g13
g5
Ntp1676
Rp1677
(lp1678
F0.0
aF0.0
aF0.7426466426864607
aF0.6696834805387754
ababag3
(g4
g5
Ntp1679
Rp1680
(lp1681
g3
(g9
g5
Ntp1682
Rp1683
(lp1684
F-4.960369438901761
aF-3.8741867411391047
aF0.0
abag3
(g13
g5
Ntp1685
Rp1686
(lp1687
F0.0
aF0.0
aF0.26940653231571626
aF0.963026541869756
ababag3
(g4
g5
Ntp1688
Rp1689
(lp1690
g3
(g9
g5
Ntp1691
Rp1692
(lp1693
F-3.884274810011687
aF-3.6465594074114067
aF0.0
abag3
(g13
g5
Ntp1694
Rp1695
(lp1696
F0.0
aF0.0
aF-0.0014170189507195622
aF0.9999989960281427
ababag3
(g4
g5
Ntp1697
Rp1698
(lp1699
g3
(g9
g5
Ntp1700
Rp1701
(lp1702
F-2.835890928554949
aF-3.7271170131765814
aF0.0
abag3
(g13
g5
Ntp1703
Rp1704
(lp1705
F0.0
aF0.0
aF-0.047915499636177916
aF0.9988513927980556
ababag3
(g4
g5
Ntp1706
Rp1707
(lp1708
g3
(g9
g5
Ntp1709
Rp1710
(lp1711
F-1.7786114996640243
aF-3.802004336463544
aF0.0
abag3
(g13
g5
Ntp1712
Rp1713
(lp1714
F0.0
aF0.0
aF-0.018015361155999145
aF0.9998377102122219
ababag3
(g4
g5
Ntp1715
Rp1716
(lp1717
g3
(g9
g5
Ntp1718
Rp1719
(lp1720
F-0.9890126880020781
aF-3.8127989382132355
aF0.0
abag3
(g13
g5
Ntp1721
Rp1722
(lp1723
F0.0
aF0.0
aF-0.0032118698962771007
aF0.9999948419325818
ababag3
(g4
g5
Ntp1724
Rp1725
(lp1726
g3
(g9
g5
Ntp1727
Rp1728
(lp1729
F0.02308110349445173
aF-3.746178924306362
aF0.0
abag3
(g13
g5
Ntp1730
Rp1731
(lp1732
F0.0
aF0.0
aF0.13219771082619067
aF0.9912233679914507
ababag3
(g4
g5
Ntp1733
Rp1734
(lp1735
g3
(g9
g5
Ntp1736
Rp1737
(lp1738
F0.7331505625248689
aF-3.240108108145127
aF0.0
abag3
(g13
g5
Ntp1739
Rp1740
(lp1741
F0.0
aF0.0
aF0.45617626341176026
aF0.8898894407170389
ababag3
(g4
g5
Ntp1742
Rp1743
(lp1744
g3
(g9
g5
Ntp1745
Rp1746
(lp1747
F1.029666311214982
aF-2.2995721894025234
aF0.0
abag3
(g13
g5
Ntp1748
Rp1749
(lp1750
F0.0
aF0.0
aF0.6839533979108102
aF0.7295257017311021
ababag3
(g4
g5
Ntp1751
Rp1752
(lp1753
g3
(g9
g5
Ntp1754
Rp1755
(lp1756
F1.059466589016192
aF-1.8060830034227016
aF0.0
abag3
(g13
g5
Ntp1757
Rp1758
(lp1759
F0.0
aF0.0
aF0.6835166444127082
aF0.729934926422069
ababag3
(g4
g5
Ntp1760
Rp1761
(lp1762
g3
(g9
g5
Ntp1763
Rp1764
(lp1765
F1.059466589016192
aF-1.8060830034227016
aF0.0
abag3
(g13
g5
Ntp1766
Rp1767
(lp1768
F0.0
aF0.0
aF0.6835166444127082
aF0.729934926422069
ababag3
(g4
g5
Ntp1769
Rp1770
(lp1771
g3
(g9
g5
Ntp1772
Rp1773
(lp1774
F1.059466589016192
aF-1.8060830034227016
aF0.0
abag3
(g13
g5
Ntp1775
Rp1776
(lp1777
F0.0
aF0.0
aF0.6835166444127082
aF0.729934926422069
ababag3
(g4
g5
Ntp1778
Rp1779
(lp1780
g3
(g9
g5
Ntp1781
Rp1782
(lp1783
F1.059466589016192
aF-1.8060830034227016
aF0.0
abag3
(g13
g5
Ntp1784
Rp1785
(lp1786
F0.0
aF0.0
aF0.6835166444127082
aF0.729934926422069
ababag3
(g4
g5
Ntp1787
Rp1788
(lp1789
g3
(g9
g5
Ntp1790
Rp1791
(lp1792
F1.0566612995043623
aF-1.7968626151326812
aF0.0
abag3
(g13
g5
Ntp1793
Rp1794
(lp1795
F0.0
aF0.0
aF0.21713316216956693
aF0.9761419926866401
ababag3
(g4
g5
Ntp1796
Rp1797
(lp1798
g3
(g9
g5
Ntp1799
Rp1800
(lp1801
F1.0566328098871216
aF-1.8256615670303211
aF0.0
abag3
(g13
g5
Ntp1802
Rp1803
(lp1804
F0.0
aF0.0
aF-0.3452747705168553
aF0.9385016424303865
ababag3
(g4
g5
Ntp1805
Rp1806
(lp1807
g3
(g9
g5
Ntp1808
Rp1809
(lp1810
F1.0590195354929577
aF-1.8443514395853848
aF0.0
abag3
(g13
g5
Ntp1811
Rp1812
(lp1813
F0.0
aF0.0
aF-0.606687081645307
aF0.7949407430523993
ababag3
(g4
g5
Ntp1814
Rp1815
(lp1816
g3
(g9
g5
Ntp1817
Rp1818
(lp1819
F1.0569006219649537
aF-1.865396147535509
aF0.0
abag3
(g13
g5
Ntp1820
Rp1821
(lp1822
F0.0
aF0.0
aF-0.7931757250806281
aF0.6089928317663682
ababag3
(g4
g5
Ntp1823
Rp1824
(lp1825
g3
(g9
g5
Ntp1826
Rp1827
(lp1828
F1.0569006219649537
aF-1.865396147535509
aF0.0
abag3
(g13
g5
Ntp1829
Rp1830
(lp1831
F0.0
aF0.0
aF-0.7931757250806281
aF0.6089928317663682
ababag3
(g4
g5
Ntp1832
Rp1833
(lp1834
g3
(g9
g5
Ntp1835
Rp1836
(lp1837
F1.0569006219649537
aF-1.865396147535509
aF0.0
abag3
(g13
g5
Ntp1838
Rp1839
(lp1840
F0.0
aF0.0
aF-0.7931757250806281
aF0.6089928317663682
ababag3
(g4
g5
Ntp1841
Rp1842
(lp1843
g3
(g9
g5
Ntp1844
Rp1845
(lp1846
F0.9342028138673245
aF-1.9982891434076013
aF0.0
abag3
(g13
g5
Ntp1847
Rp1848
(lp1849
F0.0
aF0.0
aF-0.9764583874271119
aF0.21570585903782113
ababag3
(g4
g5
Ntp1850
Rp1851
(lp1852
g3
(g9
g5
Ntp1853
Rp1854
(lp1855
F0.6682614962890082
aF-1.9340637593947083
aF0.0
abag3
(g13
g5
Ntp1856
Rp1857
(lp1858
F0.0
aF0.0
aF0.9467857614758852
aF0.3218644464157669
ababag3
(g4
g5
Ntp1859
Rp1860
(lp1861
g3
(g9
g5
Ntp1862
Rp1863
(lp1864
F0.238850876775564
aF-1.1279486968076005
aF0.0
abag3
(g13
g5
Ntp1865
Rp1866
(lp1867
F0.0
aF0.0
aF0.7534190994888208
aF0.6575406151147276
ababag3
(g4
g5
Ntp1868
Rp1869
(lp1870
g3
(g9
g5
Ntp1871
Rp1872
(lp1873
F0.3899729619231887
aF-0.13222267205967134
aF0.0
abag3
(g13
g5
Ntp1874
Rp1875
(lp1876
F0.0
aF0.0
aF0.5579848218777899
aF0.8298511544572382
ababag3
(g4
g5
Ntp1877
Rp1878
(lp1879
g3
(g9
g5
Ntp1880
Rp1881
(lp1882
F0.8799865722282764
aF0.7768264921184506
aF0.0
abag3
(g13
g5
Ntp1883
Rp1884
(lp1885
F0.0
aF0.0
aF0.4347640971228768
aF0.9005443797242475
ababag3
(g4
g5
Ntp1886
Rp1887
(lp1888
g3
(g9
g5
Ntp1889
Rp1890
(lp1891
F1.3480018188692358
aF1.0471535472827271
aF0.0
abag3
(g13
g5
Ntp1892
Rp1893
(lp1894
F0.0
aF0.0
aF0.0601562231956096
aF0.9981889744987369
ababag3
(g4
g5
Ntp1895
Rp1896
(lp1897
g3
(g9
g5
Ntp1898
Rp1899
(lp1900
F1.6112146096970472
aF1.0272903091030186
aF0.0
abag3
(g13
g5
Ntp1901
Rp1902
(lp1903
F0.0
aF0.0
aF-0.14577487026926012
aF0.9893177887807236
ababag3
(g4
g5
Ntp1904
Rp1905
(lp1906
g3
(g9
g5
Ntp1907
Rp1908
(lp1909
F1.8217247309230102
aF0.9263075754995984
aF0.0
abag3
(g13
g5
Ntp1910
Rp1911
(lp1912
F0.0
aF0.0
aF-0.34907335086313374
aF0.9370954037434948
ababag3
(g4
g5
Ntp1913
Rp1914
(lp1915
g3
(g9
g5
Ntp1916
Rp1917
(lp1918
F1.8217247309230102
aF0.9263075754995984
aF0.0
abag3
(g13
g5
Ntp1919
Rp1920
(lp1921
F0.0
aF0.0
aF-0.34907335086313374
aF0.9370954037434948
ababag3
(g4
g5
Ntp1922
Rp1923
(lp1924
g3
(g9
g5
Ntp1925
Rp1926
(lp1927
F1.8217247309230102
aF0.9263075754995984
aF0.0
abag3
(g13
g5
Ntp1928
Rp1929
(lp1930
F0.0
aF0.0
aF-0.34907335086313374
aF0.9370954037434948
ababag3
(g4
g5
Ntp1931
Rp1932
(lp1933
g3
(g9
g5
Ntp1934
Rp1935
(lp1936
F1.8217247309230102
aF0.9263075754995984
aF0.0
abag3
(g13
g5
Ntp1937
Rp1938
(lp1939
F0.0
aF0.0
aF-0.34907335086313374
aF0.9370954037434948
ababag3
(g4
g5
Ntp1940
Rp1941
(lp1942
g3
(g9
g5
Ntp1943
Rp1944
(lp1945
F1.8217247309230102
aF0.9263075754995984
aF0.0
abag3
(g13
g5
Ntp1946
Rp1947
(lp1948
F0.0
aF0.0
aF-0.34907335086313374
aF0.9370954037434948
ababag3
(g4
g5
Ntp1949
Rp1950
(lp1951
g3
(g9
g5
Ntp1952
Rp1953
(lp1954
F1.7050751344796864
aF1.0376718967411036
aF0.0
abag3
(g13
g5
Ntp1955
Rp1956
(lp1957
F0.0
aF0.0
aF-0.4754677304721856
aF0.8797331625439779
ababag3
(g4
g5
Ntp1958
Rp1959
(lp1960
g3
(g9
g5
Ntp1961
Rp1962
(lp1963
F1.7050751344796864
aF1.0376718967411036
aF0.0
abag3
(g13
g5
Ntp1964
Rp1965
(lp1966
F0.0
aF0.0
aF-0.4754677304721856
aF0.8797331625439779
ababag3
(g4
g5
Ntp1967
Rp1968
(lp1969
g3
(g9
g5
Ntp1970
Rp1971
(lp1972
F1.7050751344796864
aF1.0376718967411036
aF0.0
abag3
(g13
g5
Ntp1973
Rp1974
(lp1975
F0.0
aF0.0
aF-0.4754677304721856
aF0.8797331625439779
ababag3
(g4
g5
Ntp1976
Rp1977
(lp1978
g3
(g9
g5
Ntp1979
Rp1980
(lp1981
F1.7050751344796864
aF1.0376718967411036
aF0.0
abag3
(g13
g5
Ntp1982
Rp1983
(lp1984
F0.0
aF0.0
aF-0.4754677304721856
aF0.8797331625439779
ababag3
(g4
g5
Ntp1985
Rp1986
(lp1987
g3
(g9
g5
Ntp1988
Rp1989
(lp1990
F1.7050751344796864
aF1.0376718967411036
aF0.0
abag3
(g13
g5
Ntp1991
Rp1992
(lp1993
F0.0
aF0.0
aF-0.4754677304721856
aF0.8797331625439779
ababag3
(g4
g5
Ntp1994
Rp1995
(lp1996
g3
(g9
g5
Ntp1997
Rp1998
(lp1999
F1.663470987008694
aF1.109380167447762
aF0.0
abag3
(g13
g5
Ntp2000
Rp2001
(lp2002
F0.0
aF0.0
aF-0.23426380429635277
aF0.9721730658666697
ababag3
(g4
g5
Ntp2003
Rp2004
(lp2005
g3
(g9
g5
Ntp2006
Rp2007
(lp2008
F1.663470987008694
aF1.109380167447762
aF0.0
abag3
(g13
g5
Ntp2009
Rp2010
(lp2011
F0.0
aF0.0
aF-0.23426380429635277
aF0.9721730658666697
ababag3
(g4
g5
Ntp2012
Rp2013
(lp2014
g3
(g9
g5
Ntp2015
Rp2016
(lp2017
F1.663470987008694
aF1.109380167447762
aF0.0
abag3
(g13
g5
Ntp2018
Rp2019
(lp2020
F0.0
aF0.0
aF-0.23426380429635277
aF0.9721730658666697
ababag3
(g4
g5
Ntp2021
Rp2022
(lp2023
g3
(g9
g5
Ntp2024
Rp2025
(lp2026
F1.6755228702657456
aF1.102009450100816
aF0.0
abag3
(g13
g5
Ntp2027
Rp2028
(lp2029
F0.0
aF0.0
aF0.025109675705290713
aF0.999684702386695
ababag3
(g4
g5
Ntp2030
Rp2031
(lp2032
g3
(g9
g5
Ntp2033
Rp2034
(lp2035
F1.6755228702657456
aF1.102009450100816
aF0.0
abag3
(g13
g5
Ntp2036
Rp2037
(lp2038
F0.0
aF0.0
aF0.025109675705290713
aF0.999684702386695
ababag3
(g4
g5
Ntp2039
Rp2040
(lp2041
g3
(g9
g5
Ntp2042
Rp2043
(lp2044
F1.6755228702657456
aF1.102009450100816
aF0.0
abag3
(g13
g5
Ntp2045
Rp2046
(lp2047
F0.0
aF0.0
aF0.025109675705290713
aF0.999684702386695
ababag3
(g4
g5
Ntp2048
Rp2049
(lp2050
g3
(g9
g5
Ntp2051
Rp2052
(lp2053
F1.6643101678303327
aF1.091845858061896
aF0.0
abag3
(g13
g5
Ntp2054
Rp2055
(lp2056
F0.0
aF0.0
aF0.27075312561517945
aF0.9626488170509591
ababag3
(g4
g5
Ntp2057
Rp2058
(lp2059
g3
(g9
g5
Ntp2060
Rp2061
(lp2062
F1.6643101678303327
aF1.091845858061896
aF0.0
abag3
(g13
g5
Ntp2063
Rp2064
(lp2065
F0.0
aF0.0
aF0.27075312561517945
aF0.9626488170509591
ababag3
(g4
g5
Ntp2066
Rp2067
(lp2068
g3
(g9
g5
Ntp2069
Rp2070
(lp2071
F1.6557096695989955
aF1.0959363644078515
aF0.0
abag3
(g13
g5
Ntp2072
Rp2073
(lp2074
F0.0
aF0.0
aF0.5036807101275427
aF0.8638898901164513
ababag3
(g4
g5
Ntp2075
Rp2076
(lp2077
g3
(g9
g5
Ntp2078
Rp2079
(lp2080
F1.6557096695989955
aF1.0959363644078515
aF0.0
abag3
(g13
g5
Ntp2081
Rp2082
(lp2083
F0.0
aF0.0
aF0.5036807101275427
aF0.8638898901164513
ababag3
(g4
g5
Ntp2084
Rp2085
(lp2086
g3
(g9
g5
Ntp2087
Rp2088
(lp2089
F1.6445563532560332
aF1.1093198979444823
aF0.0
abag3
(g13
g5
Ntp2090
Rp2091
(lp2092
F0.0
aF0.0
aF0.7251528229395977
aF0.6885879634314939
ababag3
(g4
g5
Ntp2093
Rp2094
(lp2095
g3
(g9
g5
Ntp2096
Rp2097
(lp2098
F1.6445563532560332
aF1.1093198979444823
aF0.0
abag3
(g13
g5
Ntp2099
Rp2100
(lp2101
F0.0
aF0.0
aF0.7251528229395977
aF0.6885879634314939
ababag3
(g4
g5
Ntp2102
Rp2103
(lp2104
g3
(g9
g5
Ntp2105
Rp2106
(lp2107
F1.602533036416416
aF1.1099850716269228
aF0.0
abag3
(g13
g5
Ntp2108
Rp2109
(lp2110
F0.0
aF0.0
aF-0.9979183379631483
aF0.06449023768654952
ababag3
(g4
g5
Ntp2111
Rp2112
(lp2113
g3
(g9
g5
Ntp2114
Rp2115
(lp2116
F1.505883709742722
aF1.0211153831497668
aF0.0
abag3
(g13
g5
Ntp2117
Rp2118
(lp2119
F0.0
aF0.0
aF-0.8343771970145205
aF0.5511938797757029
ababag3
(g4
g5
Ntp2120
Rp2121
(lp2122
g3
(g9
g5
Ntp2123
Rp2124
(lp2125
F1.8091162279728892
aF0.524605430019074
aF0.0
abag3
(g13
g5
Ntp2126
Rp2127
(lp2128
F0.0
aF0.0
aF-0.3109012152902462
aF0.9504422309278181
ababag3
(g4
g5
Ntp2129
Rp2130
(lp2131
g3
(g9
g5
Ntp2132
Rp2133
(lp2134
F2.463794177891669
aF0.269625423849812
aF0.0
abag3
(g13
g5
Ntp2135
Rp2136
(lp2137
F0.0
aF0.0
aF-0.04852632767621047
aF0.9988219038058092
ababag3
(g4
g5
Ntp2138
Rp2139
(lp2140
g3
(g9
g5
Ntp2141
Rp2142
(lp2143
F3.4829134213419204
aF0.3776336340266281
aF0.0
abag3
(g13
g5
Ntp2144
Rp2145
(lp2146
F0.0
aF0.0
aF0.0909127374217742
aF0.9958588625776644
ababag3
(g4
g5
Ntp2147
Rp2148
(lp2149
g3
(g9
g5
Ntp2150
Rp2151
(lp2152
F4.494328297054951
aF0.44964557708417446
aF0.0
abag3
(g13
g5
Ntp2153
Rp2154
(lp2155
F0.0
aF0.0
aF-0.043000533509413345
aF0.9990750492920468
ababag3
(g4
g5
Ntp2156
Rp2157
(lp2158
g3
(g9
g5
Ntp2159
Rp2160
(lp2161
F5.495846889180023
aF0.24157429051942994
aF0.0
abag3
(g13
g5
Ntp2162
Rp2163
(lp2164
F0.0
aF0.0
aF-0.11309493249102415
aF0.993584186792871
ababag3
(g4
g5
Ntp2165
Rp2166
(lp2167
g3
(g9
g5
Ntp2168
Rp2169
(lp2170
F6.268003512113416
aF0.08777011489505314
aF0.0
abag3
(g13
g5
Ntp2171
Rp2172
(lp2173
F0.0
aF0.0
aF-0.09461807608336607
aF0.9955136461537242
ababag3
(g4
g5
Ntp2174
Rp2175
(lp2176
g3
(g9
g5
Ntp2177
Rp2178
(lp2179
F7.300194253709738
aF-0.07914510669248964
aF0.0
abag3
(g13
g5
Ntp2180
Rp2181
(lp2182
F0.0
aF0.0
aF-0.07819421438590829
aF0.9969381449400814
ababag3
(g4
g5
Ntp2183
Rp2184
(lp2185
g3
(g9
g5
Ntp2186
Rp2187
(lp2188
F8.34142687610322
aF-0.24357702523505284
aF0.0
abag3
(g13
g5
Ntp2189
Rp2190
(lp2191
F0.0
aF0.0
aF-0.08949401120109672
aF0.9959873603410527
ababag3
(g4
g5
Ntp2192
Rp2193
(lp2194
g3
(g9
g5
Ntp2195
Rp2196
(lp2197
F9.094622166846902
aF-0.45047729491416066
aF0.0
abag3
(g13
g5
Ntp2198
Rp2199
(lp2200
F0.0
aF0.0
aF-0.17985074965267528
aF0.9836939096331596
ababag3
(g4
g5
Ntp2201
Rp2202
(lp2203
g3
(g9
g5
Ntp2204
Rp2205
(lp2206
F9.918202716641128
aF-0.9841255010474608
aF0.0
abag3
(g13
g5
Ntp2207
Rp2208
(lp2209
F0.0
aF0.0
aF-0.4080296650697601
aF0.9129686700117696
ababag3
(g4
g5
Ntp2210
Rp2211
(lp2212
g3
(g9
g5
Ntp2213
Rp2214
(lp2215
F10.406484592043988
aF-1.8068672576436402
aF0.0
abag3
(g13
g5
Ntp2216
Rp2217
(lp2218
F0.0
aF0.0
aF-0.5568829487621275
aF0.8305909832029226
ababag3
(g4
g5
Ntp2219
Rp2220
(lp2221
g3
(g9
g5
Ntp2222
Rp2223
(lp2224
F10.621360155808818
aF-2.776977847755891
aF0.0
abag3
(g13
g5
Ntp2225
Rp2226
(lp2227
F0.0
aF0.0
aF-0.726715408425236
aF0.6869386545808457
ababag3
(g4
g5
Ntp2228
Rp2229
(lp2230
g3
(g9
g5
Ntp2231
Rp2232
(lp2233
F10.322850069526393
aF-3.6471226061003663
aF0.0
abag3
(g13
g5
Ntp2234
Rp2235
(lp2236
F0.0
aF0.0
aF-0.9137278162706268
aF0.4063268115363686
ababag3
(g4
g5
Ntp2237
Rp2238
(lp2239
g3
(g9
g5
Ntp2240
Rp2241
(lp2242
F9.53728241690438
aF-4.076593326167342
aF0.0
abag3
(g13
g5
Ntp2243
Rp2244
(lp2245
F0.0
aF0.0
aF-0.9928297739744458
aF0.11953677220776392
ababag3
(g4
g5
Ntp2246
Rp2247
(lp2248
g3
(g9
g5
Ntp2249
Rp2250
(lp2251
F8.779584863166734
aF-4.159159870090657
aF0.0
abag3
(g13
g5
Ntp2252
Rp2253
(lp2254
F0.0
aF0.0
aF-0.9999995196083357
aF0.0009801954386125119
ababag3
(g4
g5
Ntp2255
Rp2256
(lp2257
g3
(g9
g5
Ntp2258
Rp2259
(lp2260
F7.728706214833081
aF-4.127018382922279
aF0.0
abag3
(g13
g5
Ntp2261
Rp2262
(lp2263
F0.0
aF0.0
aF0.9996559616971633
aF0.026228958105873466
ababag3
(g4
g5
Ntp2264
Rp2265
(lp2266
g3
(g9
g5
Ntp2267
Rp2268
(lp2269
F6.675551224068857
aF-4.085994660857827
aF0.0
abag3
(g13
g5
Ntp2270
Rp2271
(lp2272
F0.0
aF0.0
aF-0.9999930690143827
aF0.0037231603774466517
ababag3
(g4
g5
Ntp2273
Rp2274
(lp2275
g3
(g9
g5
Ntp2276
Rp2277
(lp2278
F5.6514696938798865
aF-4.12354352918489
aF0.0
abag3
(g13
g5
Ntp2279
Rp2280
(lp2281
F0.0
aF0.0
aF-0.9992838852422887
aF0.03783803238907104
ababag3
(g4
g5
Ntp2282
Rp2283
(lp2284
g3
(g9
g5
Ntp2285
Rp2286
(lp2287
F5.192838927461389
aF-4.180460377016574
aF0.0
abag3
(g13
g5
Ntp2288
Rp2289
(lp2290
F0.0
aF0.0
aF-0.9976097181010665
aF0.06910029196979339
ababag3
(g4
g5
Ntp2291
Rp2292
(lp2293
g3
(g9
g5
Ntp2294
Rp2295
(lp2296
F5.192838927461389
aF-4.180460377016574
aF0.0
abag3
(g13
g5
Ntp2297
Rp2298
(lp2299
F0.0
aF0.0
aF-0.9976097181010665
aF0.06910029196979339
ababag3
(g4
g5
Ntp2300
Rp2301
(lp2302
g3
(g9
g5
Ntp2303
Rp2304
(lp2305
F4.979766114121568
aF-4.216238331031218
aF0.0
abag3
(g13
g5
Ntp2306
Rp2307
(lp2308
F0.0
aF0.0
aF-0.9956646329398008
aF0.09301579818961861
ababag3
(g4
g5
Ntp2309
Rp2310
(lp2311
g3
(g9
g5
Ntp2312
Rp2313
(lp2314
F4.958984428723793
aF-4.222268752053007
aF0.0
abag3
(g13
g5
Ntp2315
Rp2316
(lp2317
F0.0
aF0.0
aF-0.9409041823915621
aF0.3386728798679722
ababag3
(g4
g5
Ntp2318
Rp2319
(lp2320
g3
(g9
g5
Ntp2321
Rp2322
(lp2323
F4.958984428723793
aF-4.222268752053007
aF0.0
abag3
(g13
g5
Ntp2324
Rp2325
(lp2326
F0.0
aF0.0
aF-0.9409041823915621
aF0.3386728798679722
ababaaa(lp2327
I3
aF42.60500000000002
a(lp2328
g3
(g4
g5
Ntp2329
Rp2330
(lp2331
g3
(g9
g5
Ntp2332
Rp2333
(lp2334
F-5.115440792435258
aF-4.094803448624678
aF0.0
abag3
(g13
g5
Ntp2335
Rp2336
(lp2337
F0.0
aF0.0
aF-0.776680120012997
aF0.629895222379561
ababag3
(g4
g5
Ntp2338
Rp2339
(lp2340
g3
(g9
g5
Ntp2341
Rp2342
(lp2343
F-5.100634176578797
aF-4.090665051509322
aF0.0
abag3
(g13
g5
Ntp2344
Rp2345
(lp2346
F0.0
aF0.0
aF-0.422679201811132
aF0.90627936772074
ababag3
(g4
g5
Ntp2347
Rp2348
(lp2349
g3
(g9
g5
Ntp2350
Rp2351
(lp2352
F-5.097547930306378
aF-4.089366839171107
aF0.0
abag3
(g13
g5
Ntp2353
Rp2354
(lp2355
F0.0
aF0.0
aF-0.1451104722896108
aF0.9894154591635842
ababag3
(g4
g5
Ntp2356
Rp2357
(lp2358
g3
(g9
g5
Ntp2359
Rp2360
(lp2361
F-4.958421109687875
aF-4.095230746318208
aF0.0
abag3
(g13
g5
Ntp2362
Rp2363
(lp2364
F0.0
aF0.0
aF0.004052746977727318
aF0.9999917875872454
ababag3
(g4
g5
Ntp2365
Rp2366
(lp2367
g3
(g9
g5
Ntp2368
Rp2369
(lp2370
F-4.239946103134295
aF-4.011108474404533
aF0.0
abag3
(g13
g5
Ntp2371
Rp2372
(lp2373
F0.0
aF0.0
aF0.10363732211596838
aF0.994615154451525
ababag3
(g4
g5
Ntp2374
Rp2375
(lp2376
g3
(g9
g5
Ntp2377
Rp2378
(lp2379
F-3.2112246856203117
aF-3.842400495772178
aF0.0
abag3
(g13
g5
Ntp2380
Rp2381
(lp2382
F0.0
aF0.0
aF0.056669326568374014
aF0.9983930024926492
ababag3
(g4
g5
Ntp2383
Rp2384
(lp2385
g3
(g9
g5
Ntp2386
Rp2387
(lp2388
F-2.190637682069016
aF-3.78139101397633
aF0.0
abag3
(g13
g5
Ntp2389
Rp2390
(lp2391
F0.0
aF0.0
aF0.009094348413544404
aF0.9999586455583717
ababag3
(g4
g5
Ntp2392
Rp2393
(lp2394
g3
(g9
g5
Ntp2395
Rp2396
(lp2397
F-1.4212561947412976
aF-3.7800226397639647
aF0.0
abag3
(g13
g5
Ntp2398
Rp2399
(lp2400
F0.0
aF0.0
aF-1.365807792718241e-05
aF0.9999999999067285
ababag3
(g4
g5
Ntp2401
Rp2402
(lp2403
g3
(g9
g5
Ntp2404
Rp2405
(lp2406
F-0.3897521100830489
aF-3.7631025541941647
aF0.0
abag3
(g13
g5
Ntp2407
Rp2408
(lp2409
F0.0
aF0.0
aF0.01793214287305547
aF0.9998392061986668
ababag3
(g4
g5
Ntp2410
Rp2411
(lp2412
g3
(g9
g5
Ntp2413
Rp2414
(lp2415
F0.3119692518429686
aF-3.609564315163891
aF0.0
abag3
(g13
g5
Ntp2416
Rp2417
(lp2418
F0.0
aF0.0
aF0.23555306799396256
aF0.971861488154887
ababag3
(g4
g5
Ntp2419
Rp2420
(lp2421
g3
(g9
g5
Ntp2422
Rp2423
(lp2424
F0.9926943158441687
aF-2.7337284519362535
aF0.0
abag3
(g13
g5
Ntp2425
Rp2426
(lp2427
F0.0
aF0.0
aF0.5987410962718454
aF0.8009426319251516
ababag3
(g4
g5
Ntp2428
Rp2429
(lp2430
g3
(g9
g5
Ntp2431
Rp2432
(lp2433
F1.1177582616986437
aF-2.2782082208869494
aF0.0
abag3
(g13
g5
Ntp2434
Rp2435
(lp2436
F0.0
aF0.0
aF0.6125268173100353
aF0.7904498074362715
ababag3
(g4
g5
Ntp2437
Rp2438
(lp2439
g3
(g9
g5
Ntp2440
Rp2441
(lp2442
F1.1177582616986437
aF-2.2782082208869494
aF0.0
abag3
(g13
g5
Ntp2443
Rp2444
(lp2445
F0.0
aF0.0
aF0.6125268173100353
aF0.7904498074362715
ababag3
(g4
g5
Ntp2446
Rp2447
(lp2448
g3
(g9
g5
Ntp2449
Rp2450
(lp2451
F1.1177582616986437
aF-2.2782082208869494
aF0.0
abag3
(g13
g5
Ntp2452
Rp2453
(lp2454
F0.0
aF0.0
aF0.6125268173100353
aF0.7904498074362715
ababag3
(g4
g5
Ntp2455
Rp2456
(lp2457
g3
(g9
g5
Ntp2458
Rp2459
(lp2460
F1.1177582616986437
aF-2.2782082208869494
aF0.0
abag3
(g13
g5
Ntp2461
Rp2462
(lp2463
F0.0
aF0.0
aF0.6125268173100353
aF0.7904498074362715
ababag3
(g4
g5
Ntp2464
Rp2465
(lp2466
g3
(g9
g5
Ntp2467
Rp2468
(lp2469
F1.1177582616986437
aF-2.2782082208869494
aF0.0
abag3
(g13
g5
Ntp2470
Rp2471
(lp2472
F0.0
aF0.0
aF0.6125268173100353
aF0.7904498074362715
ababag3
(g4
g5
Ntp2473
Rp2474
(lp2475
g3
(g9
g5
Ntp2476
Rp2477
(lp2478
F1.0839279937519501
aF-2.274921586533926
aF0.0
abag3
(g13
g5
Ntp2479
Rp2480
(lp2481
F0.0
aF0.0
aF0.7770457946365193
aF0.6294440666474664
ababag3
(g4
g5
Ntp2482
Rp2483
(lp2484
g3
(g9
g5
Ntp2485
Rp2486
(lp2487
F0.9943402309269727
aF-1.4859577571455238
aF0.0
abag3
(g13
g5
Ntp2488
Rp2489
(lp2490
F0.0
aF0.0
aF0.6990046693562043
aF0.7151171038495888
ababag3
(g4
g5
Ntp2491
Rp2492
(lp2493
g3
(g9
g5
Ntp2494
Rp2495
(lp2496
F1.1672794640269661
aF-0.49785760688205377
aF0.0
abag3
(g13
g5
Ntp2497
Rp2498
(lp2499
F0.0
aF0.0
aF0.6160411225089835
aF0.7877139933871123
ababag3
(g4
g5
Ntp2500
Rp2501
(lp2502
g3
(g9
g5
Ntp2503
Rp2504
(lp2505
F1.4442660451458345
aF0.14844364631579599
aF0.0
abag3
(g13
g5
Ntp2506
Rp2507
(lp2508
F0.0
aF0.0
aF0.43979669532023685
aF0.8980973593020963
ababag3
(g4
g5
Ntp2509
Rp2510
(lp2511
g3
(g9
g5
Ntp2512
Rp2513
(lp2514
F2.4343015519360547
aF0.6491286266450929
aF0.0
abag3
(g13
g5
Ntp2515
Rp2516
(lp2517
F0.0
aF0.0
aF0.06678935493189608
aF0.997767098108462
ababag3
(g4
g5
Ntp2518
Rp2519
(lp2520
g3
(g9
g5
Ntp2521
Rp2522
(lp2523
F3.458672060057168
aF0.5992200648577605
aF0.0
abag3
(g13
g5
Ntp2524
Rp2525
(lp2526
F0.0
aF0.0
aF-0.07495877725820899
aF0.9971866333399952
ababag3
(g4
g5
Ntp2527
Rp2528
(lp2529
g3
(g9
g5
Ntp2530
Rp2531
(lp2532
F4.240363835380287
aF0.49731339288496224
aF0.0
abag3
(g13
g5
Ntp2533
Rp2534
(lp2535
F0.0
aF0.0
aF-0.06510031638267062
aF0.9978787244985616
ababag3
(g4
g5
Ntp2536
Rp2537
(lp2538
g3
(g9
g5
Ntp2539
Rp2540
(lp2541
F5.268925729392751
aF0.3502147237269808
aF0.0
abag3
(g13
g5
Ntp2542
Rp2543
(lp2544
F0.0
aF0.0
aF-0.09367338469685751
aF0.9956029816143755
ababag3
(g4
g5
Ntp2545
Rp2546
(lp2547
g3
(g9
g5
Ntp2548
Rp2549
(lp2550
F6.2504708497358035
aF0.1255541005564514
aF0.0
abag3
(g13
g5
Ntp2551
Rp2552
(lp2553
F0.0
aF0.0
aF-0.10633053226973482
aF0.9943308392618802
ababag3
(g4
g5
Ntp2554
Rp2555
(lp2556
g3
(g9
g5
Ntp2557
Rp2558
(lp2559
F7.271262221262409
aF-0.03699015133859571
aF0.0
abag3
(g13
g5
Ntp2560
Rp2561
(lp2562
F0.0
aF0.0
aF-0.07312960718786914
aF0.9973224456275653
ababag3
(g4
g5
Ntp2563
Rp2564
(lp2565
g3
(g9
g5
Ntp2566
Rp2567
(lp2568
F8.045702760128778
aF-0.15437527319926359
aF0.0
abag3
(g13
g5
Ntp2569
Rp2570
(lp2571
F0.0
aF0.0
aF-0.08935456218162491
aF0.9959998806311827
ababag3
(g4
g5
Ntp2572
Rp2573
(lp2574
g3
(g9
g5
Ntp2575
Rp2576
(lp2577
F9.060790512672588
aF-0.38095471756505206
aF0.0
abag3
(g13
g5
Ntp2578
Rp2579
(lp2580
F0.0
aF0.0
aF-0.16207346607549275
aF0.9867786943353997
ababag3
(g4
g5
Ntp2581
Rp2582
(lp2583
g3
(g9
g5
Ntp2584
Rp2585
(lp2586
F9.74933240224117
aF-0.7730453269226746
aF0.0
abag3
(g13
g5
Ntp2587
Rp2588
(lp2589
F0.0
aF0.0
aF-0.3625803763027944
aF0.9319525045409364
ababag3
(g4
g5
Ntp2590
Rp2591
(lp2592
g3
(g9
g5
Ntp2593
Rp2594
(lp2595
F10.390374635654164
aF-1.7386269613689722
aF0.0
abag3
(g13
g5
Ntp2596
Rp2597
(lp2598
F0.0
aF0.0
aF-0.5548672540840867
aF0.8319388982041804
ababag3
(g4
g5
Ntp2599
Rp2600
(lp2601
g3
(g9
g5
Ntp2602
Rp2603
(lp2604
F10.595737728630693
aF-2.730966820910358
aF0.0
abag3
(g13
g5
Ntp2605
Rp2606
(lp2607
F0.0
aF0.0
aF-0.7051818696081514
aF0.7090264669079371
ababag3
(g4
g5
Ntp2608
Rp2609
(lp2610
g3
(g9
g5
Ntp2611
Rp2612
(lp2613
F10.500745048436052
aF-3.417998227787619
aF0.0
abag3
(g13
g5
Ntp2614
Rp2615
(lp2616
F0.0
aF0.0
aF-0.8449277646512011
aF0.5348804282468415
ababag3
(g4
g5
Ntp2617
Rp2618
(lp2619
g3
(g9
g5
Ntp2620
Rp2621
(lp2622
F9.87379689421044
aF-3.9576494672525215
aF0.0
abag3
(g13
g5
Ntp2623
Rp2624
(lp2625
F0.0
aF0.0
aF-0.9832005192376649
aF0.18252873464412686
ababag3
(g4
g5
Ntp2626
Rp2627
(lp2628
g3
(g9
g5
Ntp2629
Rp2630
(lp2631
F8.888692721264537
aF-4.024939209402467
aF0.0
abag3
(g13
g5
Ntp2632
Rp2633
(lp2634
F0.0
aF0.0
aF0.9980489688899351
aF0.062436012827031775
ababag3
(g4
g5
Ntp2635
Rp2636
(lp2637
g3
(g9
g5
Ntp2638
Rp2639
(lp2640
F7.85015868749483
aF-3.9109250598480805
aF0.0
abag3
(g13
g5
Ntp2641
Rp2642
(lp2643
F0.0
aF0.0
aF0.9998113071510715
aF0.019425501096903244
ababag3
(g4
g5
Ntp2644
Rp2645
(lp2646
g3
(g9
g5
Ntp2647
Rp2648
(lp2649
F6.77989991702535
aF-3.9423218699027665
aF0.0
abag3
(g13
g5
Ntp2650
Rp2651
(lp2652
F0.0
aF0.0
aF-0.9992385631160402
aF0.039016585983287805
ababag3
(g4
g5
Ntp2653
Rp2654
(lp2655
g3
(g9
g5
Ntp2656
Rp2657
(lp2658
F5.99313867950755
aF-4.037394488914488
aF0.0
abag3
(g13
g5
Ntp2659
Rp2660
(lp2661
F0.0
aF0.0
aF-0.997892939217423
aF0.06488206115724665
ababag3
(g4
g5
Ntp2662
Rp2663
(lp2664
g3
(g9
g5
Ntp2665
Rp2666
(lp2667
F5.290206660503739
aF-4.147451453874415
aF0.0
abag3
(g13
g5
Ntp2668
Rp2669
(lp2670
F0.0
aF0.0
aF-0.9955936599619998
aF0.09377240662087112
ababag3
(g4
g5
Ntp2671
Rp2672
(lp2673
g3
(g9
g5
Ntp2674
Rp2675
(lp2676
F5.072704512818536
aF-4.194789469410205
aF0.0
abag3
(g13
g5
Ntp2677
Rp2678
(lp2679
F0.0
aF0.0
aF-0.9937080237860723
aF0.11200162259172304
ababag3
(g4
g5
Ntp2680
Rp2681
(lp2682
g3
(g9
g5
Ntp2683
Rp2684
(lp2685
F5.072704512818536
aF-4.194789469410205
aF0.0
abag3
(g13
g5
Ntp2686
Rp2687
(lp2688
F0.0
aF0.0
aF-0.9937080237860723
aF0.11200162259172304
ababag3
(g4
g5
Ntp2689
Rp2690
(lp2691
g3
(g9
g5
Ntp2692
Rp2693
(lp2694
F4.944095969259107
aF-4.226169440679974
aF0.0
abag3
(g13
g5
Ntp2695
Rp2696
(lp2697
F0.0
aF0.0
aF-0.9758894907809491
aF0.21826520974103925
ababag3
(g4
g5
Ntp2698
Rp2699
(lp2700
g3
(g9
g5
Ntp2701
Rp2702
(lp2703
F4.944095969259107
aF-4.226169440679974
aF0.0
abag3
(g13
g5
Ntp2704
Rp2705
(lp2706
F0.0
aF0.0
aF-0.9758894907809491
aF0.21826520974103925
ababag3
(g4
g5
Ntp2707
Rp2708
(lp2709
g3
(g9
g5
Ntp2710
Rp2711
(lp2712
F4.925900441256272
aF-4.242534576729229
aF0.0
abag3
(g13
g5
Ntp2713
Rp2714
(lp2715
F0.0
aF0.0
aF-0.8919120955598391
aF0.45220881658151746
ababaaa(lp2716
I3
aF34.48000000000002
a(lp2717
g3
(g4
g5
Ntp2718
Rp2719
(lp2720
g3
(g9
g5
Ntp2721
Rp2722
(lp2723
F-5.115412341388966
aF-4.095622019029764
aF0.0
abag3
(g13
g5
Ntp2724
Rp2725
(lp2726
F0.0
aF0.0
aF-0.7739522491264353
aF0.633243962523238
ababag3
(g4
g5
Ntp2727
Rp2728
(lp2729
g3
(g9
g5
Ntp2730
Rp2731
(lp2732
F-5.104413726888889
aF-4.098054761356165
aF0.0
abag3
(g13
g5
Ntp2733
Rp2734
(lp2735
F0.0
aF0.0
aF-0.6534358675432611
aF0.7569818802375561
ababag3
(g4
g5
Ntp2736
Rp2737
(lp2738
g3
(g9
g5
Ntp2739
Rp2740
(lp2741
F-4.558993149125169
aF-4.406722543787164
aF0.0
abag3
(g13
g5
Ntp2742
Rp2743
(lp2744
F0.0
aF0.0
aF-0.0776567898949355
aF0.9969801517498801
ababag3
(g4
g5
Ntp2745
Rp2746
(lp2747
g3
(g9
g5
Ntp2748
Rp2749
(lp2750
F-3.4721816017166387
aF-4.326917894083607
aF0.0
abag3
(g13
g5
Ntp2751
Rp2752
(lp2753
F0.0
aF0.0
aF0.12736024881457914
aF0.9918565254218417
ababag3
(g4
g5
Ntp2754
Rp2755
(lp2756
g3
(g9
g5
Ntp2757
Rp2758
(lp2759
F-2.7046038091205826
aF-4.104309143224663
aF0.0
abag3
(g13
g5
Ntp2760
Rp2761
(lp2762
F0.0
aF0.0
aF0.1458540337105054
aF0.9893061209000856
ababag3
(g4
g5
Ntp2763
Rp2764
(lp2765
g3
(g9
g5
Ntp2766
Rp2767
(lp2768
F-1.688044143044916
aF-3.8595530273571
aF0.0
abag3
(g13
g5
Ntp2769
Rp2770
(lp2771
F0.0
aF0.0
aF0.07233691277341825
aF0.9973802539906287
ababag3
(g4
g5
Ntp2772
Rp2773
(lp2774
g3
(g9
g5
Ntp2775
Rp2776
(lp2777
F-0.6565006835822508
aF-3.77276259552079
aF0.0
abag3
(g13
g5
Ntp2778
Rp2779
(lp2780
F0.0
aF0.0
aF0.0203180314390632
aF0.9997935674920304
ababag3
(g4
g5
Ntp2781
Rp2782
(lp2783
g3
(g9
g5
Ntp2784
Rp2785
(lp2786
F0.3009099915321045
aF-3.527538322571629
aF0.0
abag3
(g13
g5
Ntp2787
Rp2788
(lp2789
F0.0
aF0.0
aF0.2722545998111058
aF0.962225250594524
ababag3
(g4
g5
Ntp2790
Rp2791
(lp2792
g3
(g9
g5
Ntp2793
Rp2794
(lp2795
F0.7862854574724241
aF-2.99256006726777
aF0.0
abag3
(g13
g5
Ntp2796
Rp2797
(lp2798
F0.0
aF0.0
aF0.5179156124450488
aF0.8554317146246508
ababag3
(g4
g5
Ntp2799
Rp2800
(lp2801
g3
(g9
g5
Ntp2802
Rp2803
(lp2804
F1.016538676062897
aF-2.0540164406749346
aF0.0
abag3
(g13
g5
Ntp2805
Rp2806
(lp2807
F0.0
aF0.0
aF0.6841262861008874
aF0.7293635750884512
ababag3
(g4
g5
Ntp2808
Rp2809
(lp2810
g3
(g9
g5
Ntp2811
Rp2812
(lp2813
F1.0491313234267003
aF-0.9736129078575891
aF0.0
abag3
(g13
g5
Ntp2814
Rp2815
(lp2816
F0.0
aF0.0
aF0.6722836703325223
aF0.740293635393573
ababag3
(g4
g5
Ntp2817
Rp2818
(lp2819
g3
(g9
g5
Ntp2820
Rp2821
(lp2822
F1.3319734308908455
aF-0.1327658133194337
aF0.0
abag3
(g13
g5
Ntp2823
Rp2824
(lp2825
F0.0
aF0.0
aF0.4494557748506457
aF0.8933025839285397
ababag3
(g4
g5
Ntp2826
Rp2827
(lp2828
g3
(g9
g5
Ntp2829
Rp2830
(lp2831
F2.1226828957226638
aF0.4190724444462194
aF0.0
abag3
(g13
g5
Ntp2832
Rp2833
(lp2834
F0.0
aF0.0
aF0.1850523685991602
aF0.9827286608600772
ababag3
(g4
g5
Ntp2835
Rp2836
(lp2837
g3
(g9
g5
Ntp2838
Rp2839
(lp2840
F2.869264413176534
aF0.5687423712674242
aF0.0
abag3
(g13
g5
Ntp2841
Rp2842
(lp2843
F0.0
aF0.0
aF0.027202357121683902
aF0.999629947414054
ababag3
(g4
g5
Ntp2844
Rp2845
(lp2846
g3
(g9
g5
Ntp2847
Rp2848
(lp2849
F3.9299325009292136
aF0.5496852803659859
aF0.0
abag3
(g13
g5
Ntp2850
Rp2851
(lp2852
F0.0
aF0.0
aF-0.040937425082836196
aF0.9991617122506182
ababag3
(g4
g5
Ntp2853
Rp2854
(lp2855
g3
(g9
g5
Ntp2856
Rp2857
(lp2858
F4.858366873982789
aF0.3754056122538513
aF0.0
abag3
(g13
g5
Ntp2859
Rp2860
(lp2861
F0.0
aF0.0
aF-0.18630016492181148
aF0.9824928745543684
ababag3
(g4
g5
Ntp2862
Rp2863
(lp2864
g3
(g9
g5
Ntp2865
Rp2866
(lp2867
F5.78018070882716
aF-0.09253735375825581
aF0.0
abag3
(g13
g5
Ntp2868
Rp2869
(lp2870
F0.0
aF0.0
aF-0.2135596569460111
aF0.9769300245796021
ababag3
(g4
g5
Ntp2871
Rp2872
(lp2873
g3
(g9
g5
Ntp2874
Rp2875
(lp2876
F6.725732544292266
aF-0.32363905553656314
aF0.0
abag3
(g13
g5
Ntp2877
Rp2878
(lp2879
F0.0
aF0.0
aF-0.04155853523589234
aF0.999136070887768
ababag3
(g4
g5
Ntp2880
Rp2881
(lp2882
g3
(g9
g5
Ntp2883
Rp2884
(lp2885
F7.7767923943401875
aF-0.3452135330250258
aF0.0
abag3
(g13
g5
Ntp2886
Rp2887
(lp2888
F0.0
aF0.0
aF0.007455612108092427
aF0.9999722065378086
ababag3
(g4
g5
Ntp2889
Rp2890
(lp2891
g3
(g9
g5
Ntp2892
Rp2893
(lp2894
F8.563966791762857
aF-0.3473576678250067
aF0.0
abag3
(g13
g5
Ntp2895
Rp2896
(lp2897
F0.0
aF0.0
aF-0.02123612118893913
aF0.9997744881506272
ababag3
(g4
g5
Ntp2898
Rp2899
(lp2900
g3
(g9
g5
Ntp2901
Rp2902
(lp2903
F9.620365656062269
aF-0.6736840181876866
aF0.0
abag3
(g13
g5
Ntp2904
Rp2905
(lp2906
F0.0
aF0.0
aF-0.316781808850101
aF0.9484984373111313
ababag3
(g4
g5
Ntp2907
Rp2908
(lp2909
g3
(g9
g5
Ntp2910
Rp2911
(lp2912
F10.116972263329309
aF-1.2336157153148455
aF0.0
abag3
(g13
g5
Ntp2913
Rp2914
(lp2915
F0.0
aF0.0
aF-0.4943569297902489
aF0.869259009713652
ababag3
(g4
g5
Ntp2916
Rp2917
(lp2918
g3
(g9
g5
Ntp2919
Rp2920
(lp2921
F10.539198237260415
aF-2.200767306307579
aF0.0
abag3
(g13
g5
Ntp2922
Rp2923
(lp2924
F0.0
aF0.0
aF-0.5817637791255063
aF0.8133577966046733
ababag3
(g4
g5
Ntp2925
Rp2926
(lp2927
g3
(g9
g5
Ntp2928
Rp2929
(lp2930
F10.643170862144345
aF-3.0299679532149835
aF0.0
abag3
(g13
g5
Ntp2931
Rp2932
(lp2933
F0.0
aF0.0
aF-0.7853590629998224
aF0.6190405012307685
ababag3
(g4
g5
Ntp2934
Rp2935
(lp2936
g3
(g9
g5
Ntp2937
Rp2938
(lp2939
F10.035520510560001
aF-3.798701998049835
aF0.0
abag3
(g13
g5
Ntp2940
Rp2941
(lp2942
F0.0
aF0.0
aF-0.9678151628678602
aF0.25166209592041705
ababag3
(g4
g5
Ntp2943
Rp2944
(lp2945
g3
(g9
g5
Ntp2946
Rp2947
(lp2948
F9.066481673760322
aF-4.0060549449399945
aF0.0
abag3
(g13
g5
Ntp2949
Rp2950
(lp2951
F0.0
aF0.0
aF0.999998340111275
aF0.0018220248886248297
ababag3
(g4
g5
Ntp2952
Rp2953
(lp2954
g3
(g9
g5
Ntp2955
Rp2956
(lp2957
F8.267601532439475
aF-3.9537078576018927
aF0.0
abag3
(g13
g5
Ntp2958
Rp2959
(lp2960
F0.0
aF0.0
aF0.998825878268884
aF0.0484444516987505
ababag3
(g4
g5
Ntp2961
Rp2962
(lp2963
g3
(g9
g5
Ntp2964
Rp2965
(lp2966
F7.276789917987364
aF-3.92471418367913
aF0.0
abag3
(g13
g5
Ntp2967
Rp2968
(lp2969
F0.0
aF0.0
aF-0.9998259278178286
aF0.01865781507084908
ababag3
(g4
g5
Ntp2970
Rp2971
(lp2972
g3
(g9
g5
Ntp2973
Rp2974
(lp2975
F6.233078304883035
aF-3.9968756956696465
aF0.0
abag3
(g13
g5
Ntp2976
Rp2977
(lp2978
F0.0
aF0.0
aF-0.9986473588728804
aF0.0519947364280316
ababag3
(g4
g5
Ntp2979
Rp2980
(lp2981
g3
(g9
g5
Ntp2982
Rp2983
(lp2984
F5.424504957933647
aF-4.100120620402656
aF0.0
abag3
(g13
g5
Ntp2985
Rp2986
(lp2987
F0.0
aF0.0
aF-0.9970859128343198
aF0.07628684308156425
ababag3
(g4
g5
Ntp2988
Rp2989
(lp2990
g3
(g9
g5
Ntp2991
Rp2992
(lp2993
F5.172318913222188
aF-4.141424449638532
aF0.0
abag3
(g13
g5
Ntp2994
Rp2995
(lp2996
F0.0
aF0.0
aF-0.9948946125383663
aF0.1009193239282451
ababag3
(g4
g5
Ntp2997
Rp2998
(lp2999
g3
(g9
g5
Ntp3000
Rp3001
(lp3002
F5.172318913222188
aF-4.141424449638532
aF0.0
abag3
(g13
g5
Ntp3003
Rp3004
(lp3005
F0.0
aF0.0
aF-0.9948946125383663
aF0.1009193239282451
ababag3
(g4
g5
Ntp3006
Rp3007
(lp3008
g3
(g9
g5
Ntp3009
Rp3010
(lp3011
F4.962127282179529
aF-4.207963624195707
aF0.0
abag3
(g13
g5
Ntp3012
Rp3013
(lp3014
F0.0
aF0.0
aF-0.9770632526217071
aF0.21294929062171145
ababag3
(g4
g5
Ntp3015
Rp3016
(lp3017
g3
(g9
g5
Ntp3018
Rp3019
(lp3020
F4.962127282179529
aF-4.207963624195707
aF0.0
abag3
(g13
g5
Ntp3021
Rp3022
(lp3023
F0.0
aF0.0
aF-0.9770632526217071
aF0.21294929062171145
ababag3
(g4
g5
Ntp3024
Rp3025
(lp3026
g3
(g9
g5
Ntp3027
Rp3028
(lp3029
F4.926093048094352
aF-4.235314380311826
aF0.0
abag3
(g13
g5
Ntp3030
Rp3031
(lp3032
F0.0
aF0.0
aF-0.888983710523136
aF0.4579388195212512
ababaaa(lp3033
I4
aF40.41100000000006
a(lp3034
g3
(g4
g5
Ntp3035
Rp3036
(lp3037
g3
(g9
g5
Ntp3038
Rp3039
(lp3040
F-5.11513625314545
aF-4.094420880817034
aF0.0
abag3
(g13
g5
Ntp3041
Rp3042
(lp3043
F0.0
aF0.0
aF-0.7744942901669717
aF0.6325808995683941
ababag3
(g4
g5
Ntp3044
Rp3045
(lp3046
g3
(g9
g5
Ntp3047
Rp3048
(lp3049
F-5.11513625314545
aF-4.094420880817034
aF0.0
abag3
(g13
g5
Ntp3050
Rp3051
(lp3052
F0.0
aF0.0
aF-0.7744942901669717
aF0.6325808995683941
ababag3
(g4
g5
Ntp3053
Rp3054
(lp3055
g3
(g9
g5
Ntp3056
Rp3057
(lp3058
F-5.11513625314545
aF-4.094420880817034
aF0.0
abag3
(g13
g5
Ntp3059
Rp3060
(lp3061
F0.0
aF0.0
aF-0.7744942901669717
aF0.6325808995683941
ababag3
(g4
g5
Ntp3062
Rp3063
(lp3064
g3
(g9
g5
Ntp3065
Rp3066
(lp3067
F-5.11513625314545
aF-4.094420880817034
aF0.0
abag3
(g13
g5
Ntp3068
Rp3069
(lp3070
F0.0
aF0.0
aF-0.7744942901669717
aF0.6325808995683941
ababag3
(g4
g5
Ntp3071
Rp3072
(lp3073
g3
(g9
g5
Ntp3074
Rp3075
(lp3076
F-5.11513625314545
aF-4.094420880817034
aF0.0
abag3
(g13
g5
Ntp3077
Rp3078
(lp3079
F0.0
aF0.0
aF-0.7744942901669717
aF0.6325808995683941
ababag3
(g4
g5
Ntp3080
Rp3081
(lp3082
g3
(g9
g5
Ntp3083
Rp3084
(lp3085
F-5.11513625314545
aF-4.094420880817034
aF0.0
abag3
(g13
g5
Ntp3086
Rp3087
(lp3088
F0.0
aF0.0
aF-0.7744942901669717
aF0.6325808995683941
ababag3
(g4
g5
Ntp3089
Rp3090
(lp3091
g3
(g9
g5
Ntp3092
Rp3093
(lp3094
F-5.11513625314545
aF-4.094420880817034
aF0.0
abag3
(g13
g5
Ntp3095
Rp3096
(lp3097
F0.0
aF0.0
aF-0.7744942901669717
aF0.6325808995683941
ababag3
(g4
g5
Ntp3098
Rp3099
(lp3100
g3
(g9
g5
Ntp3101
Rp3102
(lp3103
F-5.11513625314545
aF-4.094420880817034
aF0.0
abag3
(g13
g5
Ntp3104
Rp3105
(lp3106
F0.0
aF0.0
aF-0.7744942901669717
aF0.6325808995683941
ababag3
(g4
g5
Ntp3107
Rp3108
(lp3109
g3
(g9
g5
Ntp3110
Rp3111
(lp3112
F-5.11513625314545
aF-4.094420880817034
aF0.0
abag3
(g13
g5
Ntp3113
Rp3114
(lp3115
F0.0
aF0.0
aF-0.7744942901669717
aF0.6325808995683941
ababag3
(g4
g5
Ntp3116
Rp3117
(lp3118
g3
(g9
g5
Ntp3119
Rp3120
(lp3121
F-5.11513625314545
aF-4.094420880817034
aF0.0
abag3
(g13
g5
Ntp3122
Rp3123
(lp3124
F0.0
aF0.0
aF-0.7744942901669717
aF0.6325808995683941
ababag3
(g4
g5
Ntp3125
Rp3126
(lp3127
g3
(g9
g5
Ntp3128
Rp3129
(lp3130
F-5.11513625314545
aF-4.094420880817034
aF0.0
abag3
(g13
g5
Ntp3131
Rp3132
(lp3133
F0.0
aF0.0
aF-0.7744942901669717
aF0.6325808995683941
ababag3
(g4
g5
Ntp3134
Rp3135
(lp3136
g3
(g9
g5
Ntp3137
Rp3138
(lp3139
F-5.11513625314545
aF-4.094420880817034
aF0.0
abag3
(g13
g5
Ntp3140
Rp3141
(lp3142
F0.0
aF0.0
aF-0.7744942901669717
aF0.6325808995683941
ababag3
(g4
g5
Ntp3143
Rp3144
(lp3145
g3
(g9
g5
Ntp3146
Rp3147
(lp3148
F-5.11513625314545
aF-4.094420880817034
aF0.0
abag3
(g13
g5
Ntp3149
Rp3150
(lp3151
F0.0
aF0.0
aF-0.7744942901669717
aF0.6325808995683941
ababag3
(g4
g5
Ntp3152
Rp3153
(lp3154
g3
(g9
g5
Ntp3155
Rp3156
(lp3157
F-5.11513625314545
aF-4.094420880817034
aF0.0
abag3
(g13
g5
Ntp3158
Rp3159
(lp3160
F0.0
aF0.0
aF-0.7744942901669717
aF0.6325808995683941
ababag3
(g4
g5
Ntp3161
Rp3162
(lp3163
g3
(g9
g5
Ntp3164
Rp3165
(lp3166
F-5.11513625314545
aF-4.094420880817034
aF0.0
abag3
(g13
g5
Ntp3167
Rp3168
(lp3169
F0.0
aF0.0
aF-0.7744942901669717
aF0.6325808995683941
ababag3
(g4
g5
Ntp3170
Rp3171
(lp3172
g3
(g9
g5
Ntp3173
Rp3174
(lp3175
F-5.11513625314545
aF-4.094420880817034
aF0.0
abag3
(g13
g5
Ntp3176
Rp3177
(lp3178
F0.0
aF0.0
aF-0.7744942901669717
aF0.6325808995683941
ababag3
(g4
g5
Ntp3179
Rp3180
(lp3181
g3
(g9
g5
Ntp3182
Rp3183
(lp3184
F-5.11513625314545
aF-4.094420880817034
aF0.0
abag3
(g13
g5
Ntp3185
Rp3186
(lp3187
F0.0
aF0.0
aF-0.7744942901669717
aF0.6325808995683941
ababag3
(g4
g5
Ntp3188
Rp3189
(lp3190
g3
(g9
g5
Ntp3191
Rp3192
(lp3193
F-5.11513625314545
aF-4.094420880817034
aF0.0
abag3
(g13
g5
Ntp3194
Rp3195
(lp3196
F0.0
aF0.0
aF-0.7744942901669717
aF0.6325808995683941
ababag3
(g4
g5
Ntp3197
Rp3198
(lp3199
g3
(g9
g5
Ntp3200
Rp3201
(lp3202
F-5.11513625314545
aF-4.094420880817034
aF0.0
abag3
(g13
g5
Ntp3203
Rp3204
(lp3205
F0.0
aF0.0
aF-0.7744942901669717
aF0.6325808995683941
ababag3
(g4
g5
Ntp3206
Rp3207
(lp3208
g3
(g9
g5
Ntp3209
Rp3210
(lp3211
F-5.11513625314545
aF-4.094420880817034
aF0.0
abag3
(g13
g5
Ntp3212
Rp3213
(lp3214
F0.0
aF0.0
aF-0.7744942901669717
aF0.6325808995683941
ababag3
(g4
g5
Ntp3215
Rp3216
(lp3217
g3
(g9
g5
Ntp3218
Rp3219
(lp3220
F-5.11513625314545
aF-4.094420880817034
aF0.0
abag3
(g13
g5
Ntp3221
Rp3222
(lp3223
F0.0
aF0.0
aF-0.7744942901669717
aF0.6325808995683941
ababag3
(g4
g5
Ntp3224
Rp3225
(lp3226
g3
(g9
g5
Ntp3227
Rp3228
(lp3229
F-5.11513625314545
aF-4.094420880817034
aF0.0
abag3
(g13
g5
Ntp3230
Rp3231
(lp3232
F0.0
aF0.0
aF-0.7744942901669717
aF0.6325808995683941
ababag3
(g4
g5
Ntp3233
Rp3234
(lp3235
g3
(g9
g5
Ntp3236
Rp3237
(lp3238
F-5.11513625314545
aF-4.094420880817034
aF0.0
abag3
(g13
g5
Ntp3239
Rp3240
(lp3241
F0.0
aF0.0
aF-0.7744942901669717
aF0.6325808995683941
ababag3
(g4
g5
Ntp3242
Rp3243
(lp3244
g3
(g9
g5
Ntp3245
Rp3246
(lp3247
F-5.11513625314545
aF-4.094420880817034
aF0.0
abag3
(g13
g5
Ntp3248
Rp3249
(lp3250
F0.0
aF0.0
aF-0.7744942901669717
aF0.6325808995683941
ababag3
(g4
g5
Ntp3251
Rp3252
(lp3253
g3
(g9
g5
Ntp3254
Rp3255
(lp3256
F-5.11513625314545
aF-4.094420880817034
aF0.0
abag3
(g13
g5
Ntp3257
Rp3258
(lp3259
F0.0
aF0.0
aF-0.7744942901669717
aF0.6325808995683941
ababag3
(g4
g5
Ntp3260
Rp3261
(lp3262
g3
(g9
g5
Ntp3263
Rp3264
(lp3265
F-5.11513625314545
aF-4.094420880817034
aF0.0
abag3
(g13
g5
Ntp3266
Rp3267
(lp3268
F0.0
aF0.0
aF-0.7744942901669717
aF0.6325808995683941
ababag3
(g4
g5
Ntp3269
Rp3270
(lp3271
g3
(g9
g5
Ntp3272
Rp3273
(lp3274
F-5.11513625314545
aF-4.094420880817034
aF0.0
abag3
(g13
g5
Ntp3275
Rp3276
(lp3277
F0.0
aF0.0
aF-0.7744942901669717
aF0.6325808995683941
ababag3
(g4
g5
Ntp3278
Rp3279
(lp3280
g3
(g9
g5
Ntp3281
Rp3282
(lp3283
F-5.11513625314545
aF-4.094420880817034
aF0.0
abag3
(g13
g5
Ntp3284
Rp3285
(lp3286
F0.0
aF0.0
aF-0.7744942901669717
aF0.6325808995683941
ababag3
(g4
g5
Ntp3287
Rp3288
(lp3289
g3
(g9
g5
Ntp3290
Rp3291
(lp3292
F-5.11513625314545
aF-4.094420880817034
aF0.0
abag3
(g13
g5
Ntp3293
Rp3294
(lp3295
F0.0
aF0.0
aF-0.7744942901669717
aF0.6325808995683941
ababag3
(g4
g5
Ntp3296
Rp3297
(lp3298
g3
(g9
g5
Ntp3299
Rp3300
(lp3301
F-5.11513625314545
aF-4.094420880817034
aF0.0
abag3
(g13
g5
Ntp3302
Rp3303
(lp3304
F0.0
aF0.0
aF-0.7744942901669717
aF0.6325808995683941
ababag3
(g4
g5
Ntp3305
Rp3306
(lp3307
g3
(g9
g5
Ntp3308
Rp3309
(lp3310
F-5.11513625314545
aF-4.094420880817034
aF0.0
abag3
(g13
g5
Ntp3311
Rp3312
(lp3313
F0.0
aF0.0
aF-0.7744942901669717
aF0.6325808995683941
ababag3
(g4
g5
Ntp3314
Rp3315
(lp3316
g3
(g9
g5
Ntp3317
Rp3318
(lp3319
F-5.11513625314545
aF-4.094420880817034
aF0.0
abag3
(g13
g5
Ntp3320
Rp3321
(lp3322
F0.0
aF0.0
aF-0.7744942901669717
aF0.6325808995683941
ababag3
(g4
g5
Ntp3323
Rp3324
(lp3325
g3
(g9
g5
Ntp3326
Rp3327
(lp3328
F-5.11513625314545
aF-4.094420880817034
aF0.0
abag3
(g13
g5
Ntp3329
Rp3330
(lp3331
F0.0
aF0.0
aF-0.7744942901669717
aF0.6325808995683941
ababag3
(g4
g5
Ntp3332
Rp3333
(lp3334
g3
(g9
g5
Ntp3335
Rp3336
(lp3337
F-5.11513625314545
aF-4.094420880817034
aF0.0
abag3
(g13
g5
Ntp3338
Rp3339
(lp3340
F0.0
aF0.0
aF-0.7744942901669717
aF0.6325808995683941
ababag3
(g4
g5
Ntp3341
Rp3342
(lp3343
g3
(g9
g5
Ntp3344
Rp3345
(lp3346
F-5.11513625314545
aF-4.094420880817034
aF0.0
abag3
(g13
g5
Ntp3347
Rp3348
(lp3349
F0.0
aF0.0
aF-0.7744942901669717
aF0.6325808995683941
ababag3
(g4
g5
Ntp3350
Rp3351
(lp3352
g3
(g9
g5
Ntp3353
Rp3354
(lp3355
F-5.11513625314545
aF-4.094420880817034
aF0.0
abag3
(g13
g5
Ntp3356
Rp3357
(lp3358
F0.0
aF0.0
aF-0.7744942901669717
aF0.6325808995683941
ababag3
(g4
g5
Ntp3359
Rp3360
(lp3361
g3
(g9
g5
Ntp3362
Rp3363
(lp3364
F-5.11513625314545
aF-4.094420880817034
aF0.0
abag3
(g13
g5
Ntp3365
Rp3366
(lp3367
F0.0
aF0.0
aF-0.7744942901669717
aF0.6325808995683941
ababag3
(g4
g5
Ntp3368
Rp3369
(lp3370
g3
(g9
g5
Ntp3371
Rp3372
(lp3373
F-5.11513625314545
aF-4.094420880817034
aF0.0
abag3
(g13
g5
Ntp3374
Rp3375
(lp3376
F0.0
aF0.0
aF-0.7744942901669717
aF0.6325808995683941
ababag3
(g4
g5
Ntp3377
Rp3378
(lp3379
g3
(g9
g5
Ntp3380
Rp3381
(lp3382
F-5.11513625314545
aF-4.094420880817034
aF0.0
abag3
(g13
g5
Ntp3383
Rp3384
(lp3385
F0.0
aF0.0
aF-0.7744942901669717
aF0.6325808995683941
ababag3
(g4
g5
Ntp3386
Rp3387
(lp3388
g3
(g9
g5
Ntp3389
Rp3390
(lp3391
F-5.11513625314545
aF-4.094420880817034
aF0.0
abag3
(g13
g5
Ntp3392
Rp3393
(lp3394
F0.0
aF0.0
aF-0.7744942901669717
aF0.6325808995683941
ababag3
(g4
g5
Ntp3395
Rp3396
(lp3397
g3
(g9
g5
Ntp3398
Rp3399
(lp3400
F-5.11513625314545
aF-4.094420880817034
aF0.0
abag3
(g13
g5
Ntp3401
Rp3402
(lp3403
F0.0
aF0.0
aF-0.7744942901669717
aF0.6325808995683941
ababaaa(lp3404
I3
aF67.20000000000005
a(lp3405
g3
(g4
g5
Ntp3406
Rp3407
(lp3408
g3
(g9
g5
Ntp3409
Rp3410
(lp3411
F-5.1177982771420085
aF-4.098686642257756
aF0.0
abag3
(g13
g5
Ntp3412
Rp3413
(lp3414
F0.0
aF0.0
aF-0.7753421406579543
aF0.6315414197975783
ababag3
(g4
g5
Ntp3415
Rp3416
(lp3417
g3
(g9
g5
Ntp3418
Rp3419
(lp3420
F-5.10744360566165
aF-4.095854060593457
aF0.0
abag3
(g13
g5
Ntp3421
Rp3422
(lp3423
F0.0
aF0.0
aF-0.6577240938915934
aF0.7532589304578357
ababag3
(g4
g5
Ntp3424
Rp3425
(lp3426
g3
(g9
g5
Ntp3427
Rp3428
(lp3429
F-4.574098572644372
aF-4.352216999368104
aF0.0
abag3
(g13
g5
Ntp3430
Rp3431
(lp3432
F0.0
aF0.0
aF-0.08701590566594014
aF0.9962069223615826
ababag3
(g4
g5
Ntp3433
Rp3434
(lp3435
g3
(g9
g5
Ntp3436
Rp3437
(lp3438
F-3.7936914700060385
aF-4.388178451314776
aF0.0
abag3
(g13
g5
Ntp3439
Rp3440
(lp3441
F0.0
aF0.0
aF0.05614944119969761
aF0.9984223756772289
ababag3
(g4
g5
Ntp3442
Rp3443
(lp3444
g3
(g9
g5
Ntp3445
Rp3446
(lp3447
F-2.78518108536902
aF-4.151960263072615
aF0.0
abag3
(g13
g5
Ntp3448
Rp3449
(lp3450
F0.0
aF0.0
aF0.1702850143282536
aF0.9853948517702061
ababag3
(g4
g5
Ntp3451
Rp3452
(lp3453
g3
(g9
g5
Ntp3454
Rp3455
(lp3456
F-1.9662243371044905
aF-3.9119188918769656
aF0.0
abag3
(g13
g5
Ntp3457
Rp3458
(lp3459
F0.0
aF0.0
aF0.09645254162791823
aF0.995337584547833
ababag3
(g4
g5
Ntp3460
Rp3461
(lp3462
g3
(g9
g5
Ntp3463
Rp3464
(lp3465
F-0.8046364579534072
aF-3.8026886112752516
aF0.0
abag3
(g13
g5
Ntp3466
Rp3467
(lp3468
F0.0
aF0.0
aF0.0047323728677547685
aF0.9999888022608255
ababag3
(g4
g5
Ntp3469
Rp3470
(lp3471
g3
(g9
g5
Ntp3472
Rp3473
(lp3474
F0.07584918263625458
aF-3.7331086742718735
aF0.0
abag3
(g13
g5
Ntp3475
Rp3476
(lp3477
F0.0
aF0.0
aF0.125237953977861
aF0.992126733277276
ababag3
(g4
g5
Ntp3478
Rp3479
(lp3480
g3
(g9
g5
Ntp3481
Rp3482
(lp3483
F0.8609507619992925
aF-3.152869556442766
aF0.0
abag3
(g13
g5
Ntp3484
Rp3485
(lp3486
F0.0
aF0.0
aF0.4788393878157612
aF0.8779025234479207
ababag3
(g4
g5
Ntp3487
Rp3488
(lp3489
g3
(g9
g5
Ntp3490
Rp3491
(lp3492
F1.0248332760060912
aF-2.7038267482193086
aF0.0
abag3
(g13
g5
Ntp3493
Rp3494
(lp3495
F0.0
aF0.0
aF0.6421102315225673
aF0.7666123209119685
ababag3
(g4
g5
Ntp3496
Rp3497
(lp3498
g3
(g9
g5
Ntp3499
Rp3500
(lp3501
F1.071760640998748
aF-2.4690146266396242
aF0.0
abag3
(g13
g5
Ntp3502
Rp3503
(lp3504
F0.0
aF0.0
aF0.6319459096252974
aF0.7750124949366013
ababag3
(g4
g5
Ntp3505
Rp3506
(lp3507
g3
(g9
g5
Ntp3508
Rp3509
(lp3510
F1.071760640998748
aF-2.4690146266396242
aF0.0
abag3
(g13
g5
Ntp3511
Rp3512
(lp3513
F0.0
aF0.0
aF0.6319459096252974
aF0.7750124949366013
ababag3
(g4
g5
Ntp3514
Rp3515
(lp3516
g3
(g9
g5
Ntp3517
Rp3518
(lp3519
F1.071760640998748
aF-2.4690146266396242
aF0.0
abag3
(g13
g5
Ntp3520
Rp3521
(lp3522
F0.0
aF0.0
aF0.6319459096252974
aF0.7750124949366013
ababag3
(g4
g5
Ntp3523
Rp3524
(lp3525
g3
(g9
g5
Ntp3526
Rp3527
(lp3528
F1.071760640998748
aF-2.4690146266396242
aF0.0
abag3
(g13
g5
Ntp3529
Rp3530
(lp3531
F0.0
aF0.0
aF0.6319459096252974
aF0.7750124949366013
ababag3
(g4
g5
Ntp3532
Rp3533
(lp3534
g3
(g9
g5
Ntp3535
Rp3536
(lp3537
F1.071760640998748
aF-2.4690146266396242
aF0.0
abag3
(g13
g5
Ntp3538
Rp3539
(lp3540
F0.0
aF0.0
aF0.6319459096252974
aF0.7750124949366013
ababag3
(g4
g5
Ntp3541
Rp3542
(lp3543
g3
(g9
g5
Ntp3544
Rp3545
(lp3546
F1.071760640998748
aF-2.4690146266396242
aF0.0
abag3
(g13
g5
Ntp3547
Rp3548
(lp3549
F0.0
aF0.0
aF0.6319459096252974
aF0.7750124949366013
ababag3
(g4
g5
Ntp3550
Rp3551
(lp3552
g3
(g9
g5
Ntp3553
Rp3554
(lp3555
F1.071760640998748
aF-2.4690146266396242
aF0.0
abag3
(g13
g5
Ntp3556
Rp3557
(lp3558
F0.0
aF0.0
aF0.6319459096252974
aF0.7750124949366013
ababag3
(g4
g5
Ntp3559
Rp3560
(lp3561
g3
(g9
g5
Ntp3562
Rp3563
(lp3564
F1.071760640998748
aF-2.4690146266396242
aF0.0
abag3
(g13
g5
Ntp3565
Rp3566
(lp3567
F0.0
aF0.0
aF0.6319459096252974
aF0.7750124949366013
ababag3
(g4
g5
Ntp3568
Rp3569
(lp3570
g3
(g9
g5
Ntp3571
Rp3572
(lp3573
F1.071760640998748
aF-2.4690146266396242
aF0.0
abag3
(g13
g5
Ntp3574
Rp3575
(lp3576
F0.0
aF0.0
aF0.6319459096252974
aF0.7750124949366013
ababag3
(g4
g5
Ntp3577
Rp3578
(lp3579
g3
(g9
g5
Ntp3580
Rp3581
(lp3582
F1.071760640998748
aF-2.4690146266396242
aF0.0
abag3
(g13
g5
Ntp3583
Rp3584
(lp3585
F0.0
aF0.0
aF0.6319459096252974
aF0.7750124949366013
ababag3
(g4
g5
Ntp3586
Rp3587
(lp3588
g3
(g9
g5
Ntp3589
Rp3590
(lp3591
F1.071760640998748
aF-2.4690146266396242
aF0.0
abag3
(g13
g5
Ntp3592
Rp3593
(lp3594
F0.0
aF0.0
aF0.6319459096252974
aF0.7750124949366013
ababag3
(g4
g5
Ntp3595
Rp3596
(lp3597
g3
(g9
g5
Ntp3598
Rp3599
(lp3600
F1.071760640998748
aF-2.4690146266396242
aF0.0
abag3
(g13
g5
Ntp3601
Rp3602
(lp3603
F0.0
aF0.0
aF0.6319459096252974
aF0.7750124949366013
ababag3
(g4
g5
Ntp3604
Rp3605
(lp3606
g3
(g9
g5
Ntp3607
Rp3608
(lp3609
F1.071760640998748
aF-2.4690146266396242
aF0.0
abag3
(g13
g5
Ntp3610
Rp3611
(lp3612
F0.0
aF0.0
aF0.6319459096252974
aF0.7750124949366013
ababag3
(g4
g5
Ntp3613
Rp3614
(lp3615
g3
(g9
g5
Ntp3616
Rp3617
(lp3618
F1.0442115993961356
aF-2.431746612579188
aF0.0
abag3
(g13
g5
Ntp3619
Rp3620
(lp3621
F0.0
aF0.0
aF0.7293975924723758
aF0.6840900175382637
ababag3
(g4
g5
Ntp3622
Rp3623
(lp3624
g3
(g9
g5
Ntp3625
Rp3626
(lp3627
F0.8651278972599102
aF-1.5692541775331446
aF0.0
abag3
(g13
g5
Ntp3628
Rp3629
(lp3630
F0.0
aF0.0
aF0.7967686247428675
aF0.6042845013943015
ababag3
(g4
g5
Ntp3631
Rp3632
(lp3633
g3
(g9
g5
Ntp3634
Rp3635
(lp3636
F0.9243224180203772
aF-0.4681957167268091
aF0.0
abag3
(g13
g5
Ntp3637
Rp3638
(lp3639
F0.0
aF0.0
aF0.5742865137587841
aF0.8186543837998925
ababag3
(g4
g5
Ntp3640
Rp3641
(lp3642
g3
(g9
g5
Ntp3643
Rp3644
(lp3645
F1.3063411154164744
aF0.1736236354887945
aF0.0
abag3
(g13
g5
Ntp3646
Rp3647
(lp3648
F0.0
aF0.0
aF0.38864619367737213
aF0.9213870718325119
ababag3
(g4
g5
Ntp3649
Rp3650
(lp3651
g3
(g9
g5
Ntp3652
Rp3653
(lp3654
F1.94895792036099
aF0.5298142377663678
aF0.0
abag3
(g13
g5
Ntp3655
Rp3656
(lp3657
F0.0
aF0.0
aF0.12836156300136534
aF0.9917274369219834
ababag3
(g4
g5
Ntp3658
Rp3659
(lp3660
g3
(g9
g5
Ntp3661
Rp3662
(lp3663
F3.1366973758010093
aF0.5736049830724699
aF0.0
abag3
(g13
g5
Ntp3664
Rp3665
(lp3666
F0.0
aF0.0
aF-0.04223504668889879
aF0.9991077023180166
ababag3
(g4
g5
Ntp3667
Rp3668
(lp3669
g3
(g9
g5
Ntp3670
Rp3671
(lp3672
F4.169918239868072
aF0.48674029987750667
aF0.0
abag3
(g13
g5
Ntp3673
Rp3674
(lp3675
F0.0
aF0.0
aF-0.08886303844214054
aF0.9960438546564255
ababag3
(g4
g5
Ntp3676
Rp3677
(lp3678
g3
(g9
g5
Ntp3679
Rp3680
(lp3681
F5.154317194456375
aF0.15524557613556614
aF0.0
abag3
(g13
g5
Ntp3682
Rp3683
(lp3684
F0.0
aF0.0
aF-0.23145371380870872
aF0.9728459170722548
ababag3
(g4
g5
Ntp3685
Rp3686
(lp3687
g3
(g9
g5
Ntp3688
Rp3689
(lp3690
F5.858178306164094
aF-0.1692180454117054
aF0.0
abag3
(g13
g5
Ntp3691
Rp3692
(lp3693
F0.0
aF0.0
aF-0.1700419138797399
aF0.9854368308136829
ababag3
(g4
g5
Ntp3694
Rp3695
(lp3696
g3
(g9
g5
Ntp3697
Rp3698
(lp3699
F6.885895822422197
aF-0.3650119454836665
aF0.0
abag3
(g13
g5
Ntp3700
Rp3701
(lp3702
F0.0
aF0.0
aF-0.03036526468673579
aF0.9995388690293662
ababag3
(g4
g5
Ntp3703
Rp3704
(lp3705
g3
(g9
g5
Ntp3706
Rp3707
(lp3708
F7.946171945502461
aF-0.3547840681467865
aF0.0
abag3
(g13
g5
Ntp3709
Rp3710
(lp3711
F0.0
aF0.0
aF0.0063023719040494934
aF0.9999801398569789
ababag3
(g4
g5
Ntp3712
Rp3713
(lp3714
g3
(g9
g5
Ntp3715
Rp3716
(lp3717
F8.983548507458176
aF-0.4374289541715915
aF0.0
abag3
(g13
g5
Ntp3718
Rp3719
(lp3720
F0.0
aF0.0
aF-0.11324219907804385
aF0.9935674130867863
ababag3
(g4
g5
Ntp3721
Rp3722
(lp3723
g3
(g9
g5
Ntp3724
Rp3725
(lp3726
F9.655767019582878
aF-0.7569461536424719
aF0.0
abag3
(g13
g5
Ntp3727
Rp3728
(lp3729
F0.0
aF0.0
aF-0.3258795131350802
aF0.9454113088591881
ababag3
(g4
g5
Ntp3730
Rp3731
(lp3732
g3
(g9
g5
Ntp3733
Rp3734
(lp3735
F10.280833231224236
aF-1.5799133221094417
aF0.0
abag3
(g13
g5
Ntp3736
Rp3737
(lp3738
F0.0
aF0.0
aF-0.5343763931692551
aF0.8452466328968236
ababag3
(g4
g5
Ntp3739
Rp3740
(lp3741
g3
(g9
g5
Ntp3742
Rp3743
(lp3744
F10.619593487006755
aF-2.6357507923615313
aF0.0
abag3
(g13
g5
Ntp3745
Rp3746
(lp3747
F0.0
aF0.0
aF-0.6934706358302201
aF0.7204848903628932
ababag3
(g4
g5
Ntp3748
Rp3749
(lp3750
g3
(g9
g5
Ntp3751
Rp3752
(lp3753
F10.463463263121476
aF-3.3403749077466474
aF0.0
abag3
(g13
g5
Ntp3754
Rp3755
(lp3756
F0.0
aF0.0
aF-0.8551050689019793
aF0.5184547435776253
ababag3
(g4
g5
Ntp3757
Rp3758
(lp3759
g3
(g9
g5
Ntp3760
Rp3761
(lp3762
F9.66199230751393
aF-3.947153953553392
aF0.0
abag3
(g13
g5
Ntp3763
Rp3764
(lp3765
F0.0
aF0.0
aF-0.988769391896168
aF0.14944928788482817
ababag3
(g4
g5
Ntp3766
Rp3767
(lp3768
g3
(g9
g5
Ntp3769
Rp3770
(lp3771
F8.822440045548404
aF-4.035587663626993
aF0.0
abag3
(g13
g5
Ntp3772
Rp3773
(lp3774
F0.0
aF0.0
aF0.9998058224007571
aF0.019705773101952522
ababag3
(g4
g5
Ntp3775
Rp3776
(lp3777
g3
(g9
g5
Ntp3778
Rp3779
(lp3780
F7.7525090594173305
aF-3.9715885404461253
aF0.0
abag3
(g13
g5
Ntp3781
Rp3782
(lp3783
F0.0
aF0.0
aF0.9993870376219166
aF0.035007842454080985
ababag3
(g4
g5
Ntp3784
Rp3785
(lp3786
g3
(g9
g5
Ntp3787
Rp3788
(lp3789
F6.687022606554238
aF-3.9616348669900976
aF0.0
abag3
(g13
g5
Ntp3790
Rp3791
(lp3792
F0.0
aF0.0
aF-0.9998339148775995
aF0.018224781494792924
ababag3
(g4
g5
Ntp3793
Rp3794
(lp3795
g3
(g9
g5
Ntp3796
Rp3797
(lp3798
F5.644360685420368
aF-4.069461421955944
aF0.0
abag3
(g13
g5
Ntp3799
Rp3800
(lp3801
F0.0
aF0.0
aF-0.997329573275894
aF0.07303233714816512
ababag3
(g4
g5
Ntp3802
Rp3803
(lp3804
g3
(g9
g5
Ntp3805
Rp3806
(lp3807
F5.3750143548198945
aF-4.111050649304664
aF0.0
abag3
(g13
g5
Ntp3808
Rp3809
(lp3810
F0.0
aF0.0
aF-0.9961231305626445
aF0.0879699309882456
ababag3
(g4
g5
Ntp3811
Rp3812
(lp3813
g3
(g9
g5
Ntp3814
Rp3815
(lp3816
F5.131341753186261
aF-4.157314661063422
aF0.0
abag3
(g13
g5
Ntp3817
Rp3818
(lp3819
F0.0
aF0.0
aF-0.9939076050824787
aF0.11021648043378798
ababag3
(g4
g5
Ntp3820
Rp3821
(lp3822
g3
(g9
g5
Ntp3823
Rp3824
(lp3825
F5.131341753186261
aF-4.157314661063422
aF0.0
abag3
(g13
g5
Ntp3826
Rp3827
(lp3828
F0.0
aF0.0
aF-0.9939076050824787
aF0.11021648043378798
ababag3
(g4
g5
Ntp3829
Rp3830
(lp3831
g3
(g9
g5
Ntp3832
Rp3833
(lp3834
F4.8786882147650825
aF-4.236627696341696
aF0.0
abag3
(g13
g5
Ntp3835
Rp3836
(lp3837
F0.0
aF0.0
aF-0.9875679633806301
aF0.157192613389543
ababag3
(g4
g5
Ntp3838
Rp3839
(lp3840
g3
(g9
g5
Ntp3841
Rp3842
(lp3843
F4.8786882147650825
aF-4.236627696341696
aF0.0
abag3
(g13
g5
Ntp3844
Rp3845
(lp3846
F0.0
aF0.0
aF-0.9875679633806301
aF0.157192613389543
ababag3
(g4
g5
Ntp3847
Rp3848
(lp3849
g3
(g9
g5
Ntp3850
Rp3851
(lp3852
F4.62292850386765
aF-4.309163260443278
aF0.0
abag3
(g13
g5
Ntp3853
Rp3854
(lp3855
F0.0
aF0.0
aF-0.995031297597018
aF0.09956262753862272
ababag3
(g4
g5
Ntp3856
Rp3857
(lp3858
g3
(g9
g5
Ntp3859
Rp3860
(lp3861
F4.62292850386765
aF-4.309163260443278
aF0.0
abag3
(g13
g5
Ntp3862
Rp3863
(lp3864
F0.0
aF0.0
aF-0.995031297597018
aF0.09956262753862272
ababag3
(g4
g5
Ntp3865
Rp3866
(lp3867
g3
(g9
g5
Ntp3868
Rp3869
(lp3870
F4.62292850386765
aF-4.309163260443278
aF0.0
abag3
(g13
g5
Ntp3871
Rp3872
(lp3873
F0.0
aF0.0
aF-0.995031297597018
aF0.09956262753862272
ababag3
(g4
g5
Ntp3874
Rp3875
(lp3876
g3
(g9
g5
Ntp3877
Rp3878
(lp3879
F4.62292850386765
aF-4.309163260443278
aF0.0
abag3
(g13
g5
Ntp3880
Rp3881
(lp3882
F0.0
aF0.0
aF-0.995031297597018
aF0.09956262753862272
ababag3
(g4
g5
Ntp3883
Rp3884
(lp3885
g3
(g9
g5
Ntp3886
Rp3887
(lp3888
F4.4748018681599095
aF-4.353000358878884
aF0.0
abag3
(g13
g5
Ntp3889
Rp3890
(lp3891
F0.0
aF0.0
aF-0.9521790954061632
aF0.30554045603078617
ababag3
(g4
g5
Ntp3892
Rp3893
(lp3894
g3
(g9
g5
Ntp3895
Rp3896
(lp3897
F4.468818683238325
aF-4.372548417963645
aF0.0
abag3
(g13
g5
Ntp3898
Rp3899
(lp3900
F0.0
aF0.0
aF-0.8468659898383862
aF0.531806351273704
ababag3
(g4
g5
Ntp3901
Rp3902
(lp3903
g3
(g9
g5
Ntp3904
Rp3905
(lp3906
F4.468818683238325
aF-4.372548417963645
aF0.0
abag3
(g13
g5
Ntp3907
Rp3908
(lp3909
F0.0
aF0.0
aF-0.8468659898383862
aF0.531806351273704
ababag3
(g4
g5
Ntp3910
Rp3911
(lp3912
g3
(g9
g5
Ntp3913
Rp3914
(lp3915
F4.4770647626778475
aF-4.440673504507363
aF0.0
abag3
(g13
g5
Ntp3916
Rp3917
(lp3918
F0.0
aF0.0
aF-0.43213083071114217
aF0.9018109253878543
ababag3
(g4
g5
Ntp3919
Rp3920
(lp3921
g3
(g9
g5
Ntp3922
Rp3923
(lp3924
F4.703332238285125
aF-4.516633207085594
aF0.0
abag3
(g13
g5
Ntp3925
Rp3926
(lp3927
F0.0
aF0.0
aF0.07322852319104334
aF0.9973151875867823
ababag3
(g4
g5
Ntp3928
Rp3929
(lp3930
g3
(g9
g5
Ntp3931
Rp3932
(lp3933
F4.90816480385134
aF-4.365396067420724
aF0.0
abag3
(g13
g5
Ntp3934
Rp3935
(lp3936
F0.0
aF0.0
aF0.5889268318659274
aF0.8081863564230478
ababag3
(g4
g5
Ntp3937
Rp3938
(lp3939
g3
(g9
g5
Ntp3940
Rp3941
(lp3942
F4.9198250389762554
aF-4.276562796599068
aF0.0
abag3
(g13
g5
Ntp3943
Rp3944
(lp3945
F0.0
aF0.0
aF0.7798165854215423
aF0.6260080615307494
ababag3
(g4
g5
Ntp3946
Rp3947
(lp3948
g3
(g9
g5
Ntp3949
Rp3950
(lp3951
F4.9198250389762554
aF-4.276562796599068
aF0.0
abag3
(g13
g5
Ntp3952
Rp3953
(lp3954
F0.0
aF0.0
aF0.7798165854215423
aF0.6260080615307494
ababag3
(g4
g5
Ntp3955
Rp3956
(lp3957
g3
(g9
g5
Ntp3958
Rp3959
(lp3960
F4.907741915526411
aF-4.244574276176149
aF0.0
abag3
(g13
g5
Ntp3961
Rp3962
(lp3963
F0.0
aF0.0
aF0.9148693990867991
aF0.4037499010706493
ababag3
(g4
g5
Ntp3964
Rp3965
(lp3966
g3
(g9
g5
Ntp3967
Rp3968
(lp3969
F4.907741915526411
aF-4.244574276176149
aF0.0
abag3
(g13
g5
Ntp3970
Rp3971
(lp3972
F0.0
aF0.0
aF0.9148693990867991
aF0.4037499010706493
ababag3
(g4
g5
Ntp3973
Rp3974
(lp3975
g3
(g9
g5
Ntp3976
Rp3977
(lp3978
F4.889976903699705
aF-4.2281465689145135
aF0.0
abag3
(g13
g5
Ntp3979
Rp3980
(lp3981
F0.0
aF0.0
aF0.9874660358953629
aF0.15783164433375846
ababag3
(g4
g5
Ntp3982
Rp3983
(lp3984
g3
(g9
g5
Ntp3985
Rp3986
(lp3987
F4.861714991284031
aF-4.233973689996279
aF0.0
abag3
(g13
g5
Ntp3988
Rp3989
(lp3990
F0.0
aF0.0
aF-0.9960981461594065
aF0.0882523836380273
ababag3
(g4
g5
Ntp3991
Rp3992
(lp3993
g3
(g9
g5
Ntp3994
Rp3995
(lp3996
F4.861714991284031
aF-4.233973689996279
aF0.0
abag3
(g13
g5
Ntp3997
Rp3998
(lp3999
F0.0
aF0.0
aF-0.9960981461594065
aF0.0882523836380273
ababag3
(g4
g5
Ntp4000
Rp4001
(lp4002
g3
(g9
g5
Ntp4003
Rp4004
(lp4005
F4.8428895091869375
aF-4.248280566878046
aF0.0
abag3
(g13
g5
Ntp4006
Rp4007
(lp4008
F0.0
aF0.0
aF-0.9439917966450915
aF0.32996891954663293
ababaaa(lp4009
I3
aF35.56600000000003
a(lp4010
g3
(g4
g5
Ntp4011
Rp4012
(lp4013
g3
(g9
g5
Ntp4014
Rp4015
(lp4016
F-5.117833981743189
aF-4.100952231486707
aF0.0
abag3
(g13
g5
Ntp4017
Rp4018
(lp4019
F0.0
aF0.0
aF-0.7790625696793197
aF0.6269461799266784
ababag3
(g4
g5
Ntp4020
Rp4021
(lp4022
g3
(g9
g5
Ntp4023
Rp4024
(lp4025
F-5.061631197184048
aF-4.169759807014397
aF0.0
abag3
(g13
g5
Ntp4026
Rp4027
(lp4028
F0.0
aF0.0
aF-0.4224943058250094
aF0.9063655783101229
ababag3
(g4
g5
Ntp4029
Rp4030
(lp4031
g3
(g9
g5
Ntp4032
Rp4033
(lp4034
F-4.588493650361126
aF-4.341635775374158
aF0.0
abag3
(g13
g5
Ntp4035
Rp4036
(lp4037
F0.0
aF0.0
aF-0.03552482023490078
aF0.9993687943633611
ababag3
(g4
g5
Ntp4038
Rp4039
(lp4040
g3
(g9
g5
Ntp4041
Rp4042
(lp4043
F-3.644852511552283
aF-4.181681723171996
aF0.0
abag3
(g13
g5
Ntp4044
Rp4045
(lp4046
F0.0
aF0.0
aF0.18295085948159023
aF0.9831220590623259
ababag3
(g4
g5
Ntp4047
Rp4048
(lp4049
g3
(g9
g5
Ntp4050
Rp4051
(lp4052
F-2.65735553474058
aF-3.90072094938465
aF0.0
abag3
(g13
g5
Ntp4053
Rp4054
(lp4055
F0.0
aF0.0
aF0.08530929850808865
aF0.9963545170209537
ababag3
(g4
g5
Ntp4056
Rp4057
(lp4058
g3
(g9
g5
Ntp4059
Rp4060
(lp4061
F-1.6147038508517588
aF-3.81814212416662
aF0.0
abag3
(g13
g5
Ntp4062
Rp4063
(lp4064
F0.0
aF0.0
aF0.004638955260122721
aF0.9999892399891583
ababag3
(g4
g5
Ntp4065
Rp4066
(lp4067
g3
(g9
g5
Ntp4068
Rp4069
(lp4070
F-0.569499399508246
aF-3.8198919820406476
aF0.0
abag3
(g13
g5
Ntp4071
Rp4072
(lp4073
F0.0
aF0.0
aF0.01611414250839986
aF0.9998701587762377
ababag3
(g4
g5
Ntp4074
Rp4075
(lp4076
g3
(g9
g5
Ntp4077
Rp4078
(lp4079
F0.2985755194385717
aF-3.5715308168150415
aF0.0
abag3
(g13
g5
Ntp4080
Rp4081
(lp4082
F0.0
aF0.0
aF0.31071909625590977
aF0.9505017849651366
ababag3
(g4
g5
Ntp4083
Rp4084
(lp4085
g3
(g9
g5
Ntp4086
Rp4087
(lp4088
F0.7645000065547842
aF-2.997613125392201
aF0.0
abag3
(g13
g5
Ntp4089
Rp4090
(lp4091
F0.0
aF0.0
aF0.5312894743560667
aF0.8471903531311333
ababag3
(g4
g5
Ntp4092
Rp4093
(lp4094
g3
(g9
g5
Ntp4095
Rp4096
(lp4097
F1.00407733709366
aF-1.9901126488031349
aF0.0
abag3
(g13
g5
Ntp4098
Rp4099
(lp4100
F0.0
aF0.0
aF0.6801448767724007
aF0.7330777220733529
ababag3
(g4
g5
Ntp4101
Rp4102
(lp4103
g3
(g9
g5
Ntp4104
Rp4105
(lp4106
F1.0935732027975067
aF-0.9319760960840686
aF0.0
abag3
(g13
g5
Ntp4107
Rp4108
(lp4109
F0.0
aF0.0
aF0.6303632612237469
aF0.776300302009063
ababag3
(g4
g5
Ntp4110
Rp4111
(lp4112
g3
(g9
g5
Ntp4113
Rp4114
(lp4115
F1.364344962720733
aF-0.2505250966313579
aF0.0
abag3
(g13
g5
Ntp4116
Rp4117
(lp4118
F0.0
aF0.0
aF0.4831508189900883
aF0.8755371414789934
ababag3
(g4
g5
Ntp4119
Rp4120
(lp4121
g3
(g9
g5
Ntp4122
Rp4123
(lp4124
F2.0684307096897245
aF0.40655014968508074
aF0.0
abag3
(g13
g5
Ntp4125
Rp4126
(lp4127
F0.0
aF0.0
aF0.23373087023479366
aF0.9723013320464423
ababag3
(g4
g5
Ntp4128
Rp4129
(lp4130
g3
(g9
g5
Ntp4131
Rp4132
(lp4133
F2.851369244886172
aF0.6256864386552069
aF0.0
abag3
(g13
g5
Ntp4134
Rp4135
(lp4136
F0.0
aF0.0
aF0.050520672676218
aF0.9987230154714282
ababag3
(g4
g5
Ntp4137
Rp4138
(lp4139
g3
(g9
g5
Ntp4140
Rp4141
(lp4142
F3.950861704088506
aF0.5989080264536664
aF0.0
abag3
(g13
g5
Ntp4143
Rp4144
(lp4145
F0.0
aF0.0
aF-0.060025293702831606
aF0.9981968563945134
ababag3
(g4
g5
Ntp4146
Rp4147
(lp4148
g3
(g9
g5
Ntp4149
Rp4150
(lp4151
F4.955779584496797
aF0.36356463993956106
aF0.0
abag3
(g13
g5
Ntp4152
Rp4153
(lp4154
F0.0
aF0.0
aF-0.18505030639926368
aF0.9827290491796499
ababag3
(g4
g5
Ntp4155
Rp4156
(lp4157
g3
(g9
g5
Ntp4158
Rp4159
(lp4160
F5.92796580121613
aF-0.041742177979772095
aF0.0
abag3
(g13
g5
Ntp4161
Rp4162
(lp4163
F0.0
aF0.0
aF-0.15571069832210385
aF0.987802702176929
ababag3
(g4
g5
Ntp4164
Rp4165
(lp4166
g3
(g9
g5
Ntp4167
Rp4168
(lp4169
F6.7008157590284325
aF-0.19702984606945836
aF0.0
abag3
(g13
g5
Ntp4170
Rp4171
(lp4172
F0.0
aF0.0
aF-0.05111339062164944
aF0.9986928563373019
ababag3
(g4
g5
Ntp4173
Rp4174
(lp4175
g3
(g9
g5
Ntp4176
Rp4177
(lp4178
F7.7518806745705655
aF-0.24798575689630806
aF0.0
abag3
(g13
g5
Ntp4179
Rp4180
(lp4181
F0.0
aF0.0
aF-0.018133041803221287
aF0.9998355828809868
ababag3
(g4
g5
Ntp4182
Rp4183
(lp4184
g3
(g9
g5
Ntp4185
Rp4186
(lp4187
F8.79307735993118
aF-0.33648593860749754
aF0.0
abag3
(g13
g5
Ntp4188
Rp4189
(lp4190
F0.0
aF0.0
aF-0.09330457111887987
aF0.9956376132952802
ababag3
(g4
g5
Ntp4191
Rp4192
(lp4193
g3
(g9
g5
Ntp4194
Rp4195
(lp4196
F9.686009938633326
aF-0.7593462998292588
aF0.0
abag3
(g13
g5
Ntp4197
Rp4198
(lp4199
F0.0
aF0.0
aF-0.34336698175959196
aF0.9392013180555636
ababag3
(g4
g5
Ntp4200
Rp4201
(lp4202
g3
(g9
g5
Ntp4203
Rp4204
(lp4205
F10.172777114159262
aF-1.3397036960419701
aF0.0
abag3
(g13
g5
Ntp4206
Rp4207
(lp4208
F0.0
aF0.0
aF-0.49654938039010094
aF0.8680084750935366
ababag3
(g4
g5
Ntp4209
Rp4210
(lp4211
g3
(g9
g5
Ntp4212
Rp4213
(lp4214
F10.604039973839955
aF-2.365582816469194
aF0.0
abag3
(g13
g5
Ntp4215
Rp4216
(lp4217
F0.0
aF0.0
aF-0.628474714780479
aF0.7778300154157047
ababag3
(g4
g5
Ntp4218
Rp4219
(lp4220
g3
(g9
g5
Ntp4221
Rp4222
(lp4223
F10.55720436366818
aF-3.205854795713324
aF0.0
abag3
(g13
g5
Ntp4224
Rp4225
(lp4226
F0.0
aF0.0
aF-0.8294310694929619
aF0.558609077047412
ababag3
(g4
g5
Ntp4227
Rp4228
(lp4229
g3
(g9
g5
Ntp4230
Rp4231
(lp4232
F9.904538035164931
aF-3.882870941887167
aF0.0
abag3
(g13
g5
Ntp4233
Rp4234
(lp4235
F0.0
aF0.0
aF-0.9739026406731411
aF0.2269661791762875
ababag3
(g4
g5
Ntp4236
Rp4237
(lp4238
g3
(g9
g5
Ntp4239
Rp4240
(lp4241
F8.984436334753466
aF-4.0954614841739
aF0.0
abag3
(g13
g5
Ntp4242
Rp4243
(lp4244
F0.0
aF0.0
aF-0.9998797434732029
aF0.015508017022241553
ababag3
(g4
g5
Ntp4245
Rp4246
(lp4247
g3
(g9
g5
Ntp4248
Rp4249
(lp4250
F7.939448867818097
aF-4.0273460121127815
aF0.0
abag3
(g13
g5
Ntp4251
Rp4252
(lp4253
F0.0
aF0.0
aF0.9980182973644955
aF0.06292438418986221
ababag3
(g4
g5
Ntp4254
Rp4255
(lp4256
g3
(g9
g5
Ntp4257
Rp4258
(lp4259
F7.143572612818084
aF-3.9580170732723055
aF0.0
abag3
(g13
g5
Ntp4260
Rp4261
(lp4262
F0.0
aF0.0
aF0.9997680513893286
aF0.021537024427362255
ababag3
(g4
g5
Ntp4263
Rp4264
(lp4265
g3
(g9
g5
Ntp4266
Rp4267
(lp4268
F6.096869843659725
aF-4.027833455338265
aF0.0
abag3
(g13
g5
Ntp4269
Rp4270
(lp4271
F0.0
aF0.0
aF-0.9971861979916096
aF0.07496456853099662
ababag3
(g4
g5
Ntp4272
Rp4273
(lp4274
g3
(g9
g5
Ntp4275
Rp4276
(lp4277
F5.283569648027657
aF-4.152538062137583
aF0.0
abag3
(g13
g5
Ntp4278
Rp4279
(lp4280
F0.0
aF0.0
aF-0.996183473293299
aF0.08728394776417336
ababag3
(g4
g5
Ntp4281
Rp4282
(lp4283
g3
(g9
g5
Ntp4284
Rp4285
(lp4286
F5.283569648027657
aF-4.152538062137583
aF0.0
abag3
(g13
g5
Ntp4287
Rp4288
(lp4289
F0.0
aF0.0
aF-0.996183473293299
aF0.08728394776417336
ababag3
(g4
g5
Ntp4290
Rp4291
(lp4292
g3
(g9
g5
Ntp4293
Rp4294
(lp4295
F5.017471169446965
aF-4.216126542347611
aF0.0
abag3
(g13
g5
Ntp4296
Rp4297
(lp4298
F0.0
aF0.0
aF-0.9876544796239451
aF0.15664810525108208
ababag3
(g4
g5
Ntp4299
Rp4300
(lp4301
g3
(g9
g5
Ntp4302
Rp4303
(lp4304
F5.017471169446965
aF-4.216126542347611
aF0.0
abag3
(g13
g5
Ntp4305
Rp4306
(lp4307
F0.0
aF0.0
aF-0.9876544796239451
aF0.15664810525108208
ababag3
(g4
g5
Ntp4308
Rp4309
(lp4310
g3
(g9
g5
Ntp4311
Rp4312
(lp4313
F5.017471169446965
aF-4.216126542347611
aF0.0
abag3
(g13
g5
Ntp4314
Rp4315
(lp4316
F0.0
aF0.0
aF-0.9876544796239451
aF0.15664810525108208
ababag3
(g4
g5
Ntp4317
Rp4318
(lp4319
g3
(g9
g5
Ntp4320
Rp4321
(lp4322
F4.815280287021729
aF-4.290150383597014
aF0.0
abag3
(g13
g5
Ntp4323
Rp4324
(lp4325
F0.0
aF0.0
aF-0.9557797360947111
aF0.294083484865649
ababag3
(g4
g5
Ntp4326
Rp4327
(lp4328
g3
(g9
g5
Ntp4329
Rp4330
(lp4331
F4.80647474468752
aF-4.314357163793113
aF0.0
abag3
(g13
g5
Ntp4332
Rp4333
(lp4334
F0.0
aF0.0
aF-0.8475999793311952
aF0.5306357272534119
ababaaa(lp4335
I3
aF35.043000000000006
a(lp4336
g3
(g4
g5
Ntp4337
Rp4338
(lp4339
g3
(g9
g5
Ntp4340
Rp4341
(lp4342
F-5.115412341388962
aF-4.0956220190297605
aF0.0
abag3
(g13
g5
Ntp4343
Rp4344
(lp4345
F0.0
aF0.0
aF-0.7739522491264353
aF0.633243962523238
ababag3
(g4
g5
Ntp4346
Rp4347
(lp4348
g3
(g9
g5
Ntp4349
Rp4350
(lp4351
F-5.089499725252378
aF-4.101727596962968
aF0.0
abag3
(g13
g5
Ntp4352
Rp4353
(lp4354
F0.0
aF0.0
aF-0.4463322943033147
aF0.8948672991354301
ababag3
(g4
g5
Ntp4355
Rp4356
(lp4357
g3
(g9
g5
Ntp4358
Rp4359
(lp4360
F-4.702198912693898
aF-4.233999279964287
aF0.0
abag3
(g13
g5
Ntp4361
Rp4362
(lp4363
F0.0
aF0.0
aF0.0017745818991992516
aF0.9999984254283019
ababag3
(g4
g5
Ntp4364
Rp4365
(lp4366
g3
(g9
g5
Ntp4367
Rp4368
(lp4369
F-3.6912117966254114
aF-4.006873292645776
aF0.0
abag3
(g13
g5
Ntp4370
Rp4371
(lp4372
F0.0
aF0.0
aF0.15291750126246095
aF0.988238957847567
ababag3
(g4
g5
Ntp4373
Rp4374
(lp4375
g3
(g9
g5
Ntp4376
Rp4377
(lp4378
F-2.9619407780205473
aF-3.8368248598259527
aF0.0
abag3
(g13
g5
Ntp4379
Rp4380
(lp4381
F0.0
aF0.0
aF0.06688733024945483
aF0.9977605349241372
ababag3
(g4
g5
Ntp4382
Rp4383
(lp4384
g3
(g9
g5
Ntp4385
Rp4386
(lp4387
F-1.9663464281506138
aF-3.7885975973704173
aF0.0
abag3
(g13
g5
Ntp4388
Rp4389
(lp4390
F0.0
aF0.0
aF0.0038470083910883282
aF0.9999926002358412
ababag3
(g4
g5
Ntp4391
Rp4392
(lp4393
g3
(g9
g5
Ntp4394
Rp4395
(lp4396
F-0.9754900804698204
aF-3.7767109754224775
aF0.0
abag3
(g13
g5
Ntp4397
Rp4398
(lp4399
F0.0
aF0.0
aF-0.0035346197350455033
aF0.9999937532121531
ababag3
(g4
g5
Ntp4400
Rp4401
(lp4402
g3
(g9
g5
Ntp4403
Rp4404
(lp4405
F-0.23548245582851787
aF-3.7621647775623934
aF0.0
abag3
(g13
g5
Ntp4406
Rp4407
(lp4408
F0.0
aF0.0
aF0.04301578502758574
aF0.9990743927448349
ababag3
(g4
g5
Ntp4409
Rp4410
(lp4411
g3
(g9
g5
Ntp4412
Rp4413
(lp4414
F0.5516880252644147
aF-3.391451211070467
aF0.0
abag3
(g13
g5
Ntp4415
Rp4416
(lp4417
F0.0
aF0.0
aF0.39081960285243295
aF0.9204672932952407
ababag3
(g4
g5
Ntp4418
Rp4419
(lp4420
g3
(g9
g5
Ntp4421
Rp4422
(lp4423
F0.9575001525182174
aF-2.5460679084081823
aF0.0
abag3
(g13
g5
Ntp4424
Rp4425
(lp4426
F0.0
aF0.0
aF0.636771095438672
aF0.7710528983239955
ababag3
(g4
g5
Ntp4427
Rp4428
(lp4429
g3
(g9
g5
Ntp4430
Rp4431
(lp4432
F1.025824248186184
aF-1.557438511764259
aF0.0
abag3
(g13
g5
Ntp4433
Rp4434
(lp4435
F0.0
aF0.0
aF0.7064284287251872
aF0.7077844835038863
ababag3
(g4
g5
Ntp4436
Rp4437
(lp4438
g3
(g9
g5
Ntp4439
Rp4440
(lp4441
F1.1720533427555535
aF-0.6382157186933926
aF0.0
abag3
(g13
g5
Ntp4442
Rp4443
(lp4444
F0.0
aF0.0
aF0.5694983105763904
aF0.8219925025513536
ababag3
(g4
g5
Ntp4445
Rp4446
(lp4447
g3
(g9
g5
Ntp4448
Rp4449
(lp4450
F1.4863368406290718
aF0.017889029002044456
aF0.0
abag3
(g13
g5
Ntp4451
Rp4452
(lp4453
F0.0
aF0.0
aF0.4641869038357436
aF0.8857372738613782
ababag3
(g4
g5
Ntp4454
Rp4455
(lp4456
g3
(g9
g5
Ntp4457
Rp4458
(lp4459
F2.190884437083163
aF0.5237082031983346
aF0.0
abag3
(g13
g5
Ntp4460
Rp4461
(lp4462
F0.0
aF0.0
aF0.1778144419932205
aF0.9840640346129106
ababag3
(g4
g5
Ntp4463
Rp4464
(lp4465
g3
(g9
g5
Ntp4466
Rp4467
(lp4468
F3.2432973661527105
aF0.6818191248634838
aF0.0
abag3
(g13
g5
Ntp4469
Rp4470
(lp4471
F0.0
aF0.0
aF-0.011928744598391392
aF0.9999288499949915
ababag3
(g4
g5
Ntp4472
Rp4473
(lp4474
g3
(g9
g5
Ntp4475
Rp4476
(lp4477
F4.255787003892631
aF0.6028105622410307
aF0.0
abag3
(g13
g5
Ntp4478
Rp4479
(lp4480
F0.0
aF0.0
aF-0.062187557113497896
aF0.9980644807527494
ababag3
(g4
g5
Ntp4481
Rp4482
(lp4483
g3
(g9
g5
Ntp4484
Rp4485
(lp4486
F4.960044974532518
aF0.41233974428653236
aF0.0
abag3
(g13
g5
Ntp4487
Rp4488
(lp4489
F0.0
aF0.0
aF-0.2218071573487105
aF0.9750905521790704
ababag3
(g4
g5
Ntp4490
Rp4491
(lp4492
g3
(g9
g5
Ntp4493
Rp4494
(lp4495
F5.875183956283669
aF0.004764474445482636
aF0.0
abag3
(g13
g5
Ntp4496
Rp4497
(lp4498
F0.0
aF0.0
aF-0.15967472190578605
aF0.9871696830759694
ababag3
(g4
g5
Ntp4499
Rp4500
(lp4501
g3
(g9
g5
Ntp4502
Rp4503
(lp4504
F6.868781721224613
aF-0.21621281193286132
aF0.0
abag3
(g13
g5
Ntp4505
Rp4506
(lp4507
F0.0
aF0.0
aF-0.07409367416363004
aF0.997251286010168
ababag3
(g4
g5
Ntp4508
Rp4509
(lp4510
g3
(g9
g5
Ntp4511
Rp4512
(lp4513
F7.8867722896322565
aF-0.3199778738881603
aF0.0
abag3
(g13
g5
Ntp4514
Rp4515
(lp4516
F0.0
aF0.0
aF-0.031069301695158865
aF0.9995172327139613
ababag3
(g4
g5
Ntp4517
Rp4518
(lp4519
g3
(g9
g5
Ntp4520
Rp4521
(lp4522
F8.658521154756796
aF-0.3768222945884375
aF0.0
abag3
(g13
g5
Ntp4523
Rp4524
(lp4525
F0.0
aF0.0
aF-0.04318323784250662
aF0.9990671688977861
ababag3
(g4
g5
Ntp4526
Rp4527
(lp4528
g3
(g9
g5
Ntp4529
Rp4530
(lp4531
F9.597204298647938
aF-0.6414958810345507
aF0.0
abag3
(g13
g5
Ntp4532
Rp4533
(lp4534
F0.0
aF0.0
aF-0.2780174576538036
aF0.9605760215827353
ababag3
(g4
g5
Ntp4535
Rp4536
(lp4537
g3
(g9
g5
Ntp4538
Rp4539
(lp4540
F10.184914678451833
aF-1.262770377493986
aF0.0
abag3
(g13
g5
Ntp4541
Rp4542
(lp4543
F0.0
aF0.0
aF-0.49819128987184913
aF0.8670671477433701
ababag3
(g4
g5
Ntp4544
Rp4545
(lp4546
g3
(g9
g5
Ntp4547
Rp4548
(lp4549
F10.567106045616853
aF-2.271437809906401
aF0.0
abag3
(g13
g5
Ntp4550
Rp4551
(lp4552
F0.0
aF0.0
aF-0.6485405957234701
aF0.7611800678542802
ababag3
(g4
g5
Ntp4553
Rp4554
(lp4555
g3
(g9
g5
Ntp4556
Rp4557
(lp4558
F10.521781222295797
aF-3.2576763117735195
aF0.0
abag3
(g13
g5
Ntp4559
Rp4560
(lp4561
F0.0
aF0.0
aF-0.808640321590525
aF0.5883033488753674
ababag3
(g4
g5
Ntp4562
Rp4563
(lp4564
g3
(g9
g5
Ntp4565
Rp4566
(lp4567
F10.017873244722185
aF-3.8569698794166487
aF0.0
abag3
(g13
g5
Ntp4568
Rp4569
(lp4570
F0.0
aF0.0
aF-0.9635442606783419
aF0.26754898189645127
ababag3
(g4
g5
Ntp4571
Rp4572
(lp4573
g3
(g9
g5
Ntp4574
Rp4575
(lp4576
F9.278262604035877
aF-4.099552590480465
aF0.0
abag3
(g13
g5
Ntp4577
Rp4578
(lp4579
F0.0
aF0.0
aF-0.9980240155857162
aF0.06283362407311961
ababag3
(g4
g5
Ntp4580
Rp4581
(lp4582
g3
(g9
g5
Ntp4583
Rp4584
(lp4585
F8.239820243969394
aF-4.086229040871782
aF0.0
abag3
(g13
g5
Ntp4586
Rp4587
(lp4588
F0.0
aF0.0
aF0.999339590645008
aF0.03633706880676768
ababag3
(g4
g5
Ntp4589
Rp4590
(lp4591
g3
(g9
g5
Ntp4592
Rp4593
(lp4594
F7.1958049439004315
aF-4.03064209274893
aF0.0
abag3
(g13
g5
Ntp4595
Rp4596
(lp4597
F0.0
aF0.0
aF0.9998581945644038
aF0.01684015327752978
ababag3
(g4
g5
Ntp4598
Rp4599
(lp4600
g3
(g9
g5
Ntp4601
Rp4602
(lp4603
F6.162701483532134
aF-4.034810928163184
aF0.0
abag3
(g13
g5
Ntp4604
Rp4605
(lp4606
F0.0
aF0.0
aF-0.9995791283521436
aF0.0290097597847492
ababag3
(g4
g5
Ntp4607
Rp4608
(lp4609
g3
(g9
g5
Ntp4610
Rp4611
(lp4612
F5.419936534119079
aF-4.102517464991039
aF0.0
abag3
(g13
g5
Ntp4613
Rp4614
(lp4615
F0.0
aF0.0
aF-0.9968869108592991
aF0.07884470151762749
ababag3
(g4
g5
Ntp4616
Rp4617
(lp4618
g3
(g9
g5
Ntp4619
Rp4620
(lp4621
F5.199180977292439
aF-4.146250449007755
aF0.0
abag3
(g13
g5
Ntp4622
Rp4623
(lp4624
F0.0
aF0.0
aF-0.9933626827154713
aF0.11502426086840024
ababag3
(g4
g5
Ntp4625
Rp4626
(lp4627
g3
(g9
g5
Ntp4628
Rp4629
(lp4630
F5.199180977292439
aF-4.146250449007755
aF0.0
abag3
(g13
g5
Ntp4631
Rp4632
(lp4633
F0.0
aF0.0
aF-0.9933626827154713
aF0.11502426086840024
ababag3
(g4
g5
Ntp4634
Rp4635
(lp4636
g3
(g9
g5
Ntp4637
Rp4638
(lp4639
F4.985465695170964
aF-4.208078989778377
aF0.0
abag3
(g13
g5
Ntp4640
Rp4641
(lp4642
F0.0
aF0.0
aF-0.9670303121880808
aF0.2546612952716276
ababag3
(g4
g5
Ntp4643
Rp4644
(lp4645
g3
(g9
g5
Ntp4646
Rp4647
(lp4648
F4.972718688396697
aF-4.221057510001819
aF0.0
abag3
(g13
g5
Ntp4649
Rp4650
(lp4651
F0.0
aF0.0
aF-0.8727070415231769
aF0.4882442213440565
ababaaa(lp4652
I3
aF41.56099999999992
a(lp4653
g3
(g4
g5
Ntp4654
Rp4655
(lp4656
g3
(g9
g5
Ntp4657
Rp4658
(lp4659
F-5.115054499619207
aF-4.0981671558842505
aF0.0
abag3
(g13
g5
Ntp4660
Rp4661
(lp4662
F0.0
aF0.0
aF-0.7755404799333506
aF0.6312978409473203
ababag3
(g4
g5
Ntp4663
Rp4664
(lp4665
g3
(g9
g5
Ntp4666
Rp4667
(lp4668
F-5.0894193270449675
aF-4.12757425641165
aF0.0
abag3
(g13
g5
Ntp4669
Rp4670
(lp4671
F0.0
aF0.0
aF-0.4003339120074403
aF0.9163693354193052
ababag3
(g4
g5
Ntp4672
Rp4673
(lp4674
g3
(g9
g5
Ntp4675
Rp4676
(lp4677
F-4.7229975122055325
aF-4.197282131960154
aF0.0
abag3
(g13
g5
Ntp4678
Rp4679
(lp4680
F0.0
aF0.0
aF0.059802325939609685
aF0.9982102392843968
ababag3
(g4
g5
Ntp4681
Rp4682
(lp4683
g3
(g9
g5
Ntp4684
Rp4685
(lp4686
F-3.717995855794819
aF-3.9363881962092813
aF0.0
abag3
(g13
g5
Ntp4687
Rp4688
(lp4689
F0.0
aF0.0
aF0.12671546467270456
aF0.9919391065044167
ababag3
(g4
g5
Ntp4690
Rp4691
(lp4692
g3
(g9
g5
Ntp4693
Rp4694
(lp4695
F-2.663487835152679
aF-3.788405925366331
aF0.0
abag3
(g13
g5
Ntp4696
Rp4697
(lp4698
F0.0
aF0.0
aF0.027566120079665312
aF0.9996199823051526
ababag3
(g4
g5
Ntp4699
Rp4700
(lp4701
g3
(g9
g5
Ntp4702
Rp4703
(lp4704
F-1.8584983845397334
aF-3.76858247759993
aF0.0
abag3
(g13
g5
Ntp4705
Rp4706
(lp4707
F0.0
aF0.0
aF0.00031218474901696284
aF0.99999995127034
ababag3
(g4
g5
Ntp4708
Rp4709
(lp4710
g3
(g9
g5
Ntp4711
Rp4712
(lp4713
F-0.7927133198678484
aF-3.747959504119366
aF0.0
abag3
(g13
g5
Ntp4714
Rp4715
(lp4716
F0.0
aF0.0
aF0.010723577380649402
aF0.9999425007910011
ababag3
(g4
g5
Ntp4717
Rp4718
(lp4719
g3
(g9
g5
Ntp4720
Rp4721
(lp4722
F0.21989876481346618
aF-3.624939032988894
aF0.0
abag3
(g13
g5
Ntp4723
Rp4724
(lp4725
F0.0
aF0.0
aF0.18533384107123516
aF0.982675616545858
ababag3
(g4
g5
Ntp4726
Rp4727
(lp4728
g3
(g9
g5
Ntp4729
Rp4730
(lp4731
F0.8704779029157531
aF-2.9944436090045023
aF0.0
abag3
(g13
g5
Ntp4732
Rp4733
(lp4734
F0.0
aF0.0
aF0.5085311923144306
aF0.8610435682607842
ababag3
(g4
g5
Ntp4735
Rp4736
(lp4737
g3
(g9
g5
Ntp4738
Rp4739
(lp4740
F1.087934588720388
aF-2.308279080337218
aF0.0
abag3
(g13
g5
Ntp4741
Rp4742
(lp4743
F0.0
aF0.0
aF0.6352077897745347
aF0.7723412871326707
ababag3
(g4
g5
Ntp4744
Rp4745
(lp4746
g3
(g9
g5
Ntp4747
Rp4748
(lp4749
F1.087934588720388
aF-2.308279080337218
aF0.0
abag3
(g13
g5
Ntp4750
Rp4751
(lp4752
F0.0
aF0.0
aF0.6352077897745347
aF0.7723412871326707
ababag3
(g4
g5
Ntp4753
Rp4754
(lp4755
g3
(g9
g5
Ntp4756
Rp4757
(lp4758
F1.087934588720388
aF-2.308279080337218
aF0.0
abag3
(g13
g5
Ntp4759
Rp4760
(lp4761
F0.0
aF0.0
aF0.6352077897745347
aF0.7723412871326707
ababag3
(g4
g5
Ntp4762
Rp4763
(lp4764
g3
(g9
g5
Ntp4765
Rp4766
(lp4767
F1.087934588720388
aF-2.308279080337218
aF0.0
abag3
(g13
g5
Ntp4768
Rp4769
(lp4770
F0.0
aF0.0
aF0.6352077897745347
aF0.7723412871326707
ababag3
(g4
g5
Ntp4771
Rp4772
(lp4773
g3
(g9
g5
Ntp4774
Rp4775
(lp4776
F1.087934588720388
aF-2.308279080337218
aF0.0
abag3
(g13
g5
Ntp4777
Rp4778
(lp4779
F0.0
aF0.0
aF0.6352077897745347
aF0.7723412871326707
ababag3
(g4
g5
Ntp4780
Rp4781
(lp4782
g3
(g9
g5
Ntp4783
Rp4784
(lp4785
F1.0694676611283898
aF-1.9505792303947977
aF0.0
abag3
(g13
g5
Ntp4786
Rp4787
(lp4788
F0.0
aF0.0
aF0.7828770873686234
aF0.6221763946608879
ababag3
(g4
g5
Ntp4789
Rp4790
(lp4791
g3
(g9
g5
Ntp4792
Rp4793
(lp4794
F1.007908145375061
aF-1.2690855217031154
aF0.0
abag3
(g13
g5
Ntp4795
Rp4796
(lp4797
F0.0
aF0.0
aF0.6895134706160481
aF0.7242728586927805
ababag3
(g4
g5
Ntp4798
Rp4799
(lp4800
g3
(g9
g5
Ntp4801
Rp4802
(lp4803
F1.2069094225501271
aF-0.281837237992231
aF0.0
abag3
(g13
g5
Ntp4804
Rp4805
(lp4806
F0.0
aF0.0
aF0.5944835619881009
aF0.8041077630056432
ababag3
(g4
g5
Ntp4807
Rp4808
(lp4809
g3
(g9
g5
Ntp4810
Rp4811
(lp4812
F1.7187852174386475
aF0.41316029363063983
aF0.0
abag3
(g13
g5
Ntp4813
Rp4814
(lp4815
F0.0
aF0.0
aF0.28933059376695747
aF0.957229234567384
ababag3
(g4
g5
Ntp4816
Rp4817
(lp4818
g3
(g9
g5
Ntp4819
Rp4820
(lp4821
F2.6598993427406987
aF0.7193378127619107
aF0.0
abag3
(g13
g5
Ntp4822
Rp4823
(lp4824
F0.0
aF0.0
aF0.03818707905417363
aF0.9992706074899382
ababag3
(g4
g5
Ntp4825
Rp4826
(lp4827
g3
(g9
g5
Ntp4828
Rp4829
(lp4830
F3.4278168926255983
aF0.6705222685568083
aF0.0
abag3
(g13
g5
Ntp4831
Rp4832
(lp4833
F0.0
aF0.0
aF-0.09056637426110636
aF0.9958904216093241
ababag3
(g4
g5
Ntp4834
Rp4835
(lp4836
g3
(g9
g5
Ntp4837
Rp4838
(lp4839
F4.472117404304756
aF0.5010832328110002
aF0.0
abag3
(g13
g5
Ntp4840
Rp4841
(lp4842
F0.0
aF0.0
aF-0.096006668118178
aF0.9953806908298182
ababag3
(g4
g5
Ntp4843
Rp4844
(lp4845
g3
(g9
g5
Ntp4846
Rp4847
(lp4848
F5.39584778775323
aF0.10676480294913378
aF0.0
abag3
(g13
g5
Ntp4849
Rp4850
(lp4851
F0.0
aF0.0
aF-0.2806422475293158
aF0.9598124446482731
ababag3
(g4
g5
Ntp4852
Rp4853
(lp4854
g3
(g9
g5
Ntp4855
Rp4856
(lp4857
F6.338863744788553
aF-0.30129596019308863
aF0.0
abag3
(g13
g5
Ntp4858
Rp4859
(lp4860
F0.0
aF0.0
aF-0.10151093388746556
aF0.994834423560672
ababag3
(g4
g5
Ntp4861
Rp4862
(lp4863
g3
(g9
g5
Ntp4864
Rp4865
(lp4866
F7.12514266080159
aF-0.37698825111189643
aF0.0
abag3
(g13
g5
Ntp4867
Rp4868
(lp4869
F0.0
aF0.0
aF-0.010916286282064168
aF0.999940415571752
ababag3
(g4
g5
Ntp4870
Rp4871
(lp4872
g3
(g9
g5
Ntp4873
Rp4874
(lp4875
F8.183388378245825
aF-0.38254364558480825
aF0.0
abag3
(g13
g5
Ntp4876
Rp4877
(lp4878
F0.0
aF0.0
aF0.011136530483558872
aF0.9999379869215834
ababag3
(g4
g5
Ntp4879
Rp4880
(lp4881
g3
(g9
g5
Ntp4882
Rp4883
(lp4884
F9.22860586214696
aF-0.46737599831418786
aF0.0
abag3
(g13
g5
Ntp4885
Rp4886
(lp4887
F0.0
aF0.0
aF-0.12830595902366992
aF0.9917346322877992
ababag3
(g4
g5
Ntp4888
Rp4889
(lp4890
g3
(g9
g5
Ntp4891
Rp4892
(lp4893
F9.965708323710562
aF-0.9090474964083639
aF0.0
abag3
(g13
g5
Ntp4894
Rp4895
(lp4896
F0.0
aF0.0
aF-0.38384123364517087
aF0.9233991051293874
ababag3
(g4
g5
Ntp4897
Rp4898
(lp4899
g3
(g9
g5
Ntp4900
Rp4901
(lp4902
F10.436543701548743
aF-1.599591345460119
aF0.0
abag3
(g13
g5
Ntp4903
Rp4904
(lp4905
F0.0
aF0.0
aF-0.5364805796134797
aF0.8439126659184496
ababag3
(g4
g5
Ntp4906
Rp4907
(lp4908
g3
(g9
g5
Ntp4909
Rp4910
(lp4911
F10.671859639502705
aF-2.597738900179621
aF0.0
abag3
(g13
g5
Ntp4912
Rp4913
(lp4914
F0.0
aF0.0
aF-0.6961681706998086
aF0.71787873495771
ababag3
(g4
g5
Ntp4915
Rp4916
(lp4917
g3
(g9
g5
Ntp4918
Rp4919
(lp4920
F10.457614940725996
aF-3.57714340808801
aF0.0
abag3
(g13
g5
Ntp4921
Rp4922
(lp4923
F0.0
aF0.0
aF-0.8977815150221106
aF0.44044108718942643
ababag3
(g4
g5
Ntp4924
Rp4925
(lp4926
g3
(g9
g5
Ntp4927
Rp4928
(lp4929
F9.824341882313927
aF-4.0000314175562925
aF0.0
abag3
(g13
g5
Ntp4930
Rp4931
(lp4932
F0.0
aF0.0
aF-0.9872745123485474
aF0.1590252724158587
ababag3
(g4
g5
Ntp4933
Rp4934
(lp4935
g3
(g9
g5
Ntp4936
Rp4937
(lp4938
F8.80340701124771
aF-4.060924741214045
aF0.0
abag3
(g13
g5
Ntp4939
Rp4940
(lp4941
F0.0
aF0.0
aF0.9979808853874265
aF0.06351497777161248
ababag3
(g4
g5
Ntp4942
Rp4943
(lp4944
g3
(g9
g5
Ntp4945
Rp4946
(lp4947
F7.741568710555529
aF-3.935675043511732
aF0.0
abag3
(g13
g5
Ntp4948
Rp4949
(lp4950
F0.0
aF0.0
aF0.9992048294245138
aF0.03987115316526814
ababag3
(g4
g5
Ntp4951
Rp4952
(lp4953
g3
(g9
g5
Ntp4954
Rp4955
(lp4956
F6.948012834306413
aF-3.915509551536457
aF0.0
abag3
(g13
g5
Ntp4957
Rp4958
(lp4959
F0.0
aF0.0
aF-0.9999849663250263
aF0.005483349700324539
ababag3
(g4
g5
Ntp4960
Rp4961
(lp4962
g3
(g9
g5
Ntp4963
Rp4964
(lp4965
F5.894336977839816
aF-4.0131909102018595
aF0.0
abag3
(g13
g5
Ntp4966
Rp4967
(lp4968
F0.0
aF0.0
aF-0.9971381194616016
aF0.07560139361533487
ababag3
(g4
g5
Ntp4969
Rp4970
(lp4971
g3
(g9
g5
Ntp4972
Rp4973
(lp4974
F5.206493116109477
aF-4.14511716242876
aF0.0
abag3
(g13
g5
Ntp4975
Rp4976
(lp4977
F0.0
aF0.0
aF-0.9922374012865751
aF0.12435810986045101
ababag3
(g4
g5
Ntp4978
Rp4979
(lp4980
g3
(g9
g5
Ntp4981
Rp4982
(lp4983
F5.004231922170987
aF-4.203247486499566
aF0.0
abag3
(g13
g5
Ntp4984
Rp4985
(lp4986
F0.0
aF0.0
aF-0.9859476438543375
aF0.16705461256152254
ababag3
(g4
g5
Ntp4987
Rp4988
(lp4989
g3
(g9
g5
Ntp4990
Rp4991
(lp4992
F5.004231922170987
aF-4.203247486499566
aF0.0
abag3
(g13
g5
Ntp4993
Rp4994
(lp4995
F0.0
aF0.0
aF-0.9859476438543375
aF0.16705461256152254
ababag3
(g4
g5
Ntp4996
Rp4997
(lp4998
g3
(g9
g5
Ntp4999
Rp5000
(lp5001
F5.004231922170987
aF-4.203247486499566
aF0.0
abag3
(g13
g5
Ntp5002
Rp5003
(lp5004
F0.0
aF0.0
aF-0.9859476438543375
aF0.16705461256152254
ababag3
(g4
g5
Ntp5005
Rp5006
(lp5007
g3
(g9
g5
Ntp5008
Rp5009
(lp5010
F5.004231922170987
aF-4.203247486499566
aF0.0
abag3
(g13
g5
Ntp5011
Rp5012
(lp5013
F0.0
aF0.0
aF-0.9859476438543375
aF0.16705461256152254
ababag3
(g4
g5
Ntp5014
Rp5015
(lp5016
g3
(g9
g5
Ntp5017
Rp5018
(lp5019
F4.820993637253398
aF-4.274067667823588
aF0.0
abag3
(g13
g5
Ntp5020
Rp5021
(lp5022
F0.0
aF0.0
aF-0.958747226215605
aF0.2842600151690057
ababag3
(g4
g5
Ntp5023
Rp5024
(lp5025
g3
(g9
g5
Ntp5026
Rp5027
(lp5028
F4.800336401519419
aF-4.303372417835662
aF0.0
abag3
(g13
g5
Ntp5029
Rp5030
(lp5031
F0.0
aF0.0
aF-0.8539890391869381
aF0.5202909964131325
ababaaa(lp5032
I3
aF39.960999999999956
a(lp5033
g3
(g4
g5
Ntp5034
Rp5035
(lp5036
g3
(g9
g5
Ntp5037
Rp5038
(lp5039
F-5.115412341388963
aF-4.095622019029758
aF0.0
abag3
(g13
g5
Ntp5040
Rp5041
(lp5042
F0.0
aF0.0
aF-0.7739522491264353
aF0.633243962523238
ababag3
(g4
g5
Ntp5043
Rp5044
(lp5045
g3
(g9
g5
Ntp5046
Rp5047
(lp5048
F-5.115412341388963
aF-4.095622019029758
aF0.0
abag3
(g13
g5
Ntp5049
Rp5050
(lp5051
F0.0
aF0.0
aF-0.7739522491264353
aF0.633243962523238
ababag3
(g4
g5
Ntp5052
Rp5053
(lp5054
g3
(g9
g5
Ntp5055
Rp5056
(lp5057
F-5.115545199723913
aF-4.117176964183982
aF0.0
abag3
(g13
g5
Ntp5058
Rp5059
(lp5060
F0.0
aF0.0
aF-0.9598339784109897
aF0.2805685903442005
ababag3
(g4
g5
Ntp5061
Rp5062
(lp5063
g3
(g9
g5
Ntp5064
Rp5065
(lp5066
F-5.125994537033137
aF-4.0801921486449935
aF0.0
abag3
(g13
g5
Ntp5067
Rp5068
(lp5069
F0.0
aF0.0
aF0.8704242521668301
aF0.49230236769673835
ababag3
(g4
g5
Ntp5070
Rp5071
(lp5072
g3
(g9
g5
Ntp5073
Rp5074
(lp5075
F-5.104141210089296
aF-3.855615019617503
aF0.0
abag3
(g13
g5
Ntp5076
Rp5077
(lp5078
F0.0
aF0.0
aF0.4825501071150931
aF0.8758683657509342
ababag3
(g4
g5
Ntp5079
Rp5080
(lp5081
g3
(g9
g5
Ntp5082
Rp5083
(lp5084
F-4.191553229424547
aF-3.4638064770532697
aF0.0
abag3
(g13
g5
Ntp5085
Rp5086
(lp5087
F0.0
aF0.0
aF0.04877029385698916
aF0.9988100211937718
ababag3
(g4
g5
Ntp5088
Rp5089
(lp5090
g3
(g9
g5
Ntp5091
Rp5092
(lp5093
F-3.1870004795598477
aF-3.6148546478334387
aF0.0
abag3
(g13
g5
Ntp5094
Rp5095
(lp5096
F0.0
aF0.0
aF-0.13834282024319836
aF0.9903844021828888
ababag3
(g4
g5
Ntp5097
Rp5098
(lp5099
g3
(g9
g5
Ntp5100
Rp5101
(lp5102
F-2.412808881549525
aF-3.7879296494437398
aF0.0
abag3
(g13
g5
Ntp5103
Rp5104
(lp5105
F0.0
aF0.0
aF-0.06837915167824712
aF0.9976594066191945
ababag3
(g4
g5
Ntp5106
Rp5107
(lp5108
g3
(g9
g5
Ntp5109
Rp5110
(lp5111
F-1.3753286160691145
aF-3.8486363902424574
aF0.0
abag3
(g13
g5
Ntp5112
Rp5113
(lp5114
F0.0
aF0.0
aF0.006409176833599533
aF0.9999794610152328
ababag3
(g4
g5
Ntp5115
Rp5116
(lp5117
g3
(g9
g5
Ntp5118
Rp5119
(lp5120
F-0.3416236531411586
aF-3.803431155653132
aF0.0
abag3
(g13
g5
Ntp5121
Rp5122
(lp5123
F0.0
aF0.0
aF0.04536036751702278
aF0.9989706887885753
ababag3
(g4
g5
Ntp5124
Rp5125
(lp5126
g3
(g9
g5
Ntp5127
Rp5128
(lp5129
F0.364654447329945
aF-3.600874102154118
aF0.0
abag3
(g13
g5
Ntp5130
Rp5131
(lp5132
F0.0
aF0.0
aF0.2657620831376618
aF0.9640386481704614
ababag3
(g4
g5
Ntp5133
Rp5134
(lp5135
g3
(g9
g5
Ntp5136
Rp5137
(lp5138
F1.0106399862205937
aF-2.704340558163795
aF0.0
abag3
(g13
g5
Ntp5139
Rp5140
(lp5141
F0.0
aF0.0
aF0.6284018185158456
aF0.7778889088333746
ababag3
(g4
g5
Ntp5142
Rp5143
(lp5144
g3
(g9
g5
Ntp5145
Rp5146
(lp5147
F1.0539993121142754
aF-2.234607720698918
aF0.0
abag3
(g13
g5
Ntp5148
Rp5149
(lp5150
F0.0
aF0.0
aF0.6964879949097584
aF0.7175684447818091
ababag3
(g4
g5
Ntp5151
Rp5152
(lp5153
g3
(g9
g5
Ntp5154
Rp5155
(lp5156
F1.041638245910528
aF-1.760599153883783
aF0.0
abag3
(g13
g5
Ntp5157
Rp5158
(lp5159
F0.0
aF0.0
aF0.7162194017190391
aF0.6978751812474934
ababag3
(g4
g5
Ntp5160
Rp5161
(lp5162
g3
(g9
g5
Ntp5163
Rp5164
(lp5165
F1.1014986590560198
aF-0.7770351943066915
aF0.0
abag3
(g13
g5
Ntp5166
Rp5167
(lp5168
F0.0
aF0.0
aF0.6551200150660781
aF0.7555248280896013
ababag3
(g4
g5
Ntp5169
Rp5170
(lp5171
g3
(g9
g5
Ntp5172
Rp5173
(lp5174
F1.2845553498068987
aF-0.05305590435160742
aF0.0
abag3
(g13
g5
Ntp5175
Rp5176
(lp5177
F0.0
aF0.0
aF0.5372358540888037
aF0.8434320583671655
ababag3
(g4
g5
Ntp5178
Rp5179
(lp5180
g3
(g9
g5
Ntp5181
Rp5182
(lp5183
F2.144836954926539
aF0.6115947601342581
aF0.0
abag3
(g13
g5
Ntp5184
Rp5185
(lp5186
F0.0
aF0.0
aF0.1228900752705006
aF0.9924202886882204
ababag3
(g4
g5
Ntp5187
Rp5188
(lp5189
g3
(g9
g5
Ntp5190
Rp5191
(lp5192
F2.894612318567574
aF0.6444374966919496
aF0.0
abag3
(g13
g5
Ntp5193
Rp5194
(lp5195
F0.0
aF0.0
aF-0.05143770819748688
aF0.9986762048709232
ababag3
(g4
g5
Ntp5196
Rp5197
(lp5198
g3
(g9
g5
Ntp5199
Rp5200
(lp5201
F3.9360368372081753
aF0.5269677582099959
aF0.0
abag3
(g13
g5
Ntp5202
Rp5203
(lp5204
F0.0
aF0.0
aF-0.05652431079457037
aF0.9984012231008127
ababag3
(g4
g5
Ntp5205
Rp5206
(lp5207
g3
(g9
g5
Ntp5208
Rp5209
(lp5210
F4.970110799542747
aF0.39722527325749457
aF0.0
abag3
(g13
g5
Ntp5211
Rp5212
(lp5213
F0.0
aF0.0
aF-0.08520278224396877
aF0.9963636313605022
ababag3
(g4
g5
Ntp5214
Rp5215
(lp5216
g3
(g9
g5
Ntp5217
Rp5218
(lp5219
F5.998002350243438
aF0.1851039471009638
aF0.0
abag3
(g13
g5
Ntp5220
Rp5221
(lp5222
F0.0
aF0.0
aF-0.1046873998110341
aF0.9945051776239301
ababag3
(g4
g5
Ntp5223
Rp5224
(lp5225
g3
(g9
g5
Ntp5226
Rp5227
(lp5228
F6.765364711398322
aF0.03508985687891865
aF0.0
abag3
(g13
g5
Ntp5229
Rp5230
(lp5231
F0.0
aF0.0
aF-0.0802969068337059
aF0.9967709901240802
ababag3
(g4
g5
Ntp5232
Rp5233
(lp5234
g3
(g9
g5
Ntp5235
Rp5236
(lp5237
F7.79956399111434
aF-0.11805601571286793
aF0.0
abag3
(g13
g5
Ntp5238
Rp5239
(lp5240
F0.0
aF0.0
aF-0.08400099326830454
aF0.9964656708236056
ababag3
(g4
g5
Ntp5241
Rp5242
(lp5243
g3
(g9
g5
Ntp5244
Rp5245
(lp5246
F8.836862171749678
aF-0.31712777540558157
aF0.0
abag3
(g13
g5
Ntp5247
Rp5248
(lp5249
F0.0
aF0.0
aF-0.12606144018287702
aF0.9920224358849042
ababag3
(g4
g5
Ntp5250
Rp5251
(lp5252
g3
(g9
g5
Ntp5253
Rp5254
(lp5255
F9.58204963109512
aF-0.6325148337830105
aF0.0
abag3
(g13
g5
Ntp5256
Rp5257
(lp5258
F0.0
aF0.0
aF-0.3008690253904491
aF0.9536654704667676
ababag3
(g4
g5
Ntp5259
Rp5260
(lp5261
g3
(g9
g5
Ntp5262
Rp5263
(lp5264
F10.308169515999221
aF-1.5276533896927273
aF0.0
abag3
(g13
g5
Ntp5265
Rp5266
(lp5267
F0.0
aF0.0
aF-0.5208755557688182
aF0.853632623206567
ababag3
(g4
g5
Ntp5268
Rp5269
(lp5270
g3
(g9
g5
Ntp5271
Rp5272
(lp5273
F10.580472486511805
aF-2.2485027158035535
aF0.0
abag3
(g13
g5
Ntp5274
Rp5275
(lp5276
F0.0
aF0.0
aF-0.6295643513403483
aF0.776948342891216
ababag3
(g4
g5
Ntp5277
Rp5278
(lp5279
g3
(g9
g5
Ntp5280
Rp5281
(lp5282
F10.604401778807054
aF-3.235740847812933
aF0.0
abag3
(g13
g5
Ntp5283
Rp5284
(lp5285
F0.0
aF0.0
aF-0.802634831191265
aF0.5964707266568658
ababag3
(g4
g5
Ntp5286
Rp5287
(lp5288
g3
(g9
g5
Ntp5289
Rp5290
(lp5291
F10.063221939860018
aF-3.8717686250025496
aF0.0
abag3
(g13
g5
Ntp5292
Rp5293
(lp5294
F0.0
aF0.0
aF-0.9693331611658006
aF0.24575032586817894
ababag3
(g4
g5
Ntp5295
Rp5296
(lp5297
g3
(g9
g5
Ntp5298
Rp5299
(lp5300
F9.111472048363627
aF-4.041458402397718
aF0.0
abag3
(g13
g5
Ntp5301
Rp5302
(lp5303
F0.0
aF0.0
aF0.9992833783939161
aF0.037851415635896474
ababag3
(g4
g5
Ntp5304
Rp5305
(lp5306
g3
(g9
g5
Ntp5307
Rp5308
(lp5309
F8.326751551099584
aF-3.9436634923015705
aF0.0
abag3
(g13
g5
Ntp5310
Rp5311
(lp5312
F0.0
aF0.0
aF0.9981811385724958
aF0.06028610617809042
ababag3
(g4
g5
Ntp5313
Rp5314
(lp5315
g3
(g9
g5
Ntp5316
Rp5317
(lp5318
F7.267343326868129
aF-3.9084477199832066
aF0.0
abag3
(g13
g5
Ntp5319
Rp5320
(lp5321
F0.0
aF0.0
aF-0.9998489866370063
aF0.017378260009324777
ababag3
(g4
g5
Ntp5322
Rp5323
(lp5324
g3
(g9
g5
Ntp5325
Rp5326
(lp5327
F6.212738757080299
aF-3.989896063465211
aF0.0
abag3
(g13
g5
Ntp5328
Rp5329
(lp5330
F0.0
aF0.0
aF-0.9989847366438447
aF0.045049927332107685
ababag3
(g4
g5
Ntp5331
Rp5332
(lp5333
g3
(g9
g5
Ntp5334
Rp5335
(lp5336
F5.4474930771301695
aF-4.09608368576615
aF0.0
abag3
(g13
g5
Ntp5337
Rp5338
(lp5339
F0.0
aF0.0
aF-0.9953552963565941
aF0.09626959029141384
ababag3
(g4
g5
Ntp5340
Rp5341
(lp5342
g3
(g9
g5
Ntp5343
Rp5344
(lp5345
F5.226874187394472
aF-4.141575509349727
aF0.0
abag3
(g13
g5
Ntp5346
Rp5347
(lp5348
F0.0
aF0.0
aF-0.9950267676563807
aF0.09960788948318862
ababag3
(g4
g5
Ntp5349
Rp5350
(lp5351
g3
(g9
g5
Ntp5352
Rp5353
(lp5354
F5.02127442895987
aF-4.183419364250239
aF0.0
abag3
(g13
g5
Ntp5355
Rp5356
(lp5357
F0.0
aF0.0
aF-0.9942535317781569
aF0.10705099040486078
ababag3
(g4
g5
Ntp5358
Rp5359
(lp5360
g3
(g9
g5
Ntp5361
Rp5362
(lp5363
F5.02127442895987
aF-4.183419364250239
aF0.0
abag3
(g13
g5
Ntp5364
Rp5365
(lp5366
F0.0
aF0.0
aF-0.9942535317781569
aF0.10705099040486078
ababag3
(g4
g5
Ntp5367
Rp5368
(lp5369
g3
(g9
g5
Ntp5370
Rp5371
(lp5372
F5.02127442895987
aF-4.183419364250239
aF0.0
abag3
(g13
g5
Ntp5373
Rp5374
(lp5375
F0.0
aF0.0
aF-0.9942535317781569
aF0.10705099040486078
ababag3
(g4
g5
Ntp5376
Rp5377
(lp5378
g3
(g9
g5
Ntp5379
Rp5380
(lp5381
F4.843732262450681
aF-4.226746466463247
aF0.0
abag3
(g13
g5
Ntp5382
Rp5383
(lp5384
F0.0
aF0.0
aF-0.9722492437798949
aF0.2339474470248021
ababag3
(g4
g5
Ntp5385
Rp5386
(lp5387
g3
(g9
g5
Ntp5388
Rp5389
(lp5390
F4.831211052099837
aF-4.239509162615436
aF0.0
abag3
(g13
g5
Ntp5391
Rp5392
(lp5393
F0.0
aF0.0
aF-0.8818450289250088
aF0.4715393355386699
ababaaa.