(lp0
(lp1
I3
aF17.716000000000008
a(lp2
ccopy_reg
_reconstructor
p3
(cgeometry_msgs.msg._Pose
Pose
p4
c__builtin__
object
p5
Ntp6
Rp7
(lp8
g3
(cgeometry_msgs.msg._Point
Point
p9
g5
Ntp10
Rp11
(lp12
F-1.2051510330362993
aF-0.15167813605975536
aF0.0
abag3
(cgeometry_msgs.msg._Quaternion
Quaternion
p13
g5
Ntp14
Rp15
(lp16
F0.0
aF0.0
aF-0.5629891519778195
aF0.8264642852267093
ababag3
(g4
g5
Ntp17
Rp18
(lp19
g3
(g9
g5
Ntp20
Rp21
(lp22
F-1.3012637127395357
aF-0.27950497334899077
aF0.0
abag3
(g13
g5
Ntp23
Rp24
(lp25
F0.0
aF0.0
aF-0.9008876561941012
aF0.43405233661057396
ababag3
(g4
g5
Ntp26
Rp27
(lp28
g3
(g9
g5
Ntp29
Rp30
(lp31
F-1.8559274045069123
aF-0.5224777043357495
aF0.0
abag3
(g13
g5
Ntp32
Rp33
(lp34
F0.0
aF0.0
aF-0.9966990336315329
aF0.08118519789942344
ababag3
(g4
g5
Ntp35
Rp36
(lp37
g3
(g9
g5
Ntp38
Rp39
(lp40
F-2.8736696146484753
aF-0.4527928653130499
aF0.0
abag3
(g13
g5
Ntp41
Rp42
(lp43
F0.0
aF0.0
aF0.9898457986638198
aF0.1421453300941841
ababag3
(g4
g5
Ntp44
Rp45
(lp46
g3
(g9
g5
Ntp47
Rp48
(lp49
F-3.866420414635065
aF-0.1238380448119366
aF0.0
abag3
(g13
g5
Ntp50
Rp51
(lp52
F0.0
aF0.0
aF0.9916873138221473
aF0.12867117627586253
ababag3
(g4
g5
Ntp53
Rp54
(lp55
g3
(g9
g5
Ntp56
Rp57
(lp58
F-4.881827136023647
aF0.17697534709560933
aF0.0
abag3
(g13
g5
Ntp59
Rp60
(lp61
F0.0
aF0.0
aF0.9831673946232034
aF0.18270707197539557
ababag3
(g4
g5
Ntp62
Rp63
(lp64
g3
(g9
g5
Ntp65
Rp66
(lp67
F-5.6217483157867285
aF0.429355278265715
aF0.0
abag3
(g13
g5
Ntp68
Rp69
(lp70
F0.0
aF0.0
aF0.9926479548630637
aF0.12103734013178366
ababag3
(g4
g5
Ntp71
Rp72
(lp73
g3
(g9
g5
Ntp74
Rp75
(lp76
F-6.677655703220074
aF0.5607792028884281
aF0.0
abag3
(g13
g5
Ntp77
Rp78
(lp79
F0.0
aF0.0
aF0.9997021214699855
aF0.024406317387314472
ababag3
(g4
g5
Ntp80
Rp81
(lp82
g3
(g9
g5
Ntp83
Rp84
(lp85
F-7.704660539116412
aF0.6328679190627458
aF0.0
abag3
(g13
g5
Ntp86
Rp87
(lp88
F0.0
aF0.0
aF0.9951536985982535
aF0.09833166410783659
ababag3
(g4
g5
Ntp89
Rp90
(lp91
g3
(g9
g5
Ntp92
Rp93
(lp94
F-8.643720946860007
aF1.0124599920283595
aF0.0
abag3
(g13
g5
Ntp95
Rp96
(lp97
F0.0
aF0.0
aF0.9628743534450099
aF0.2699499573584967
ababag3
(g4
g5
Ntp98
Rp99
(lp100
g3
(g9
g5
Ntp101
Rp102
(lp103
F-9.25637642989052
aF1.4899550546014464
aF0.0
abag3
(g13
g5
Ntp104
Rp105
(lp106
F0.0
aF0.0
aF0.9270231795044315
aF0.37500403286030765
ababag3
(g4
g5
Ntp107
Rp108
(lp109
g3
(g9
g5
Ntp110
Rp111
(lp112
F-9.796967724072292
aF2.004171311357956
aF0.0
abag3
(g13
g5
Ntp113
Rp114
(lp115
F0.0
aF0.0
aF0.9328510508375691
aF0.36026228910509506
ababag3
(g4
g5
Ntp116
Rp117
(lp118
g3
(g9
g5
Ntp119
Rp120
(lp121
F-9.955543401084663
aF2.1427396061132242
aF0.0
abag3
(g13
g5
Ntp122
Rp123
(lp124
F0.0
aF0.0
aF0.9359465236206164
aF0.35214216578320034
ababag3
(g4
g5
Ntp125
Rp126
(lp127
g3
(g9
g5
Ntp128
Rp129
(lp130
F-10.123354821447625
aF2.272836721160786
aF0.0
abag3
(g13
g5
Ntp131
Rp132
(lp133
F0.0
aF0.0
aF0.9563859826941126
aF0.29210589194026304
ababag3
(g4
g5
Ntp134
Rp135
(lp136
g3
(g9
g5
Ntp137
Rp138
(lp139
F-10.123354821447625
aF2.272836721160786
aF0.0
abag3
(g13
g5
Ntp140
Rp141
(lp142
F0.0
aF0.0
aF0.9563859826941126
aF0.29210589194026304
ababag3
(g4
g5
Ntp143
Rp144
(lp145
g3
(g9
g5
Ntp146
Rp147
(lp148
F-10.257946737878862
aF2.369412933741499
aF0.0
abag3
(g13
g5
Ntp149
Rp150
(lp151
F0.0
aF0.0
aF0.9083985143399058
aF0.4181054163067633
ababag3
(g4
g5
Ntp152
Rp153
(lp154
g3
(g9
g5
Ntp155
Rp156
(lp157
F-10.257946737878862
aF2.369412933741499
aF0.0
abag3
(g13
g5
Ntp158
Rp159
(lp160
F0.0
aF0.0
aF0.9083985143399058
aF0.4181054163067633
ababag3
(g4
g5
Ntp161
Rp162
(lp163
g3
(g9
g5
Ntp164
Rp165
(lp166
F-10.264758216082559
aF2.3895709215217162
aF0.0
abag3
(g13
g5
Ntp167
Rp168
(lp169
F0.0
aF0.0
aF0.7723120385680292
aF0.6352433510733465
ababaaa(lp170
I3
aF17.438000000000102
a(lp171
g3
(g4
g5
Ntp172
Rp173
(lp174
g3
(g9
g5
Ntp175
Rp176
(lp177
F-1.204468264699035
aF-0.14951129892606296
aF0.0
abag3
(g13
g5
Ntp178
Rp179
(lp180
F0.0
aF0.0
aF-0.5619284799156676
aF0.8271858216021761
ababag3
(g4
g5
Ntp181
Rp182
(lp183
g3
(g9
g5
Ntp184
Rp185
(lp186
F-1.2263690968162555
aF-0.14287174113869422
aF0.0
abag3
(g13
g5
Ntp187
Rp188
(lp189
F0.0
aF0.0
aF-0.7284609716010477
aF0.6850873030892176
ababag3
(g4
g5
Ntp190
Rp191
(lp192
g3
(g9
g5
Ntp193
Rp194
(lp195
F-1.768413098258302
aF-0.3793557825324915
aF0.0
abag3
(g13
g5
Ntp196
Rp197
(lp198
F0.0
aF0.0
aF-0.9991326328002682
aF0.04164111037909944
ababag3
(g4
g5
Ntp199
Rp200
(lp201
g3
(g9
g5
Ntp202
Rp203
(lp204
F-2.861122381197386
aF-0.25639235497031165
aF0.0
abag3
(g13
g5
Ntp205
Rp206
(lp207
F0.0
aF0.0
aF0.9930428098911752
aF0.11775388623497382
ababag3
(g4
g5
Ntp208
Rp209
(lp210
g3
(g9
g5
Ntp211
Rp212
(lp213
F-3.6223771327265295
aF-0.04497796482300692
aF0.0
abag3
(g13
g5
Ntp214
Rp215
(lp216
F0.0
aF0.0
aF0.9826252981413724
aF0.18560044033508913
ababag3
(g4
g5
Ntp217
Rp218
(lp219
g3
(g9
g5
Ntp220
Rp221
(lp222
F-4.634314001304199
aF0.28913767997651013
aF0.0
abag3
(g13
g5
Ntp223
Rp224
(lp225
F0.0
aF0.0
aF0.9928035405584352
aF0.11975445651263017
ababag3
(g4
g5
Ntp226
Rp227
(lp228
g3
(g9
g5
Ntp229
Rp230
(lp231
F-5.681435981299178
aF0.4992583019210377
aF0.0
abag3
(g13
g5
Ntp232
Rp233
(lp234
F0.0
aF0.0
aF0.9976491325412444
aF0.0685288868996324
ababag3
(g4
g5
Ntp235
Rp236
(lp237
g3
(g9
g5
Ntp238
Rp239
(lp240
F-6.743980505747916
aF0.577352941976339
aF0.0
abag3
(g13
g5
Ntp241
Rp242
(lp243
F0.0
aF0.0
aF0.9998607651997009
aF0.016686827567533966
ababag3
(g4
g5
Ntp244
Rp245
(lp246
g3
(g9
g5
Ntp247
Rp248
(lp249
F-7.529929677288647
aF0.5918617933924417
aF0.0
abag3
(g13
g5
Ntp250
Rp251
(lp252
F0.0
aF0.0
aF0.9998148047650882
aF0.01924464009922117
ababag3
(g4
g5
Ntp253
Rp254
(lp255
g3
(g9
g5
Ntp256
Rp257
(lp258
F-8.477449371684907
aF0.8587600420052697
aF0.0
abag3
(g13
g5
Ntp259
Rp260
(lp261
F0.0
aF0.0
aF0.9704293880010587
aF0.24138517540207535
ababag3
(g4
g5
Ntp262
Rp263
(lp264
g3
(g9
g5
Ntp265
Rp266
(lp267
F-9.260232135553608
aF1.5023865592191377
aF0.0
abag3
(g13
g5
Ntp268
Rp269
(lp270
F0.0
aF0.0
aF0.9213068236034349
aF0.3888363881914208
ababag3
(g4
g5
Ntp271
Rp272
(lp273
g3
(g9
g5
Ntp274
Rp275
(lp276
F-9.784858617370144
aF2.010403736844425
aF0.0
abag3
(g13
g5
Ntp277
Rp278
(lp279
F0.0
aF0.0
aF0.93530693477201
aF0.353837445400267
ababag3
(g4
g5
Ntp280
Rp281
(lp282
g3
(g9
g5
Ntp283
Rp284
(lp285
F-9.941061843458858
aF2.1436716439162673
aF0.0
abag3
(g13
g5
Ntp286
Rp287
(lp288
F0.0
aF0.0
aF0.9420950632743654
aF0.3353459284888804
ababag3
(g4
g5
Ntp289
Rp290
(lp291
g3
(g9
g5
Ntp292
Rp293
(lp294
F-10.099635675062437
aF2.271842627759776
aF0.0
abag3
(g13
g5
Ntp295
Rp296
(lp297
F0.0
aF0.0
aF0.947897815294074
aF0.31857453093541804
ababag3
(g4
g5
Ntp298
Rp299
(lp300
g3
(g9
g5
Ntp301
Rp302
(lp303
F-10.099635675062437
aF2.271842627759776
aF0.0
abag3
(g13
g5
Ntp304
Rp305
(lp306
F0.0
aF0.0
aF0.947897815294074
aF0.31857453093541804
ababag3
(g4
g5
Ntp307
Rp308
(lp309
g3
(g9
g5
Ntp310
Rp311
(lp312
F-10.099635675062437
aF2.271842627759776
aF0.0
abag3
(g13
g5
Ntp313
Rp314
(lp315
F0.0
aF0.0
aF0.947897815294074
aF0.31857453093541804
ababag3
(g4
g5
Ntp316
Rp317
(lp318
g3
(g9
g5
Ntp319
Rp320
(lp321
F-10.145570652787717
aF2.3111249511647523
aF0.0
abag3
(g13
g5
Ntp322
Rp323
(lp324
F0.0
aF0.0
aF0.8345750697329921
aF0.5508942303021256
ababag3
(g4
g5
Ntp325
Rp326
(lp327
g3
(g9
g5
Ntp328
Rp329
(lp330
F-10.145570652787717
aF2.3111249511647523
aF0.0
abag3
(g13
g5
Ntp331
Rp332
(lp333
F0.0
aF0.0
aF0.8345750697329921
aF0.5508942303021256
ababaaa(lp334
I3
aF16.478999999999814
a(lp335
g3
(g4
g5
Ntp336
Rp337
(lp338
g3
(g9
g5
Ntp339
Rp340
(lp341
F-1.209148808647053
aF-0.14772825199549552
aF0.0
abag3
(g13
g5
Ntp342
Rp343
(lp344
F0.0
aF0.0
aF-0.5607064019076055
aF0.8280146924178501
ababag3
(g4
g5
Ntp345
Rp346
(lp347
g3
(g9
g5
Ntp348
Rp349
(lp350
F-1.2614122478350067
aF-0.18822075221147566
aF0.0
abag3
(g13
g5
Ntp351
Rp352
(lp353
F0.0
aF0.0
aF-0.9033897529200141
aF0.42882042199400416
ababag3
(g4
g5
Ntp354
Rp355
(lp356
g3
(g9
g5
Ntp357
Rp358
(lp359
F-1.7541015780124947
aF-0.3441862184486282
aF0.0
abag3
(g13
g5
Ntp360
Rp361
(lp362
F0.0
aF0.0
aF-0.9989551619268202
aF0.04570103346490457
ababag3
(g4
g5
Ntp363
Rp364
(lp365
g3
(g9
g5
Ntp366
Rp367
(lp368
F-2.77908206039112
aF-0.21051293237116797
aF0.0
abag3
(g13
g5
Ntp369
Rp370
(lp371
F0.0
aF0.0
aF0.9909431749473037
aF0.13428188271452515
ababag3
(g4
g5
Ntp372
Rp373
(lp374
g3
(g9
g5
Ntp375
Rp376
(lp377
F-3.8117238201940618
aF0.0593046356607403
aF0.0
abag3
(g13
g5
Ntp378
Rp379
(lp380
F0.0
aF0.0
aF0.9913849291850706
aF0.1309806175917358
ababag3
(g4
g5
Ntp381
Rp382
(lp383
g3
(g9
g5
Ntp384
Rp385
(lp386
F-4.58802644363489
aF0.26018027848677316
aF0.0
abag3
(g13
g5
Ntp387
Rp388
(lp389
F0.0
aF0.0
aF0.9938476256289037
aF0.1107560248103485
ababag3
(g4
g5
Ntp390
Rp391
(lp392
g3
(g9
g5
Ntp393
Rp394
(lp395
F-5.614485932112879
aF0.470762258333892
aF0.0
abag3
(g13
g5
Ntp396
Rp397
(lp398
F0.0
aF0.0
aF0.9968511855088078
aF0.0792951067196731
ababag3
(g4
g5
Ntp399
Rp400
(lp401
g3
(g9
g5
Ntp402
Rp403
(lp404
F-6.675246498699982
aF0.564350616318252
aF0.0
abag3
(g13
g5
Ntp405
Rp406
(lp407
F0.0
aF0.0
aF0.9998889098513443
aF0.014905299604177172
ababag3
(g4
g5
Ntp408
Rp409
(lp410
g3
(g9
g5
Ntp411
Rp412
(lp413
F-7.704868607907373
aF0.6193118537282964
aF0.0
abag3
(g13
g5
Ntp414
Rp415
(lp416
F0.0
aF0.0
aF0.9947233841542644
aF0.10259331857722334
ababag3
(g4
g5
Ntp417
Rp418
(lp419
g3
(g9
g5
Ntp420
Rp421
(lp422
F-8.430499397322851
aF0.8709660575572595
aF0.0
abag3
(g13
g5
Ntp423
Rp424
(lp425
F0.0
aF0.0
aF0.9739945532054886
aF0.2265714243368758
ababag3
(g4
g5
Ntp426
Rp427
(lp428
g3
(g9
g5
Ntp429
Rp430
(lp431
F-9.258318947311684
aF1.4885723321633926
aF0.0
abag3
(g13
g5
Ntp432
Rp433
(lp434
F0.0
aF0.0
aF0.9249499274875796
aF0.3800889785835959
ababag3
(g4
g5
Ntp435
Rp436
(lp437
g3
(g9
g5
Ntp438
Rp439
(lp440
F-9.82208063346781
aF2.028385704724943
aF0.0
abag3
(g13
g5
Ntp441
Rp442
(lp443
F0.0
aF0.0
aF0.9337916448354537
aF0.35781722154683643
ababag3
(g4
g5
Ntp444
Rp445
(lp446
g3
(g9
g5
Ntp447
Rp448
(lp449
F-9.997053755284249
aF2.181634752961482
aF0.0
abag3
(g13
g5
Ntp450
Rp451
(lp452
F0.0
aF0.0
aF0.9386916716263167
aF0.34475780719135457
ababag3
(g4
g5
Ntp453
Rp454
(lp455
g3
(g9
g5
Ntp456
Rp457
(lp458
F-9.997053755284249
aF2.181634752961482
aF0.0
abag3
(g13
g5
Ntp459
Rp460
(lp461
F0.0
aF0.0
aF0.9386916716263167
aF0.34475780719135457
ababag3
(g4
g5
Ntp462
Rp463
(lp464
g3
(g9
g5
Ntp465
Rp466
(lp467
F-10.155188551588248
aF2.3103957936299797
aF0.0
abag3
(g13
g5
Ntp468
Rp469
(lp470
F0.0
aF0.0
aF0.8918555807023127
aF0.45232026615014786
ababag3
(g4
g5
Ntp471
Rp472
(lp473
g3
(g9
g5
Ntp474
Rp475
(lp476
F-10.155188551588248
aF2.3103957936299797
aF0.0
abag3
(g13
g5
Ntp477
Rp478
(lp479
F0.0
aF0.0
aF0.8918555807023127
aF0.45232026615014786
ababag3
(g4
g5
Ntp480
Rp481
(lp482
g3
(g9
g5
Ntp483
Rp484
(lp485
F-10.154977489607933
aF2.3193911772995035
aF0.0
abag3
(g13
g5
Ntp486
Rp487
(lp488
F0.0
aF0.0
aF0.748378348825804
aF0.6632720761563563
ababaaa(lp489
I3
aF16.72
a(lp490
g3
(g4
g5
Ntp491
Rp492
(lp493
g3
(g9
g5
Ntp494
Rp495
(lp496
F-1.2077040097790583
aF-0.14461787017662772
aF0.0
abag3
(g13
g5
Ntp497
Rp498
(lp499
F0.0
aF0.0
aF-0.5613313353871773
aF0.8275911622972107
ababag3
(g4
g5
Ntp500
Rp501
(lp502
g3
(g9
g5
Ntp503
Rp504
(lp505
F-1.2548040307359365
aF-0.23636530419743046
aF0.0
abag3
(g13
g5
Ntp506
Rp507
(lp508
F0.0
aF0.0
aF-0.8883455027255106
aF0.4591756393662013
ababag3
(g4
g5
Ntp509
Rp510
(lp511
g3
(g9
g5
Ntp512
Rp513
(lp514
F-1.7407400549899752
aF-0.46868616930974016
aF0.0
abag3
(g13
g5
Ntp515
Rp516
(lp517
F0.0
aF0.0
aF-0.9959666356642751
aF0.08972435925424589
ababag3
(g4
g5
Ntp518
Rp519
(lp520
g3
(g9
g5
Ntp521
Rp522
(lp523
F-2.8763777445450907
aF-0.4024990149896644
aF0.0
abag3
(g13
g5
Ntp524
Rp525
(lp526
F0.0
aF0.0
aF0.9906969914167219
aF0.1360862638103334
ababag3
(g4
g5
Ntp527
Rp528
(lp529
g3
(g9
g5
Ntp530
Rp531
(lp532
F-3.6410316945338916
aF-0.18260099368275645
aF0.0
abag3
(g13
g5
Ntp533
Rp534
(lp535
F0.0
aF0.0
aF0.9917325675690619
aF0.12832191715710978
ababag3
(g4
g5
Ntp536
Rp537
(lp538
g3
(g9
g5
Ntp539
Rp540
(lp541
F-4.655782515070901
aF0.11437233649341463
aF0.0
abag3
(g13
g5
Ntp542
Rp543
(lp544
F0.0
aF0.0
aF0.9854216823034604
aF0.17012968008615667
ababag3
(g4
g5
Ntp545
Rp546
(lp547
g3
(g9
g5
Ntp548
Rp549
(lp550
F-5.675348708070277
aF0.4350205408525914
aF0.0
abag3
(g13
g5
Ntp551
Rp552
(lp553
F0.0
aF0.0
aF0.9931059953856077
aF0.11721980177922732
ababag3
(g4
g5
Ntp554
Rp555
(lp556
g3
(g9
g5
Ntp557
Rp558
(lp559
F-6.713797818735062
aF0.5645043699643514
aF0.0
abag3
(g13
g5
Ntp560
Rp561
(lp562
F0.0
aF0.0
aF0.9998219623105735
aF0.018869119784294598
ababag3
(g4
g5
Ntp563
Rp564
(lp565
g3
(g9
g5
Ntp566
Rp567
(lp568
F-7.757222063970577
aF0.6164823306422379
aF0.0
abag3
(g13
g5
Ntp569
Rp570
(lp571
F0.0
aF0.0
aF0.9958638596605364
aF0.09085798270938905
ababag3
(g4
g5
Ntp572
Rp573
(lp574
g3
(g9
g5
Ntp575
Rp576
(lp577
F-8.470408853332547
aF0.8591330720640574
aF0.0
abag3
(g13
g5
Ntp578
Rp579
(lp580
F0.0
aF0.0
aF0.9719486929354932
aF0.23519298097729505
ababag3
(g4
g5
Ntp581
Rp582
(lp583
g3
(g9
g5
Ntp584
Rp585
(lp586
F-9.259808177415815
aF1.4864702830764753
aF0.0
abag3
(g13
g5
Ntp587
Rp588
(lp589
F0.0
aF0.0
aF0.9206647633005286
aF0.39035418995673865
ababag3
(g4
g5
Ntp590
Rp591
(lp592
g3
(g9
g5
Ntp593
Rp594
(lp595
F-9.787711448763224
aF2.0104624006430667
aF0.0
abag3
(g13
g5
Ntp596
Rp597
(lp598
F0.0
aF0.0
aF0.9326723214761795
aF0.36072474374824104
ababag3
(g4
g5
Ntp599
Rp600
(lp601
g3
(g9
g5
Ntp602
Rp603
(lp604
F-9.940715329660783
aF2.1507196221839298
aF0.0
abag3
(g13
g5
Ntp605
Rp606
(lp607
F0.0
aF0.0
aF0.9353758654034439
aF0.353655185768226
ababag3
(g4
g5
Ntp608
Rp609
(lp610
g3
(g9
g5
Ntp611
Rp612
(lp613
F-10.110982368720185
aF2.2824832131659596
aF0.0
abag3
(g13
g5
Ntp614
Rp615
(lp616
F0.0
aF0.0
aF0.9558976215395723
aF0.29370008024341565
ababag3
(g4
g5
Ntp617
Rp618
(lp619
g3
(g9
g5
Ntp620
Rp621
(lp622
F-10.110982368720185
aF2.2824832131659596
aF0.0
abag3
(g13
g5
Ntp623
Rp624
(lp625
F0.0
aF0.0
aF0.9558976215395723
aF0.29370008024341565
ababag3
(g4
g5
Ntp626
Rp627
(lp628
g3
(g9
g5
Ntp629
Rp630
(lp631
F-10.145533581648543
aF2.3155308835421065
aF0.0
abag3
(g13
g5
Ntp632
Rp633
(lp634
F0.0
aF0.0
aF0.8480981909985896
aF0.5298390872943594
ababag3
(g4
g5
Ntp635
Rp636
(lp637
g3
(g9
g5
Ntp638
Rp639
(lp640
F-10.145533581648543
aF2.3155308835421065
aF0.0
abag3
(g13
g5
Ntp641
Rp642
(lp643
F0.0
aF0.0
aF0.8480981909985896
aF0.5298390872943594
ababaaa.