(lp0
(lp1
I3
aF31.402999999999906
a(lp2
ccopy_reg
_reconstructor
p3
(cgeometry_msgs.msg._Pose
Pose
p4
c__builtin__
object
p5
Ntp6
Rp7
(lp8
g3
(cgeometry_msgs.msg._Point
Point
p9
g5
Ntp10
Rp11
(lp12
F-0.4138848842410872
aF-4.106479745031891
aF0.0
abag3
(cgeometry_msgs.msg._Quaternion
Quaternion
p13
g5
Ntp14
Rp15
(lp16
F0.0
aF0.0
aF-0.620566083977603
aF0.7841541528403089
ababag3
(g4
g5
Ntp17
Rp18
(lp19
g3
(g9
g5
Ntp20
Rp21
(lp22
F-0.4807546219543774
aF-4.277015359099704
aF0.0
abag3
(g13
g5
Ntp23
Rp24
(lp25
F0.0
aF0.0
aF-0.8941306790330007
aF0.4478061286002963
ababag3
(g4
g5
Ntp26
Rp27
(lp28
g3
(g9
g5
Ntp29
Rp30
(lp31
F-1.1523924229936837
aF-4.770606462352945
aF0.0
abag3
(g13
g5
Ntp32
Rp33
(lp34
F0.0
aF0.0
aF-0.949361094697222
aF0.31418706509863265
ababag3
(g4
g5
Ntp35
Rp36
(lp37
g3
(g9
g5
Ntp38
Rp39
(lp40
F-1.7400105003289914
aF-5.364299958124929
aF0.0
abag3
(g13
g5
Ntp41
Rp42
(lp43
F0.0
aF0.0
aF-0.8877460979812994
aF0.46033342863513305
ababag3
(g4
g5
Ntp44
Rp45
(lp46
g3
(g9
g5
Ntp47
Rp48
(lp49
F-1.9949669361582252
aF-6.167831953316662
aF0.0
abag3
(g13
g5
Ntp50
Rp51
(lp52
F0.0
aF0.0
aF-0.710530616533073
aF0.7036662866509459
ababag3
(g4
g5
Ntp53
Rp54
(lp55
g3
(g9
g5
Ntp56
Rp57
(lp58
F-1.8702168971188953
aF-6.899512174151044
aF0.0
abag3
(g13
g5
Ntp59
Rp60
(lp61
F0.0
aF0.0
aF-0.6188875700215766
aF0.7854795832310272
ababag3
(g4
g5
Ntp62
Rp63
(lp64
g3
(g9
g5
Ntp65
Rp66
(lp67
F-1.7028053751515386
aF-7.891328144809373
aF0.0
abag3
(g13
g5
Ntp68
Rp69
(lp70
F0.0
aF0.0
aF-0.6675101829817882
aF0.7446006685570593
ababag3
(g4
g5
Ntp71
Rp72
(lp73
g3
(g9
g5
Ntp74
Rp75
(lp76
F-1.6472511191712522
aF-8.94533008404092
aF0.0
abag3
(g13
g5
Ntp77
Rp78
(lp79
F0.0
aF0.0
aF-0.7021808295502827
aF0.7119986535184437
ababag3
(g4
g5
Ntp80
Rp81
(lp82
g3
(g9
g5
Ntp83
Rp84
(lp85
F-1.69537820695302
aF-9.932073429805794
aF0.0
abag3
(g13
g5
Ntp86
Rp87
(lp88
F0.0
aF0.0
aF-0.808641219464787
aF0.5883021147187066
ababag3
(g4
g5
Ntp89
Rp90
(lp91
g3
(g9
g5
Ntp92
Rp93
(lp94
F-2.2505475625516365
aF-10.585063390261958
aF0.0
abag3
(g13
g5
Ntp95
Rp96
(lp97
F0.0
aF0.0
aF-0.9649410821665013
aF0.2624665844395081
ababag3
(g4
g5
Ntp98
Rp99
(lp100
g3
(g9
g5
Ntp101
Rp102
(lp103
F-2.962252175514814
aF-10.79972103059141
aF0.0
abag3
(g13
g5
Ntp104
Rp105
(lp106
F0.0
aF0.0
aF-0.9992986660578878
aF0.03744564080004563
ababag3
(g4
g5
Ntp107
Rp108
(lp109
g3
(g9
g5
Ntp110
Rp111
(lp112
F-4.008773772341732
aF-10.725852715358823
aF0.0
abag3
(g13
g5
Ntp113
Rp114
(lp115
F0.0
aF0.0
aF0.9980466455897771
aF0.0624731400442931
ababag3
(g4
g5
Ntp116
Rp117
(lp118
g3
(g9
g5
Ntp119
Rp120
(lp121
F-5.091539153611342
aF-10.638374133368856
aF0.0
abag3
(g13
g5
Ntp122
Rp123
(lp124
F0.0
aF0.0
aF0.9994076334395479
aF0.034414854681697506
ababag3
(g4
g5
Ntp125
Rp126
(lp127
g3
(g9
g5
Ntp128
Rp129
(lp130
F-6.164397105907398
aF-10.584036433878792
aF0.0
abag3
(g13
g5
Ntp131
Rp132
(lp133
F0.0
aF0.0
aF0.9998005450075931
aF0.019971735090371014
ababag3
(g4
g5
Ntp134
Rp135
(lp136
g3
(g9
g5
Ntp137
Rp138
(lp139
F-6.954015548037542
aF-10.572363086481067
aF0.0
abag3
(g13
g5
Ntp140
Rp141
(lp142
F0.0
aF0.0
aF-0.9999900707173092
aF0.004456283966603097
ababag3
(g4
g5
Ntp143
Rp144
(lp145
g3
(g9
g5
Ntp146
Rp147
(lp148
F-8.008055870647075
aF-10.57182708821454
aF0.0
abag3
(g13
g5
Ntp149
Rp150
(lp151
F0.0
aF0.0
aF0.9999887086262517
aF0.004752117422957386
ababag3
(g4
g5
Ntp152
Rp153
(lp154
g3
(g9
g5
Ntp155
Rp156
(lp157
F-9.077863267708446
aF-10.553113041869546
aF0.0
abag3
(g13
g5
Ntp158
Rp159
(lp160
F0.0
aF0.0
aF0.9999346238556259
aF0.011434509814937578
ababag3
(g4
g5
Ntp161
Rp162
(lp163
g3
(g9
g5
Ntp164
Rp165
(lp166
F-9.866745603407363
aF-10.53965909955786
aF0.0
abag3
(g13
g5
Ntp167
Rp168
(lp169
F0.0
aF0.0
aF0.999954505346592
aF0.009538723030494703
ababag3
(g4
g5
Ntp170
Rp171
(lp172
g3
(g9
g5
Ntp173
Rp174
(lp175
F-10.890051100196358
aF-10.52510932257861
aF0.0
abag3
(g13
g5
Ntp176
Rp177
(lp178
F0.0
aF0.0
aF0.9999544956773861
aF0.009539736609792866
ababag3
(g4
g5
Ntp179
Rp180
(lp181
g3
(g9
g5
Ntp182
Rp183
(lp184
F-11.92124689793898
aF-10.518111151335633
aF0.0
abag3
(g13
g5
Ntp185
Rp186
(lp187
F0.0
aF0.0
aF0.9999137407793256
aF0.013134344319209686
ababag3
(g4
g5
Ntp188
Rp189
(lp190
g3
(g9
g5
Ntp191
Rp192
(lp193
F-12.980530323392134
aF-10.48560470380097
aF0.0
abag3
(g13
g5
Ntp194
Rp195
(lp196
F0.0
aF0.0
aF0.9998415032357085
aF0.01780360658290033
ababag3
(g4
g5
Ntp197
Rp198
(lp199
g3
(g9
g5
Ntp200
Rp201
(lp202
F-13.778359108424386
aF-10.459941907222865
aF0.0
abag3
(g13
g5
Ntp203
Rp204
(lp205
F0.0
aF0.0
aF0.9998934333194913
aF0.014598698728313103
ababag3
(g4
g5
Ntp206
Rp207
(lp208
g3
(g9
g5
Ntp209
Rp210
(lp211
F-14.848863303811026
aF-10.439703181639779
aF0.0
abag3
(g13
g5
Ntp212
Rp213
(lp214
F0.0
aF0.0
aF0.9999844039038854
aF0.005584975290094195
ababag3
(g4
g5
Ntp215
Rp216
(lp217
g3
(g9
g5
Ntp218
Rp219
(lp220
F-15.924360472715305
aF-10.435786468317746
aF0.0
abag3
(g13
g5
Ntp221
Rp222
(lp223
F0.0
aF0.0
aF0.9999868489512852
aF0.005128540189912469
ababag3
(g4
g5
Ntp224
Rp225
(lp226
g3
(g9
g5
Ntp227
Rp228
(lp229
F-16.980940150705695
aF-10.413777280673795
aF0.0
abag3
(g13
g5
Ntp230
Rp231
(lp232
F0.0
aF0.0
aF0.9995726946112705
aF0.029230603612716954
ababag3
(g4
g5
Ntp233
Rp234
(lp235
g3
(g9
g5
Ntp236
Rp237
(lp238
F-17.73354266254892
aF-10.06678353236156
aF0.0
abag3
(g13
g5
Ntp239
Rp240
(lp241
F0.0
aF0.0
aF0.9156920533342879
aF0.40188065823131575
ababag3
(g4
g5
Ntp242
Rp243
(lp244
g3
(g9
g5
Ntp245
Rp246
(lp247
F-18.060904774554608
aF-9.416702853465956
aF0.0
abag3
(g13
g5
Ntp248
Rp249
(lp250
F0.0
aF0.0
aF0.7873046101816993
aF0.6165642308686441
ababag3
(g4
g5
Ntp251
Rp252
(lp253
g3
(g9
g5
Ntp254
Rp255
(lp256
F-18.089569389302614
aF-8.390758109629626
aF0.0
abag3
(g13
g5
Ntp257
Rp258
(lp259
F0.0
aF0.0
aF0.6702370638359813
aF0.7421470732008062
ababag3
(g4
g5
Ntp260
Rp261
(lp262
g3
(g9
g5
Ntp263
Rp264
(lp265
F-17.94650407280514
aF-7.3147234738397975
aF0.0
abag3
(g13
g5
Ntp266
Rp267
(lp268
F0.0
aF0.0
aF0.6444837833536565
aF0.764617978466474
ababag3
(g4
g5
Ntp269
Rp270
(lp271
g3
(g9
g5
Ntp272
Rp273
(lp274
F-17.901119253445597
aF-7.062737586755105
aF0.0
abag3
(g13
g5
Ntp275
Rp276
(lp277
F0.0
aF0.0
aF0.6183042789722301
aF0.7859388135247112
ababag3
(g4
g5
Ntp278
Rp279
(lp280
g3
(g9
g5
Ntp281
Rp282
(lp283
F-17.82723448843665
aF-6.8074030613037415
aF0.0
abag3
(g13
g5
Ntp284
Rp285
(lp286
F0.0
aF0.0
aF0.5784300309522128
aF0.8157320021260794
ababag3
(g4
g5
Ntp287
Rp288
(lp289
g3
(g9
g5
Ntp290
Rp291
(lp292
F-17.82723448843665
aF-6.8074030613037415
aF0.0
abag3
(g13
g5
Ntp293
Rp294
(lp295
F0.0
aF0.0
aF0.5784300309522128
aF0.8157320021260794
ababaaa(lp296
I4
aF43.279999999999745
a(lp297
g3
(g4
g5
Ntp298
Rp299
(lp300
g3
(g9
g5
Ntp301
Rp302
(lp303
F-0.4186866877389613
aF-4.103020605901232
aF0.0
abag3
(g13
g5
Ntp304
Rp305
(lp306
F0.0
aF0.0
aF-0.43189417889398724
aF0.9019242863109345
ababag3
(g4
g5
Ntp307
Rp308
(lp309
g3
(g9
g5
Ntp310
Rp311
(lp312
F-0.3955718630727581
aF-4.15053616920346
aF0.0
abag3
(g13
g5
Ntp313
Rp314
(lp315
F0.0
aF0.0
aF-0.590129575598188
aF0.8073085432499166
ababag3
(g4
g5
Ntp316
Rp317
(lp318
g3
(g9
g5
Ntp319
Rp320
(lp321
F-0.3907741237867064
aF-4.212832767079638
aF0.0
abag3
(g13
g5
Ntp322
Rp323
(lp324
F0.0
aF0.0
aF-0.7864796842396427
aF0.6176161480064393
ababag3
(g4
g5
Ntp325
Rp326
(lp327
g3
(g9
g5
Ntp328
Rp329
(lp330
F-0.6912928592174817
aF-4.583283856605786
aF0.0
abag3
(g13
g5
Ntp331
Rp332
(lp333
F0.0
aF0.0
aF-0.9531662786123465
aF0.30244676443349605
ababag3
(g4
g5
Ntp334
Rp335
(lp336
g3
(g9
g5
Ntp337
Rp338
(lp339
F-0.6912928592174817
aF-4.583283856605786
aF0.0
abag3
(g13
g5
Ntp340
Rp341
(lp342
F0.0
aF0.0
aF-0.9531662786123465
aF0.30244676443349605
ababag3
(g4
g5
Ntp343
Rp344
(lp345
g3
(g9
g5
Ntp346
Rp347
(lp348
F-0.6912928592174817
aF-4.583283856605786
aF0.0
abag3
(g13
g5
Ntp349
Rp350
(lp351
F0.0
aF0.0
aF-0.9531662786123465
aF0.30244676443349605
ababag3
(g4
g5
Ntp352
Rp353
(lp354
g3
(g9
g5
Ntp355
Rp356
(lp357
F-0.6912928592174817
aF-4.583283856605786
aF0.0
abag3
(g13
g5
Ntp358
Rp359
(lp360
F0.0
aF0.0
aF-0.9531662786123465
aF0.30244676443349605
ababag3
(g4
g5
Ntp361
Rp362
(lp363
g3
(g9
g5
Ntp364
Rp365
(lp366
F-0.6912928592174817
aF-4.583283856605786
aF0.0
abag3
(g13
g5
Ntp367
Rp368
(lp369
F0.0
aF0.0
aF-0.9531662786123465
aF0.30244676443349605
ababag3
(g4
g5
Ntp370
Rp371
(lp372
g3
(g9
g5
Ntp373
Rp374
(lp375
F-0.6912928592174817
aF-4.583283856605786
aF0.0
abag3
(g13
g5
Ntp376
Rp377
(lp378
F0.0
aF0.0
aF-0.9531662786123465
aF0.30244676443349605
ababag3
(g4
g5
Ntp379
Rp380
(lp381
g3
(g9
g5
Ntp382
Rp383
(lp384
F-0.6912928592174817
aF-4.583283856605786
aF0.0
abag3
(g13
g5
Ntp385
Rp386
(lp387
F0.0
aF0.0
aF-0.9531662786123465
aF0.30244676443349605
ababag3
(g4
g5
Ntp388
Rp389
(lp390
g3
(g9
g5
Ntp391
Rp392
(lp393
F-0.6912928592174817
aF-4.583283856605786
aF0.0
abag3
(g13
g5
Ntp394
Rp395
(lp396
F0.0
aF0.0
aF-0.9531662786123465
aF0.30244676443349605
ababag3
(g4
g5
Ntp397
Rp398
(lp399
g3
(g9
g5
Ntp400
Rp401
(lp402
F-0.6912928592174817
aF-4.583283856605786
aF0.0
abag3
(g13
g5
Ntp403
Rp404
(lp405
F0.0
aF0.0
aF-0.9531662786123465
aF0.30244676443349605
ababag3
(g4
g5
Ntp406
Rp407
(lp408
g3
(g9
g5
Ntp409
Rp410
(lp411
F-0.6912928592174817
aF-4.583283856605786
aF0.0
abag3
(g13
g5
Ntp412
Rp413
(lp414
F0.0
aF0.0
aF-0.9531662786123465
aF0.30244676443349605
ababag3
(g4
g5
Ntp415
Rp416
(lp417
g3
(g9
g5
Ntp418
Rp419
(lp420
F-0.6912928592174817
aF-4.583283856605786
aF0.0
abag3
(g13
g5
Ntp421
Rp422
(lp423
F0.0
aF0.0
aF-0.9531662786123465
aF0.30244676443349605
ababag3
(g4
g5
Ntp424
Rp425
(lp426
g3
(g9
g5
Ntp427
Rp428
(lp429
F-0.6912928592174817
aF-4.583283856605786
aF0.0
abag3
(g13
g5
Ntp430
Rp431
(lp432
F0.0
aF0.0
aF-0.9531662786123465
aF0.30244676443349605
ababag3
(g4
g5
Ntp433
Rp434
(lp435
g3
(g9
g5
Ntp436
Rp437
(lp438
F-0.6912928592174817
aF-4.583283856605786
aF0.0
abag3
(g13
g5
Ntp439
Rp440
(lp441
F0.0
aF0.0
aF-0.9531662786123465
aF0.30244676443349605
ababag3
(g4
g5
Ntp442
Rp443
(lp444
g3
(g9
g5
Ntp445
Rp446
(lp447
F-0.6912928592174817
aF-4.583283856605786
aF0.0
abag3
(g13
g5
Ntp448
Rp449
(lp450
F0.0
aF0.0
aF-0.9531662786123465
aF0.30244676443349605
ababag3
(g4
g5
Ntp451
Rp452
(lp453
g3
(g9
g5
Ntp454
Rp455
(lp456
F-0.6912928592174817
aF-4.583283856605786
aF0.0
abag3
(g13
g5
Ntp457
Rp458
(lp459
F0.0
aF0.0
aF-0.9531662786123465
aF0.30244676443349605
ababag3
(g4
g5
Ntp460
Rp461
(lp462
g3
(g9
g5
Ntp463
Rp464
(lp465
F-0.6912928592174817
aF-4.583283856605786
aF0.0
abag3
(g13
g5
Ntp466
Rp467
(lp468
F0.0
aF0.0
aF-0.9531662786123465
aF0.30244676443349605
ababag3
(g4
g5
Ntp469
Rp470
(lp471
g3
(g9
g5
Ntp472
Rp473
(lp474
F-0.6912928592174817
aF-4.583283856605786
aF0.0
abag3
(g13
g5
Ntp475
Rp476
(lp477
F0.0
aF0.0
aF-0.9531662786123465
aF0.30244676443349605
ababag3
(g4
g5
Ntp478
Rp479
(lp480
g3
(g9
g5
Ntp481
Rp482
(lp483
F-0.6912928592174817
aF-4.583283856605786
aF0.0
abag3
(g13
g5
Ntp484
Rp485
(lp486
F0.0
aF0.0
aF-0.9531662786123465
aF0.30244676443349605
ababag3
(g4
g5
Ntp487
Rp488
(lp489
g3
(g9
g5
Ntp490
Rp491
(lp492
F-0.6912928592174817
aF-4.583283856605786
aF0.0
abag3
(g13
g5
Ntp493
Rp494
(lp495
F0.0
aF0.0
aF-0.9531662786123465
aF0.30244676443349605
ababag3
(g4
g5
Ntp496
Rp497
(lp498
g3
(g9
g5
Ntp499
Rp500
(lp501
F-0.6912928592174817
aF-4.583283856605786
aF0.0
abag3
(g13
g5
Ntp502
Rp503
(lp504
F0.0
aF0.0
aF-0.9531662786123465
aF0.30244676443349605
ababag3
(g4
g5
Ntp505
Rp506
(lp507
g3
(g9
g5
Ntp508
Rp509
(lp510
F-0.6912928592174817
aF-4.583283856605786
aF0.0
abag3
(g13
g5
Ntp511
Rp512
(lp513
F0.0
aF0.0
aF-0.9531662786123465
aF0.30244676443349605
ababag3
(g4
g5
Ntp514
Rp515
(lp516
g3
(g9
g5
Ntp517
Rp518
(lp519
F-0.6912928592174817
aF-4.583283856605786
aF0.0
abag3
(g13
g5
Ntp520
Rp521
(lp522
F0.0
aF0.0
aF-0.9531662786123465
aF0.30244676443349605
ababag3
(g4
g5
Ntp523
Rp524
(lp525
g3
(g9
g5
Ntp526
Rp527
(lp528
F-0.6912928592174817
aF-4.583283856605786
aF0.0
abag3
(g13
g5
Ntp529
Rp530
(lp531
F0.0
aF0.0
aF-0.9531662786123465
aF0.30244676443349605
ababag3
(g4
g5
Ntp532
Rp533
(lp534
g3
(g9
g5
Ntp535
Rp536
(lp537
F-0.6912928592174817
aF-4.583283856605786
aF0.0
abag3
(g13
g5
Ntp538
Rp539
(lp540
F0.0
aF0.0
aF-0.9531662786123465
aF0.30244676443349605
ababag3
(g4
g5
Ntp541
Rp542
(lp543
g3
(g9
g5
Ntp544
Rp545
(lp546
F-0.6912928592174817
aF-4.583283856605786
aF0.0
abag3
(g13
g5
Ntp547
Rp548
(lp549
F0.0
aF0.0
aF-0.9531662786123465
aF0.30244676443349605
ababag3
(g4
g5
Ntp550
Rp551
(lp552
g3
(g9
g5
Ntp553
Rp554
(lp555
F-0.6912928592174817
aF-4.583283856605786
aF0.0
abag3
(g13
g5
Ntp556
Rp557
(lp558
F0.0
aF0.0
aF-0.9531662786123465
aF0.30244676443349605
ababag3
(g4
g5
Ntp559
Rp560
(lp561
g3
(g9
g5
Ntp562
Rp563
(lp564
F-0.6912928592174817
aF-4.583283856605786
aF0.0
abag3
(g13
g5
Ntp565
Rp566
(lp567
F0.0
aF0.0
aF-0.9531662786123465
aF0.30244676443349605
ababag3
(g4
g5
Ntp568
Rp569
(lp570
g3
(g9
g5
Ntp571
Rp572
(lp573
F-0.6912928592174817
aF-4.583283856605786
aF0.0
abag3
(g13
g5
Ntp574
Rp575
(lp576
F0.0
aF0.0
aF-0.9531662786123465
aF0.30244676443349605
ababag3
(g4
g5
Ntp577
Rp578
(lp579
g3
(g9
g5
Ntp580
Rp581
(lp582
F-0.6912928592174817
aF-4.583283856605786
aF0.0
abag3
(g13
g5
Ntp583
Rp584
(lp585
F0.0
aF0.0
aF-0.9531662786123465
aF0.30244676443349605
ababag3
(g4
g5
Ntp586
Rp587
(lp588
g3
(g9
g5
Ntp589
Rp590
(lp591
F-0.6912928592174817
aF-4.583283856605786
aF0.0
abag3
(g13
g5
Ntp592
Rp593
(lp594
F0.0
aF0.0
aF-0.9531662786123465
aF0.30244676443349605
ababag3
(g4
g5
Ntp595
Rp596
(lp597
g3
(g9
g5
Ntp598
Rp599
(lp600
F-0.6912928592174817
aF-4.583283856605786
aF0.0
abag3
(g13
g5
Ntp601
Rp602
(lp603
F0.0
aF0.0
aF-0.9531662786123465
aF0.30244676443349605
ababag3
(g4
g5
Ntp604
Rp605
(lp606
g3
(g9
g5
Ntp607
Rp608
(lp609
F-0.6912928592174817
aF-4.583283856605786
aF0.0
abag3
(g13
g5
Ntp610
Rp611
(lp612
F0.0
aF0.0
aF-0.9531662786123465
aF0.30244676443349605
ababag3
(g4
g5
Ntp613
Rp614
(lp615
g3
(g9
g5
Ntp616
Rp617
(lp618
F-0.6912928592174817
aF-4.583283856605786
aF0.0
abag3
(g13
g5
Ntp619
Rp620
(lp621
F0.0
aF0.0
aF-0.9531662786123465
aF0.30244676443349605
ababag3
(g4
g5
Ntp622
Rp623
(lp624
g3
(g9
g5
Ntp625
Rp626
(lp627
F-0.6912928592174817
aF-4.583283856605786
aF0.0
abag3
(g13
g5
Ntp628
Rp629
(lp630
F0.0
aF0.0
aF-0.9531662786123465
aF0.30244676443349605
ababag3
(g4
g5
Ntp631
Rp632
(lp633
g3
(g9
g5
Ntp634
Rp635
(lp636
F-0.6912928592174817
aF-4.583283856605786
aF0.0
abag3
(g13
g5
Ntp637
Rp638
(lp639
F0.0
aF0.0
aF-0.9531662786123465
aF0.30244676443349605
ababag3
(g4
g5
Ntp640
Rp641
(lp642
g3
(g9
g5
Ntp643
Rp644
(lp645
F-0.6912928592174817
aF-4.583283856605786
aF0.0
abag3
(g13
g5
Ntp646
Rp647
(lp648
F0.0
aF0.0
aF-0.9531662786123465
aF0.30244676443349605
ababag3
(g4
g5
Ntp649
Rp650
(lp651
g3
(g9
g5
Ntp652
Rp653
(lp654
F-0.6912928592174817
aF-4.583283856605786
aF0.0
abag3
(g13
g5
Ntp655
Rp656
(lp657
F0.0
aF0.0
aF-0.9531662786123465
aF0.30244676443349605
ababag3
(g4
g5
Ntp658
Rp659
(lp660
g3
(g9
g5
Ntp661
Rp662
(lp663
F-0.6912928592174817
aF-4.583283856605786
aF0.0
abag3
(g13
g5
Ntp664
Rp665
(lp666
F0.0
aF0.0
aF-0.9531662786123465
aF0.30244676443349605
ababag3
(g4
g5
Ntp667
Rp668
(lp669
g3
(g9
g5
Ntp670
Rp671
(lp672
F-0.6912928592174817
aF-4.583283856605786
aF0.0
abag3
(g13
g5
Ntp673
Rp674
(lp675
F0.0
aF0.0
aF-0.9531662786123465
aF0.30244676443349605
ababag3
(g4
g5
Ntp676
Rp677
(lp678
g3
(g9
g5
Ntp679
Rp680
(lp681
F-0.6912928592174817
aF-4.583283856605786
aF0.0
abag3
(g13
g5
Ntp682
Rp683
(lp684
F0.0
aF0.0
aF-0.9531662786123465
aF0.30244676443349605
ababag3
(g4
g5
Ntp685
Rp686
(lp687
g3
(g9
g5
Ntp688
Rp689
(lp690
F-0.6912928592174817
aF-4.583283856605786
aF0.0
abag3
(g13
g5
Ntp691
Rp692
(lp693
F0.0
aF0.0
aF-0.9531662786123465
aF0.30244676443349605
ababaaa(lp694
I3
aF69.32799999999997
a(lp695
g3
(g4
g5
Ntp696
Rp697
(lp698
g3
(g9
g5
Ntp699
Rp700
(lp701
F-0.41572686165762057
aF-4.100842670411774
aF0.0
abag3
(g13
g5
Ntp702
Rp703
(lp704
F0.0
aF0.0
aF-0.6121567999062371
aF0.7907363987629222
ababag3
(g4
g5
Ntp705
Rp706
(lp707
g3
(g9
g5
Ntp708
Rp709
(lp710
F-0.41785715292298486
aF-4.166225270256031
aF0.0
abag3
(g13
g5
Ntp711
Rp712
(lp713
F0.0
aF0.0
aF-0.7286189570658429
aF0.684919276560591
ababag3
(g4
g5
Ntp714
Rp715
(lp716
g3
(g9
g5
Ntp717
Rp718
(lp719
F-0.5913840913214004
aF-4.5077537517679716
aF0.0
abag3
(g13
g5
Ntp720
Rp721
(lp722
F0.0
aF0.0
aF-0.9734080108308961
aF0.229078249622783
ababag3
(g4
g5
Ntp723
Rp724
(lp725
g3
(g9
g5
Ntp726
Rp727
(lp728
F-0.7218520794926242
aF-4.479306359743689
aF0.0
abag3
(g13
g5
Ntp729
Rp730
(lp731
F0.0
aF0.0
aF0.9476021238152944
aF0.3194529933194295
ababag3
(g4
g5
Ntp732
Rp733
(lp734
g3
(g9
g5
Ntp735
Rp736
(lp737
F-0.7138755267686063
aF-3.871770895629977
aF0.0
abag3
(g13
g5
Ntp738
Rp739
(lp740
F0.0
aF0.0
aF0.5283696524410484
aF0.849014434729661
ababag3
(g4
g5
Ntp741
Rp742
(lp743
g3
(g9
g5
Ntp744
Rp745
(lp746
F-0.2448446449493263
aF-3.363920673665221
aF0.0
abag3
(g13
g5
Ntp747
Rp748
(lp749
F0.0
aF0.0
aF0.27635487545749515
aF0.9610556606205867
ababag3
(g4
g5
Ntp750
Rp751
(lp752
g3
(g9
g5
Ntp753
Rp754
(lp755
F-0.2448446449493263
aF-3.363920673665221
aF0.0
abag3
(g13
g5
Ntp756
Rp757
(lp758
F0.0
aF0.0
aF0.27635487545749515
aF0.9610556606205867
ababag3
(g4
g5
Ntp759
Rp760
(lp761
g3
(g9
g5
Ntp762
Rp763
(lp764
F-0.2448446449493263
aF-3.363920673665221
aF0.0
abag3
(g13
g5
Ntp765
Rp766
(lp767
F0.0
aF0.0
aF0.27635487545749515
aF0.9610556606205867
ababag3
(g4
g5
Ntp768
Rp769
(lp770
g3
(g9
g5
Ntp771
Rp772
(lp773
F-0.2448446449493263
aF-3.363920673665221
aF0.0
abag3
(g13
g5
Ntp774
Rp775
(lp776
F0.0
aF0.0
aF0.27635487545749515
aF0.9610556606205867
ababag3
(g4
g5
Ntp777
Rp778
(lp779
g3
(g9
g5
Ntp780
Rp781
(lp782
F-0.22031515663654916
aF-3.3205821473843784
aF0.0
abag3
(g13
g5
Ntp783
Rp784
(lp785
F0.0
aF0.0
aF0.1519778308179663
aF0.9883839026106535
ababag3
(g4
g5
Ntp786
Rp787
(lp788
g3
(g9
g5
Ntp789
Rp790
(lp791
F-0.22031515663654916
aF-3.3205821473843784
aF0.0
abag3
(g13
g5
Ntp792
Rp793
(lp794
F0.0
aF0.0
aF0.1519778308179663
aF0.9883839026106535
ababag3
(g4
g5
Ntp795
Rp796
(lp797
g3
(g9
g5
Ntp798
Rp799
(lp800
F-0.20257104190340186
aF-3.322706541140297
aF0.0
abag3
(g13
g5
Ntp801
Rp802
(lp803
F0.0
aF0.0
aF-0.09624311731571299
aF0.9953578564362436
ababag3
(g4
g5
Ntp804
Rp805
(lp806
g3
(g9
g5
Ntp807
Rp808
(lp809
F-0.20257104190340186
aF-3.322706541140297
aF0.0
abag3
(g13
g5
Ntp810
Rp811
(lp812
F0.0
aF0.0
aF-0.09624311731571299
aF0.9953578564362436
ababag3
(g4
g5
Ntp813
Rp814
(lp815
g3
(g9
g5
Ntp816
Rp817
(lp818
F-0.1638558871072557
aF-3.3377491931393433
aF0.0
abag3
(g13
g5
Ntp819
Rp820
(lp821
F0.0
aF0.0
aF-0.3373307738573453
aF0.9413861848406342
ababag3
(g4
g5
Ntp822
Rp823
(lp824
g3
(g9
g5
Ntp825
Rp826
(lp827
F-0.07482595008621828
aF-3.4525708014580982
aF0.0
abag3
(g13
g5
Ntp828
Rp829
(lp830
F0.0
aF0.0
aF-0.3654311241728713
aF0.9308383820437098
ababag3
(g4
g5
Ntp831
Rp832
(lp833
g3
(g9
g5
Ntp834
Rp835
(lp836
F0.4253709945581418
aF-3.5814217657981082
aF0.0
abag3
(g13
g5
Ntp837
Rp838
(lp839
F0.0
aF0.0
aF0.10517647677472955
aF0.9944535729400618
ababag3
(g4
g5
Ntp840
Rp841
(lp842
g3
(g9
g5
Ntp843
Rp844
(lp845
F1.0302274867351275
aF-3.1491747743760996
aF0.0
abag3
(g13
g5
Ntp846
Rp847
(lp848
F0.0
aF0.0
aF0.41150918179184526
aF0.9114056140385608
ababag3
(g4
g5
Ntp849
Rp850
(lp851
g3
(g9
g5
Ntp852
Rp853
(lp854
F1.0302274867351275
aF-3.1491747743760996
aF0.0
abag3
(g13
g5
Ntp855
Rp856
(lp857
F0.0
aF0.0
aF0.41150918179184526
aF0.9114056140385608
ababag3
(g4
g5
Ntp858
Rp859
(lp860
g3
(g9
g5
Ntp861
Rp862
(lp863
F1.0302274867351275
aF-3.1491747743760996
aF0.0
abag3
(g13
g5
Ntp864
Rp865
(lp866
F0.0
aF0.0
aF0.41150918179184526
aF0.9114056140385608
ababag3
(g4
g5
Ntp867
Rp868
(lp869
g3
(g9
g5
Ntp870
Rp871
(lp872
F1.1079027658530771
aF-3.067699248108289
aF0.0
abag3
(g13
g5
Ntp873
Rp874
(lp875
F0.0
aF0.0
aF0.5219604687347295
aF0.8529696765291375
ababag3
(g4
g5
Ntp876
Rp877
(lp878
g3
(g9
g5
Ntp879
Rp880
(lp881
F1.1079027658530771
aF-3.067699248108289
aF0.0
abag3
(g13
g5
Ntp882
Rp883
(lp884
F0.0
aF0.0
aF0.5219604687347295
aF0.8529696765291375
ababag3
(g4
g5
Ntp885
Rp886
(lp887
g3
(g9
g5
Ntp888
Rp889
(lp890
F1.1079027658530771
aF-3.067699248108289
aF0.0
abag3
(g13
g5
Ntp891
Rp892
(lp893
F0.0
aF0.0
aF0.5219604687347295
aF0.8529696765291375
ababag3
(g4
g5
Ntp894
Rp895
(lp896
g3
(g9
g5
Ntp897
Rp898
(lp899
F1.091677921016498
aF-3.0880753989374004
aF0.0
abag3
(g13
g5
Ntp900
Rp901
(lp902
F0.0
aF0.0
aF0.7198578134397527
aF0.694121551624597
ababag3
(g4
g5
Ntp903
Rp904
(lp905
g3
(g9
g5
Ntp906
Rp907
(lp908
F1.091677921016498
aF-3.0880753989374004
aF0.0
abag3
(g13
g5
Ntp909
Rp910
(lp911
F0.0
aF0.0
aF0.7198578134397527
aF0.694121551624597
ababag3
(g4
g5
Ntp912
Rp913
(lp914
g3
(g9
g5
Ntp915
Rp916
(lp917
F1.0844396129895522
aF-3.070100116452276
aF0.0
abag3
(g13
g5
Ntp918
Rp919
(lp920
F0.0
aF0.0
aF0.8697163859976269
aF0.4935518290182166
ababag3
(g4
g5
Ntp921
Rp922
(lp923
g3
(g9
g5
Ntp924
Rp925
(lp926
F1.0844396129895522
aF-3.070100116452276
aF0.0
abag3
(g13
g5
Ntp927
Rp928
(lp929
F0.0
aF0.0
aF0.8697163859976269
aF0.4935518290182166
ababag3
(g4
g5
Ntp930
Rp931
(lp932
g3
(g9
g5
Ntp933
Rp934
(lp935
F1.0431950891819528
aF-3.0491459632775415
aF0.0
abag3
(g13
g5
Ntp936
Rp937
(lp938
F0.0
aF0.0
aF0.971652765814998
aF0.2364125687946064
ababag3
(g4
g5
Ntp939
Rp940
(lp941
g3
(g9
g5
Ntp942
Rp943
(lp944
F0.5744102195227306
aF-3.0713529507393416
aF0.0
abag3
(g13
g5
Ntp945
Rp946
(lp947
F0.0
aF0.0
aF-0.9824711041062337
aF0.18641493930551292
ababag3
(g4
g5
Ntp948
Rp949
(lp950
g3
(g9
g5
Ntp951
Rp952
(lp953
F0.35136299402001636
aF-3.1575034946250273
aF0.0
abag3
(g13
g5
Ntp954
Rp955
(lp956
F0.0
aF0.0
aF-0.976216394204154
aF0.21679841255654975
ababag3
(g4
g5
Ntp957
Rp958
(lp959
g3
(g9
g5
Ntp960
Rp961
(lp962
F0.35136299402001636
aF-3.1575034946250273
aF0.0
abag3
(g13
g5
Ntp963
Rp964
(lp965
F0.0
aF0.0
aF-0.976216394204154
aF0.21679841255654975
ababag3
(g4
g5
Ntp966
Rp967
(lp968
g3
(g9
g5
Ntp969
Rp970
(lp971
F0.35136299402001636
aF-3.1575034946250273
aF0.0
abag3
(g13
g5
Ntp972
Rp973
(lp974
F0.0
aF0.0
aF-0.976216394204154
aF0.21679841255654975
ababag3
(g4
g5
Ntp975
Rp976
(lp977
g3
(g9
g5
Ntp978
Rp979
(lp980
F0.35136299402001636
aF-3.1575034946250273
aF0.0
abag3
(g13
g5
Ntp981
Rp982
(lp983
F0.0
aF0.0
aF-0.976216394204154
aF0.21679841255654975
ababag3
(g4
g5
Ntp984
Rp985
(lp986
g3
(g9
g5
Ntp987
Rp988
(lp989
F0.40625983968985957
aF-3.0945133013803137
aF0.0
abag3
(g13
g5
Ntp990
Rp991
(lp992
F0.0
aF0.0
aF-0.8942125450987825
aF0.4476426299940142
ababag3
(g4
g5
Ntp993
Rp994
(lp995
g3
(g9
g5
Ntp996
Rp997
(lp998
F0.40625983968985957
aF-3.0945133013803137
aF0.0
abag3
(g13
g5
Ntp999
Rp1000
(lp1001
F0.0
aF0.0
aF-0.8942125450987825
aF0.4476426299940142
ababag3
(g4
g5
Ntp1002
Rp1003
(lp1004
g3
(g9
g5
Ntp1005
Rp1006
(lp1007
F0.40577123352516375
aF-3.111836683069423
aF0.0
abag3
(g13
g5
Ntp1008
Rp1009
(lp1010
F0.0
aF0.0
aF-0.7563075076635265
aF0.6542162898092533
ababag3
(g4
g5
Ntp1011
Rp1012
(lp1013
g3
(g9
g5
Ntp1014
Rp1015
(lp1016
F0.40577123352516375
aF-3.111836683069423
aF0.0
abag3
(g13
g5
Ntp1017
Rp1018
(lp1019
F0.0
aF0.0
aF-0.7563075076635265
aF0.6542162898092533
ababag3
(g4
g5
Ntp1020
Rp1021
(lp1022
g3
(g9
g5
Ntp1023
Rp1024
(lp1025
F0.41555757717849573
aF-3.1271933544325825
aF0.0
abag3
(g13
g5
Ntp1026
Rp1027
(lp1028
F0.0
aF0.0
aF-0.5639368584884437
aF0.8258179094922712
ababag3
(g4
g5
Ntp1029
Rp1030
(lp1031
g3
(g9
g5
Ntp1032
Rp1033
(lp1034
F0.4495508227128175
aF-3.3931097426963674
aF0.0
abag3
(g13
g5
Ntp1035
Rp1036
(lp1037
F0.0
aF0.0
aF-0.7657393969712524
aF0.6431509744423176
ababag3
(g4
g5
Ntp1038
Rp1039
(lp1040
g3
(g9
g5
Ntp1041
Rp1042
(lp1043
F-0.0803127848648216
aF-4.260320178085988
aF0.0
abag3
(g13
g5
Ntp1044
Rp1045
(lp1046
F0.0
aF0.0
aF-0.9432131923718886
aF0.33218800962050193
ababag3
(g4
g5
Ntp1047
Rp1048
(lp1049
g3
(g9
g5
Ntp1050
Rp1051
(lp1052
F-0.7261208802930235
aF-4.607090888416583
aF0.0
abag3
(g13
g5
Ntp1053
Rp1054
(lp1055
F0.0
aF0.0
aF-0.9892099291564782
aF0.14650500352628032
ababag3
(g4
g5
Ntp1056
Rp1057
(lp1058
g3
(g9
g5
Ntp1059
Rp1060
(lp1061
F-1.446129573177055
aF-4.843204375125262
aF0.0
abag3
(g13
g5
Ntp1062
Rp1063
(lp1064
F0.0
aF0.0
aF-0.9530243548732088
aF0.3028936760952665
ababag3
(g4
g5
Ntp1065
Rp1066
(lp1067
g3
(g9
g5
Ntp1068
Rp1069
(lp1070
F-1.9310896617857427
aF-5.6393846005522565
aF0.0
abag3
(g13
g5
Ntp1071
Rp1072
(lp1073
F0.0
aF0.0
aF-0.7719466725656405
aF0.6356872931833982
ababag3
(g4
g5
Ntp1074
Rp1075
(lp1076
g3
(g9
g5
Ntp1077
Rp1078
(lp1079
F-1.899659871689751
aF-6.517173612610169
aF0.0
abag3
(g13
g5
Ntp1080
Rp1081
(lp1082
F0.0
aF0.0
aF-0.6209983060735568
aF0.7838119059147884
ababag3
(g4
g5
Ntp1083
Rp1084
(lp1085
g3
(g9
g5
Ntp1086
Rp1087
(lp1088
F-1.6514012762760337
aF-7.544531463041526
aF0.0
abag3
(g13
g5
Ntp1089
Rp1090
(lp1091
F0.0
aF0.0
aF-0.6464114839246998
aF0.7629889864541084
ababag3
(g4
g5
Ntp1092
Rp1093
(lp1094
g3
(g9
g5
Ntp1095
Rp1096
(lp1097
F-1.5857061421249634
aF-8.595013392073497
aF0.0
abag3
(g13
g5
Ntp1098
Rp1099
(lp1100
F0.0
aF0.0
aF-0.7031247721240816
aF0.7110664911423251
ababag3
(g4
g5
Ntp1101
Rp1102
(lp1103
g3
(g9
g5
Ntp1104
Rp1105
(lp1106
F-1.5956934566984726
aF-9.48806794281516
aF0.0
abag3
(g13
g5
Ntp1107
Rp1108
(lp1109
F0.0
aF0.0
aF-0.7306806552925441
aF0.6827194006187742
ababag3
(g4
g5
Ntp1110
Rp1111
(lp1112
g3
(g9
g5
Ntp1113
Rp1114
(lp1115
F-1.866902326147199
aF-10.235895202605924
aF0.0
abag3
(g13
g5
Ntp1116
Rp1117
(lp1118
F0.0
aF0.0
aF-0.9064906002083318
aF0.42222599604233063
ababag3
(g4
g5
Ntp1119
Rp1120
(lp1121
g3
(g9
g5
Ntp1122
Rp1123
(lp1124
F-2.6871235085018657
aF-10.716296212904094
aF0.0
abag3
(g13
g5
Ntp1125
Rp1126
(lp1127
F0.0
aF0.0
aF-0.9931312467827483
aF0.1170056693658208
ababag3
(g4
g5
Ntp1128
Rp1129
(lp1130
g3
(g9
g5
Ntp1131
Rp1132
(lp1133
F-3.639457583574727
aF-10.761081648505536
aF0.0
abag3
(g13
g5
Ntp1134
Rp1135
(lp1136
F0.0
aF0.0
aF0.9991461496751204
aF0.04131551269658859
ababag3
(g4
g5
Ntp1137
Rp1138
(lp1139
g3
(g9
g5
Ntp1140
Rp1141
(lp1142
F-4.427503385234824
aF-10.69975268361047
aF0.0
abag3
(g13
g5
Ntp1143
Rp1144
(lp1145
F0.0
aF0.0
aF0.9993366526453229
aF0.0364177797187207
ababag3
(g4
g5
Ntp1146
Rp1147
(lp1148
g3
(g9
g5
Ntp1149
Rp1150
(lp1151
F-5.55851145448938
aF-10.639194088505683
aF0.0
abag3
(g13
g5
Ntp1152
Rp1153
(lp1154
F0.0
aF0.0
aF0.9996209805340016
aF0.02752989786107526
ababag3
(g4
g5
Ntp1155
Rp1156
(lp1157
g3
(g9
g5
Ntp1158
Rp1159
(lp1160
F-6.765455347722335
aF-10.5941158395578
aF0.0
abag3
(g13
g5
Ntp1161
Rp1162
(lp1163
F0.0
aF0.0
aF0.9999685592740661
aF0.007929720256637704
ababag3
(g4
g5
Ntp1164
Rp1165
(lp1166
g3
(g9
g5
Ntp1167
Rp1168
(lp1169
F-7.5617828181300135
aF-10.596815566526717
aF0.0
abag3
(g13
g5
Ntp1170
Rp1171
(lp1172
F0.0
aF0.0
aF-0.999998823953964
aF0.001533652727578779
ababag3
(g4
g5
Ntp1173
Rp1174
(lp1175
g3
(g9
g5
Ntp1176
Rp1177
(lp1178
F-8.747140157245463
aF-10.582234259945185
aF0.0
abag3
(g13
g5
Ntp1179
Rp1180
(lp1181
F0.0
aF0.0
aF0.9999154844454399
aF0.013000921745833097
ababag3
(g4
g5
Ntp1182
Rp1183
(lp1184
g3
(g9
g5
Ntp1185
Rp1186
(lp1187
F-9.545523058576558
aF-10.576400297780875
aF0.0
abag3
(g13
g5
Ntp1188
Rp1189
(lp1190
F0.0
aF0.0
aF0.9999851414430182
aF0.005451320315927394
ababag3
(g4
g5
Ntp1191
Rp1192
(lp1193
g3
(g9
g5
Ntp1194
Rp1195
(lp1196
F-10.705551012535066
aF-10.56238910196372
aF0.0
abag3
(g13
g5
Ntp1197
Rp1198
(lp1199
F0.0
aF0.0
aF0.9999463780483121
aF0.010355724410302736
ababag3
(g4
g5
Ntp1200
Rp1201
(lp1202
g3
(g9
g5
Ntp1203
Rp1204
(lp1205
F-11.474557749412725
aF-10.54956938294836
aF0.0
abag3
(g13
g5
Ntp1206
Rp1207
(lp1208
F0.0
aF0.0
aF0.9999372142365152
aF0.011205694307696195
ababag3
(g4
g5
Ntp1209
Rp1210
(lp1211
g3
(g9
g5
Ntp1212
Rp1213
(lp1214
F-12.585780806363847
aF-10.522548007770295
aF0.0
abag3
(g13
g5
Ntp1215
Rp1216
(lp1217
F0.0
aF0.0
aF0.9998033804650706
aF0.01982928164653106
ababag3
(g4
g5
Ntp1218
Rp1219
(lp1220
g3
(g9
g5
Ntp1221
Rp1222
(lp1223
F-13.377061706315235
aF-10.489949370086816
aF0.0
abag3
(g13
g5
Ntp1224
Rp1225
(lp1226
F0.0
aF0.0
aF0.99974733635207
aF0.02247806612991976
ababag3
(g4
g5
Ntp1227
Rp1228
(lp1229
g3
(g9
g5
Ntp1230
Rp1231
(lp1232
F-14.375927378341638
aF-10.463301668546237
aF0.0
abag3
(g13
g5
Ntp1233
Rp1234
(lp1235
F0.0
aF0.0
aF0.9999375949169891
aF0.011171672731842908
ababag3
(g4
g5
Ntp1236
Rp1237
(lp1238
g3
(g9
g5
Ntp1239
Rp1240
(lp1241
F-15.591009001272619
aF-10.450083393555666
aF0.0
abag3
(g13
g5
Ntp1242
Rp1243
(lp1244
F0.0
aF0.0
aF0.9999979875581142
aF0.0020062102885240163
ababag3
(g4
g5
Ntp1245
Rp1246
(lp1247
g3
(g9
g5
Ntp1248
Rp1249
(lp1250
F-16.390897909503853
aF-10.441578455327853
aF0.0
abag3
(g13
g5
Ntp1251
Rp1252
(lp1253
F0.0
aF0.0
aF0.9998893851203638
aF0.014873383059035855
ababag3
(g4
g5
Ntp1254
Rp1255
(lp1256
g3
(g9
g5
Ntp1257
Rp1258
(lp1259
F-17.326799285659202
aF-10.3177739945945
aF0.0
abag3
(g13
g5
Ntp1260
Rp1261
(lp1262
F0.0
aF0.0
aF0.9764308891460955
aF0.21583030074891066
ababag3
(g4
g5
Ntp1263
Rp1264
(lp1265
g3
(g9
g5
Ntp1266
Rp1267
(lp1268
F-17.95184134528838
aF-9.64493427552527
aF0.0
abag3
(g13
g5
Ntp1269
Rp1270
(lp1271
F0.0
aF0.0
aF0.8483100100298329
aF0.5294998837423716
ababag3
(g4
g5
Ntp1272
Rp1273
(lp1274
g3
(g9
g5
Ntp1275
Rp1276
(lp1277
F-18.135235455235513
aF-8.778003862181073
aF0.0
abag3
(g13
g5
Ntp1278
Rp1279
(lp1280
F0.0
aF0.0
aF0.7024072304707732
aF0.71177530343668
ababag3
(g4
g5
Ntp1281
Rp1282
(lp1283
g3
(g9
g5
Ntp1284
Rp1285
(lp1286
F-18.03571790049592
aF-7.717730685162297
aF0.0
abag3
(g13
g5
Ntp1287
Rp1288
(lp1289
F0.0
aF0.0
aF0.6441846755673029
aF0.7648699914130824
ababag3
(g4
g5
Ntp1290
Rp1291
(lp1292
g3
(g9
g5
Ntp1293
Rp1294
(lp1295
F-17.941057702950257
aF-7.189256377318013
aF0.0
abag3
(g13
g5
Ntp1296
Rp1297
(lp1298
F0.0
aF0.0
aF0.6352948170952581
aF0.7722697037770564
ababag3
(g4
g5
Ntp1299
Rp1300
(lp1301
g3
(g9
g5
Ntp1302
Rp1303
(lp1304
F-17.887820439052074
aF-6.955831365315317
aF0.0
abag3
(g13
g5
Ntp1305
Rp1306
(lp1307
F0.0
aF0.0
aF0.5931388843952629
aF0.8051001576315477
ababag3
(g4
g5
Ntp1308
Rp1309
(lp1310
g3
(g9
g5
Ntp1311
Rp1312
(lp1313
F-17.80780412061735
aF-6.75012073709704
aF0.0
abag3
(g13
g5
Ntp1314
Rp1315
(lp1316
F0.0
aF0.0
aF0.5368322912632414
aF0.8436889776790132
ababaaa(lp1317
I3
aF43.24400000000014
a(lp1318
g3
(g4
g5
Ntp1319
Rp1320
(lp1321
g3
(g9
g5
Ntp1322
Rp1323
(lp1324
F-0.41465539813857477
aF-4.10674880750942
aF0.0
abag3
(g13
g5
Ntp1325
Rp1326
(lp1327
F0.0
aF0.0
aF-0.6221393900141724
aF0.7829064946676542
ababag3
(g4
g5
Ntp1328
Rp1329
(lp1330
g3
(g9
g5
Ntp1331
Rp1332
(lp1333
F-0.4264120498584853
aF-4.15135486930798
aF0.0
abag3
(g13
g5
Ntp1334
Rp1335
(lp1336
F0.0
aF0.0
aF-0.7438765013032445
aF0.6683171034837012
ababag3
(g4
g5
Ntp1337
Rp1338
(lp1339
g3
(g9
g5
Ntp1340
Rp1341
(lp1342
F-0.47081555197248465
aF-4.22630467658358
aF0.0
abag3
(g13
g5
Ntp1343
Rp1344
(lp1345
F0.0
aF0.0
aF-0.8918029130816989
aF0.4524240977434732
ababag3
(g4
g5
Ntp1346
Rp1347
(lp1348
g3
(g9
g5
Ntp1349
Rp1350
(lp1351
F-0.47081555197248465
aF-4.22630467658358
aF0.0
abag3
(g13
g5
Ntp1352
Rp1353
(lp1354
F0.0
aF0.0
aF-0.8918029130816989
aF0.4524240977434732
ababag3
(g4
g5
Ntp1355
Rp1356
(lp1357
g3
(g9
g5
Ntp1358
Rp1359
(lp1360
F-0.49107989622170584
aF-4.282842297107375
aF0.0
abag3
(g13
g5
Ntp1361
Rp1362
(lp1363
F0.0
aF0.0
aF-0.5436352772138806
aF0.8393215625542972
ababag3
(g4
g5
Ntp1364
Rp1365
(lp1366
g3
(g9
g5
Ntp1367
Rp1368
(lp1369
F-0.47206828723900013
aF-4.278352566966394
aF0.0
abag3
(g13
g5
Ntp1370
Rp1371
(lp1372
F0.0
aF0.0
aF-0.014806643261201137
aF0.9998903756489186
ababag3
(g4
g5
Ntp1373
Rp1374
(lp1375
g3
(g9
g5
Ntp1376
Rp1377
(lp1378
F0.11119602803955285
aF-3.8669291168999314
aF0.0
abag3
(g13
g5
Ntp1379
Rp1380
(lp1381
F0.0
aF0.0
aF0.35444684712367086
aF0.9350761640444532
ababag3
(g4
g5
Ntp1382
Rp1383
(lp1384
g3
(g9
g5
Ntp1385
Rp1386
(lp1387
F0.6841861256746534
aF-3.062035846852841
aF0.0
abag3
(g13
g5
Ntp1388
Rp1389
(lp1390
F0.0
aF0.0
aF0.6029993170788466
aF0.7977417023087389
ababag3
(g4
g5
Ntp1391
Rp1392
(lp1393
g3
(g9
g5
Ntp1394
Rp1395
(lp1396
F0.6690015347487038
aF-2.1771168196076283
aF0.0
abag3
(g13
g5
Ntp1397
Rp1398
(lp1399
F0.0
aF0.0
aF0.7947560011406466
aF0.6069290721747712
ababag3
(g4
g5
Ntp1400
Rp1401
(lp1402
g3
(g9
g5
Ntp1403
Rp1404
(lp1405
F0.18373840113903467
aF-1.3058789213617994
aF0.0
abag3
(g13
g5
Ntp1406
Rp1407
(lp1408
F0.0
aF0.0
aF0.8966584597010729
aF0.4427229456968539
ababag3
(g4
g5
Ntp1409
Rp1410
(lp1411
g3
(g9
g5
Ntp1412
Rp1413
(lp1414
F-0.33849979634812416
aF-0.7453807381711154
aF0.0
abag3
(g13
g5
Ntp1415
Rp1416
(lp1417
F0.0
aF0.0
aF0.9378646511744497
aF0.3470012911754477
ababag3
(g4
g5
Ntp1418
Rp1419
(lp1420
g3
(g9
g5
Ntp1421
Rp1422
(lp1423
F-1.238488841505246
aF-0.26617448238522595
aF0.0
abag3
(g13
g5
Ntp1424
Rp1425
(lp1426
F0.0
aF0.0
aF0.9899582431197703
aF0.14136009648842812
ababag3
(g4
g5
Ntp1427
Rp1428
(lp1429
g3
(g9
g5
Ntp1430
Rp1431
(lp1432
F-2.3163674453447927
aF-0.05856124233306489
aF0.0
abag3
(g13
g5
Ntp1433
Rp1434
(lp1435
F0.0
aF0.0
aF0.9976111986475447
aF0.06907891380884049
ababag3
(g4
g5
Ntp1436
Rp1437
(lp1438
g3
(g9
g5
Ntp1439
Rp1440
(lp1441
F-3.0994087286305443
aF0.05094008755652528
aF0.0
abag3
(g13
g5
Ntp1442
Rp1443
(lp1444
F0.0
aF0.0
aF0.9969918752176219
aF0.07750613362857135
ababag3
(g4
g5
Ntp1445
Rp1446
(lp1447
g3
(g9
g5
Ntp1448
Rp1449
(lp1450
F-4.260153322456538
aF0.24692114447282867
aF0.0
abag3
(g13
g5
Ntp1451
Rp1452
(lp1453
F0.0
aF0.0
aF0.9973374670602377
aF0.07292445953086862
ababag3
(g4
g5
Ntp1454
Rp1455
(lp1456
g3
(g9
g5
Ntp1457
Rp1458
(lp1459
F-5.031327289827372
aF0.3725974097008233
aF0.0
abag3
(g13
g5
Ntp1460
Rp1461
(lp1462
F0.0
aF0.0
aF0.9961594945553623
aF0.08755718935190285
ababag3
(g4
g5
Ntp1463
Rp1464
(lp1465
g3
(g9
g5
Ntp1466
Rp1467
(lp1468
F-6.055119908133405
aF0.5214124064967115
aF0.0
abag3
(g13
g5
Ntp1469
Rp1470
(lp1471
F0.0
aF0.0
aF0.9991659167339458
aF0.0408346768961571
ababag3
(g4
g5
Ntp1472
Rp1473
(lp1474
g3
(g9
g5
Ntp1475
Rp1476
(lp1477
F-7.092520428538538
aF0.5610042342401383
aF0.0
abag3
(g13
g5
Ntp1478
Rp1479
(lp1480
F0.0
aF0.0
aF0.999999995711657
aF9.26103987353336e-05
ababag3
(g4
g5
Ntp1481
Rp1482
(lp1483
g3
(g9
g5
Ntp1484
Rp1485
(lp1486
F-8.072457397059997
aF0.351753559562326
aF0.0
abag3
(g13
g5
Ntp1487
Rp1488
(lp1489
F0.0
aF0.0
aF-0.9756290565294695
aF0.21942639780896298
ababag3
(g4
g5
Ntp1490
Rp1491
(lp1492
g3
(g9
g5
Ntp1493
Rp1494
(lp1495
F-8.658165867311766
aF-0.10609494828192416
aF0.0
abag3
(g13
g5
Ntp1496
Rp1497
(lp1498
F0.0
aF0.0
aF-0.8974010249836406
aF0.44121582061198933
ababag3
(g4
g5
Ntp1499
Rp1500
(lp1501
g3
(g9
g5
Ntp1502
Rp1503
(lp1504
F-8.98295054918293
aF-0.7744376722204118
aF0.0
abag3
(g13
g5
Ntp1505
Rp1506
(lp1507
F0.0
aF0.0
aF-0.8103442558026216
aF0.5859540827468441
ababag3
(g4
g5
Ntp1508
Rp1509
(lp1510
g3
(g9
g5
Ntp1511
Rp1512
(lp1513
F-9.145093641487103
aF-1.9922681141546965
aF0.0
abag3
(g13
g5
Ntp1514
Rp1515
(lp1516
F0.0
aF0.0
aF-0.7216405734891744
aF0.6922679269576306
ababag3
(g4
g5
Ntp1517
Rp1518
(lp1519
g3
(g9
g5
Ntp1520
Rp1521
(lp1522
F-9.218537922618166
aF-2.815410242686451
aF0.0
abag3
(g13
g5
Ntp1523
Rp1524
(lp1525
F0.0
aF0.0
aF-0.7751205195861953
aF0.6318134060910916
ababag3
(g4
g5
Ntp1526
Rp1527
(lp1528
g3
(g9
g5
Ntp1529
Rp1530
(lp1531
F-9.58781464319596
aF-3.5612986534049256
aF0.0
abag3
(g13
g5
Ntp1532
Rp1533
(lp1534
F0.0
aF0.0
aF-0.9028790057014118
aF0.42989475579917247
ababag3
(g4
g5
Ntp1535
Rp1536
(lp1537
g3
(g9
g5
Ntp1538
Rp1539
(lp1540
F-10.355476600964806
aF-4.16849977236566
aF0.0
abag3
(g13
g5
Ntp1541
Rp1542
(lp1543
F0.0
aF0.0
aF-0.9615412142578884
aF0.27466068754640777
ababag3
(g4
g5
Ntp1544
Rp1545
(lp1546
g3
(g9
g5
Ntp1547
Rp1548
(lp1549
F-11.103463426632127
aF-4.846770136541091
aF0.0
abag3
(g13
g5
Ntp1550
Rp1551
(lp1552
F0.0
aF0.0
aF-0.8828887585058586
aF0.4695821973882567
ababag3
(g4
g5
Ntp1553
Rp1554
(lp1555
g3
(g9
g5
Ntp1556
Rp1557
(lp1558
F-11.427091175910226
aF-5.611126924348315
aF0.0
abag3
(g13
g5
Ntp1559
Rp1560
(lp1561
F0.0
aF0.0
aF-0.7884073374914802
aF0.6151535338349242
ababag3
(g4
g5
Ntp1562
Rp1563
(lp1564
g3
(g9
g5
Ntp1565
Rp1566
(lp1567
F-11.575939600627619
aF-6.779407914746325
aF0.0
abag3
(g13
g5
Ntp1568
Rp1569
(lp1570
F0.0
aF0.0
aF-0.7167993852634841
aF0.6972794570944216
ababag3
(g4
g5
Ntp1571
Rp1572
(lp1573
g3
(g9
g5
Ntp1574
Rp1575
(lp1576
F-11.584978636936162
aF-7.580399288827853
aF0.0
abag3
(g13
g5
Ntp1577
Rp1578
(lp1579
F0.0
aF0.0
aF-0.705066779528744
aF0.709140914349867
ababag3
(g4
g5
Ntp1580
Rp1581
(lp1582
g3
(g9
g5
Ntp1583
Rp1584
(lp1585
F-11.576997331829771
aF-8.62878839594483
aF0.0
abag3
(g13
g5
Ntp1586
Rp1587
(lp1588
F0.0
aF0.0
aF-0.708384208701887
aF0.7058270417473401
ababag3
(g4
g5
Ntp1589
Rp1590
(lp1591
g3
(g9
g5
Ntp1592
Rp1593
(lp1594
F-11.616822127836262
aF-9.440374132295073
aF0.0
abag3
(g13
g5
Ntp1595
Rp1596
(lp1597
F0.0
aF0.0
aF-0.7730737650401208
aF0.6343161308107275
ababag3
(g4
g5
Ntp1598
Rp1599
(lp1600
g3
(g9
g5
Ntp1601
Rp1602
(lp1603
F-12.214485369186663
aF-10.229890889044468
aF0.0
abag3
(g13
g5
Ntp1604
Rp1605
(lp1606
F0.0
aF0.0
aF-0.9588851149641262
aF0.28379453183638786
ababag3
(g4
g5
Ntp1607
Rp1608
(lp1609
g3
(g9
g5
Ntp1610
Rp1611
(lp1612
F-13.146095520893168
aF-10.540507195018643
aF0.0
abag3
(g13
g5
Ntp1613
Rp1614
(lp1615
F0.0
aF0.0
aF-0.998812492168531
aF0.04871966223290317
ababag3
(g4
g5
Ntp1616
Rp1617
(lp1618
g3
(g9
g5
Ntp1619
Rp1620
(lp1621
F-13.935191388184462
aF-10.5382322020433
aF0.0
abag3
(g13
g5
Ntp1622
Rp1623
(lp1624
F0.0
aF0.0
aF0.9993854925984997
aF0.03505192125481929
ababag3
(g4
g5
Ntp1625
Rp1626
(lp1627
g3
(g9
g5
Ntp1628
Rp1629
(lp1630
F-15.004140180884441
aF-10.482908236109756
aF0.0
abag3
(g13
g5
Ntp1631
Rp1632
(lp1633
F0.0
aF0.0
aF0.9997476272990795
aF0.022465122075361044
ababag3
(g4
g5
Ntp1634
Rp1635
(lp1636
g3
(g9
g5
Ntp1637
Rp1638
(lp1639
F-16.07630611255841
aF-10.459962525384235
aF0.0
abag3
(g13
g5
Ntp1640
Rp1641
(lp1642
F0.0
aF0.0
aF0.9998545897625128
aF0.017052839377568338
ababag3
(g4
g5
Ntp1643
Rp1644
(lp1645
g3
(g9
g5
Ntp1646
Rp1647
(lp1648
F-16.918165193094175
aF-10.43554300114812
aF0.0
abag3
(g13
g5
Ntp1649
Rp1650
(lp1651
F0.0
aF0.0
aF0.9994366156684248
aF0.033562646815251514
ababag3
(g4
g5
Ntp1652
Rp1653
(lp1654
g3
(g9
g5
Ntp1655
Rp1656
(lp1657
F-17.730522724498876
aF-10.133217729941114
aF0.0
abag3
(g13
g5
Ntp1658
Rp1659
(lp1660
F0.0
aF0.0
aF0.925844154657029
aF0.37790554545734245
ababag3
(g4
g5
Ntp1661
Rp1662
(lp1663
g3
(g9
g5
Ntp1664
Rp1665
(lp1666
F-18.160922571893437
aF-9.278771837898763
aF0.0
abag3
(g13
g5
Ntp1667
Rp1668
(lp1669
F0.0
aF0.0
aF0.7632303432727194
aF0.6461264915694193
ababag3
(g4
g5
Ntp1670
Rp1671
(lp1672
g3
(g9
g5
Ntp1673
Rp1674
(lp1675
F-18.142499723301615
aF-8.380898851623076
aF0.0
abag3
(g13
g5
Ntp1676
Rp1677
(lp1678
F0.0
aF0.0
aF0.6499366078992231
aF0.7599884247226739
ababag3
(g4
g5
Ntp1679
Rp1680
(lp1681
g3
(g9
g5
Ntp1682
Rp1683
(lp1684
F-17.948005245015644
aF-7.290808236781939
aF0.0
abag3
(g13
g5
Ntp1685
Rp1686
(lp1687
F0.0
aF0.0
aF0.6392651301666984
aF0.7689864064812552
ababag3
(g4
g5
Ntp1688
Rp1689
(lp1690
g3
(g9
g5
Ntp1691
Rp1692
(lp1693
F-17.890897779245158
aF-7.0149369699163
aF0.0
abag3
(g13
g5
Ntp1694
Rp1695
(lp1696
F0.0
aF0.0
aF0.6076961238948562
aF0.7941696424588185
ababag3
(g4
g5
Ntp1697
Rp1698
(lp1699
g3
(g9
g5
Ntp1700
Rp1701
(lp1702
F-17.809631499513205
aF-6.780455876360653
aF0.0
abag3
(g13
g5
Ntp1703
Rp1704
(lp1705
F0.0
aF0.0
aF0.5138807775003182
aF0.8578616126833444
ababaaa(lp1706
I3
aF29.6400000000001
a(lp1707
g3
(g4
g5
Ntp1708
Rp1709
(lp1710
g3
(g9
g5
Ntp1711
Rp1712
(lp1713
F-0.41069406217441795
aF-4.111693957594339
aF0.0
abag3
(g13
g5
Ntp1714
Rp1715
(lp1716
F0.0
aF0.0
aF-0.6245718674734984
aF0.7809673375760774
ababag3
(g4
g5
Ntp1717
Rp1718
(lp1719
g3
(g9
g5
Ntp1720
Rp1721
(lp1722
F-0.4847780534375183
aF-4.295855955237639
aF0.0
abag3
(g13
g5
Ntp1723
Rp1724
(lp1725
F0.0
aF0.0
aF-0.9115468344054265
aF0.4111962654079508
ababag3
(g4
g5
Ntp1726
Rp1727
(lp1728
g3
(g9
g5
Ntp1729
Rp1730
(lp1731
F-0.9290176300494103
aF-4.554366652825851
aF0.0
abag3
(g13
g5
Ntp1732
Rp1733
(lp1734
F0.0
aF0.0
aF-0.9590068513922831
aF0.28338288406793266
ababag3
(g4
g5
Ntp1735
Rp1736
(lp1737
g3
(g9
g5
Ntp1738
Rp1739
(lp1740
F-1.4623168369942263
aF-5.191155303590974
aF0.0
abag3
(g13
g5
Ntp1741
Rp1742
(lp1743
F0.0
aF0.0
aF-0.8409026298002972
aF0.5411864440236326
ababag3
(g4
g5
Ntp1744
Rp1745
(lp1746
g3
(g9
g5
Ntp1747
Rp1748
(lp1749
F-1.6202884288535246
aF-6.166747753698524
aF0.0
abag3
(g13
g5
Ntp1750
Rp1751
(lp1752
F0.0
aF0.0
aF-0.6834464928831806
aF0.7300006105241834
ababag3
(g4
g5
Ntp1753
Rp1754
(lp1755
g3
(g9
g5
Ntp1756
Rp1757
(lp1758
F-1.4961353366176273
aF-7.2287419678086255
aF0.0
abag3
(g13
g5
Ntp1759
Rp1760
(lp1761
F0.0
aF0.0
aF-0.6716032492583435
aF0.7409109768289543
ababag3
(g4
g5
Ntp1762
Rp1763
(lp1764
g3
(g9
g5
Ntp1765
Rp1766
(lp1767
F-1.457052435159551
aF-8.029562839091385
aF0.0
abag3
(g13
g5
Ntp1768
Rp1769
(lp1770
F0.0
aF0.0
aF-0.71006513683097
aF0.7041359964220093
ababag3
(g4
g5
Ntp1771
Rp1772
(lp1773
g3
(g9
g5
Ntp1774
Rp1775
(lp1776
F-1.5450879491229905
aF-9.09194278703157
aF0.0
abag3
(g13
g5
Ntp1777
Rp1778
(lp1779
F0.0
aF0.0
aF-0.7773687775001444
aF0.6290451365108317
ababag3
(g4
g5
Ntp1780
Rp1781
(lp1782
g3
(g9
g5
Ntp1783
Rp1784
(lp1785
F-1.7740692566504688
aF-10.063937528928149
aF0.0
abag3
(g13
g5
Ntp1786
Rp1787
(lp1788
F0.0
aF0.0
aF-0.8418341508622196
aF0.5397362897212729
ababag3
(g4
g5
Ntp1789
Rp1790
(lp1791
g3
(g9
g5
Ntp1792
Rp1793
(lp1794
F-2.349464948336123
aF-10.635635345134348
aF0.0
abag3
(g13
g5
Ntp1795
Rp1796
(lp1797
F0.0
aF0.0
aF-0.9735332444725208
aF0.22854544823034037
ababag3
(g4
g5
Ntp1798
Rp1799
(lp1800
g3
(g9
g5
Ntp1801
Rp1802
(lp1803
F-3.3437188922179435
aF-10.851101642330418
aF0.0
abag3
(g13
g5
Ntp1804
Rp1805
(lp1806
F0.0
aF0.0
aF-0.999991378209633
aF0.004152530120138918
ababag3
(g4
g5
Ntp1807
Rp1808
(lp1809
g3
(g9
g5
Ntp1810
Rp1811
(lp1812
F-4.405849378179729
aF-10.768077001069642
aF0.0
abag3
(g13
g5
Ntp1813
Rp1814
(lp1815
F0.0
aF0.0
aF0.9984034747761115
aF0.056484524916002
ababag3
(g4
g5
Ntp1816
Rp1817
(lp1818
g3
(g9
g5
Ntp1819
Rp1820
(lp1821
F-5.213098603543704
aF-10.689644896176027
aF0.0
abag3
(g13
g5
Ntp1822
Rp1823
(lp1824
F0.0
aF0.0
aF0.9988565710151668
aF0.04780743184718335
ababag3
(g4
g5
Ntp1825
Rp1826
(lp1827
g3
(g9
g5
Ntp1828
Rp1829
(lp1830
F-6.271554757103475
aF-10.62637649104521
aF0.0
abag3
(g13
g5
Ntp1831
Rp1832
(lp1833
F0.0
aF0.0
aF0.9996676205067533
aF0.02578077792398838
ababag3
(g4
g5
Ntp1834
Rp1835
(lp1836
g3
(g9
g5
Ntp1837
Rp1838
(lp1839
F-7.344641886796212
aF-10.603114219425557
aF0.0
abag3
(g13
g5
Ntp1840
Rp1841
(lp1842
F0.0
aF0.0
aF0.9999999412903253
aF0.0003426650637591299
ababag3
(g4
g5
Ntp1843
Rp1844
(lp1845
g3
(g9
g5
Ntp1846
Rp1847
(lp1848
F-8.405174931766748
aF-10.581263752866652
aF0.0
abag3
(g13
g5
Ntp1849
Rp1850
(lp1851
F0.0
aF0.0
aF0.9999320231709816
aF0.011659718572392721
ababag3
(g4
g5
Ntp1852
Rp1853
(lp1854
g3
(g9
g5
Ntp1855
Rp1856
(lp1857
F-9.199543716381214
aF-10.559797378026133
aF0.0
abag3
(g13
g5
Ntp1858
Rp1859
(lp1860
F0.0
aF0.0
aF0.9999442389155339
aF0.01056025850222507
ababag3
(g4
g5
Ntp1861
Rp1862
(lp1863
g3
(g9
g5
Ntp1864
Rp1865
(lp1866
F-10.253762519371683
aF-10.547069250601693
aF0.0
abag3
(g13
g5
Ntp1867
Rp1868
(lp1869
F0.0
aF0.0
aF0.9999823137415004
aF0.005947453589177471
ababag3
(g4
g5
Ntp1870
Rp1871
(lp1872
g3
(g9
g5
Ntp1873
Rp1874
(lp1875
F-11.282165951076896
aF-10.527484676136552
aF0.0
abag3
(g13
g5
Ntp1876
Rp1877
(lp1878
F0.0
aF0.0
aF0.9999990468075438
aF0.0013807186548201386
ababag3
(g4
g5
Ntp1879
Rp1880
(lp1881
g3
(g9
g5
Ntp1882
Rp1883
(lp1884
F-12.328056577672061
aF-10.518805272978337
aF0.0
abag3
(g13
g5
Ntp1885
Rp1886
(lp1887
F0.0
aF0.0
aF0.9998851503832424
aF0.015155396500281146
ababag3
(g4
g5
Ntp1888
Rp1889
(lp1890
g3
(g9
g5
Ntp1891
Rp1892
(lp1893
F-13.133018945171372
aF-10.486075308534923
aF0.0
abag3
(g13
g5
Ntp1894
Rp1895
(lp1896
F0.0
aF0.0
aF0.999815723206806
aF0.01919686506832252
ababag3
(g4
g5
Ntp1897
Rp1898
(lp1899
g3
(g9
g5
Ntp1900
Rp1901
(lp1902
F-14.208902844202736
aF-10.455369990937077
aF0.0
abag3
(g13
g5
Ntp1903
Rp1904
(lp1905
F0.0
aF0.0
aF0.9999593194038702
aF0.009019952181062127
ababag3
(g4
g5
Ntp1906
Rp1907
(lp1908
g3
(g9
g5
Ntp1909
Rp1910
(lp1911
F-15.281418823031473
aF-10.45236843726533
aF0.0
abag3
(g13
g5
Ntp1912
Rp1913
(lp1914
F0.0
aF0.0
aF0.9999847998537782
aF0.005513625068793129
ababag3
(g4
g5
Ntp1915
Rp1916
(lp1917
g3
(g9
g5
Ntp1918
Rp1919
(lp1920
F-16.32863083556441
aF-10.425009002347625
aF0.0
abag3
(g13
g5
Ntp1921
Rp1922
(lp1923
F0.0
aF0.0
aF0.9997108002126601
aF0.024048200310268154
ababag3
(g4
g5
Ntp1924
Rp1925
(lp1926
g3
(g9
g5
Ntp1927
Rp1928
(lp1929
F-17.108436942217683
aF-10.383686472134901
aF0.0
abag3
(g13
g5
Ntp1930
Rp1931
(lp1932
F0.0
aF0.0
aF0.9982116276427943
aF0.059779147189663796
ababag3
(g4
g5
Ntp1933
Rp1934
(lp1935
g3
(g9
g5
Ntp1936
Rp1937
(lp1938
F-17.80046055705532
aF-10.103408514389747
aF0.0
abag3
(g13
g5
Ntp1939
Rp1940
(lp1941
F0.0
aF0.0
aF0.9309623744168457
aF0.36511512899378584
ababag3
(g4
g5
Ntp1942
Rp1943
(lp1944
g3
(g9
g5
Ntp1945
Rp1946
(lp1947
F-18.176400148768153
aF-9.117186277247411
aF0.0
abag3
(g13
g5
Ntp1948
Rp1949
(lp1950
F0.0
aF0.0
aF0.7203154010621823
aF0.6936466845539071
ababag3
(g4
g5
Ntp1951
Rp1952
(lp1953
g3
(g9
g5
Ntp1954
Rp1955
(lp1956
F-18.07909548921151
aF-8.077037687310096
aF0.0
abag3
(g13
g5
Ntp1957
Rp1958
(lp1959
F0.0
aF0.0
aF0.6440802310999225
aF0.7649579438807537
ababag3
(g4
g5
Ntp1960
Rp1961
(lp1962
g3
(g9
g5
Ntp1963
Rp1964
(lp1965
F-17.948936271470036
aF-7.340520503042243
aF0.0
abag3
(g13
g5
Ntp1966
Rp1967
(lp1968
F0.0
aF0.0
aF0.6284028084558574
aF0.7778881091293214
ababag3
(g4
g5
Ntp1969
Rp1970
(lp1971
g3
(g9
g5
Ntp1972
Rp1973
(lp1974
F-17.846172263729894
aF-6.901160049663115
aF0.0
abag3
(g13
g5
Ntp1975
Rp1976
(lp1977
F0.0
aF0.0
aF0.6015392942817706
aF0.7988432120478896
ababaaa(lp1978
I3
aF31.766000000000076
a(lp1979
g3
(g4
g5
Ntp1980
Rp1981
(lp1982
g3
(g9
g5
Ntp1983
Rp1984
(lp1985
F-0.4136588808622237
aF-4.106784123173158
aF0.0
abag3
(g13
g5
Ntp1986
Rp1987
(lp1988
F0.0
aF0.0
aF-0.6197100651116314
aF0.784830832217579
ababag3
(g4
g5
Ntp1989
Rp1990
(lp1991
g3
(g9
g5
Ntp1992
Rp1993
(lp1994
F-0.42545261575006754
aF-4.1641098353308355
aF0.0
abag3
(g13
g5
Ntp1995
Rp1996
(lp1997
F0.0
aF0.0
aF-0.7400532809402184
aF0.6725482446409463
ababag3
(g4
g5
Ntp1998
Rp1999
(lp2000
g3
(g9
g5
Ntp2001
Rp2002
(lp2003
F-0.7489575912448244
aF-4.416244709334639
aF0.0
abag3
(g13
g5
Ntp2004
Rp2005
(lp2006
F0.0
aF0.0
aF-0.979621010484242
aF0.2008548625695496
ababag3
(g4
g5
Ntp2007
Rp2008
(lp2009
g3
(g9
g5
Ntp2010
Rp2011
(lp2012
F-1.3579774989073023
aF-4.910825176094529
aF0.0
abag3
(g13
g5
Ntp2013
Rp2014
(lp2015
F0.0
aF0.0
aF-0.879093335589949
aF0.4766496693813365
ababag3
(g4
g5
Ntp2016
Rp2017
(lp2018
g3
(g9
g5
Ntp2019
Rp2020
(lp2021
F-1.6341231772674787
aF-5.865035109008422
aF0.0
abag3
(g13
g5
Ntp2022
Rp2023
(lp2024
F0.0
aF0.0
aF-0.7212873051784102
aF0.6926359963129746
ababag3
(g4
g5
Ntp2025
Rp2026
(lp2027
g3
(g9
g5
Ntp2028
Rp2029
(lp2030
F-1.5089814635949659
aF-6.886352552449171
aF0.0
abag3
(g13
g5
Ntp2031
Rp2032
(lp2033
F0.0
aF0.0
aF-0.6390278243651574
aF0.7691836189669756
ababag3
(g4
g5
Ntp2034
Rp2035
(lp2036
g3
(g9
g5
Ntp2037
Rp2038
(lp2039
F-1.4016410663932675
aF-7.94183577309227
aF0.0
abag3
(g13
g5
Ntp2040
Rp2041
(lp2042
F0.0
aF0.0
aF-0.7081918546106067
aF0.7060200401285994
ababag3
(g4
g5
Ntp2043
Rp2044
(lp2045
g3
(g9
g5
Ntp2046
Rp2047
(lp2048
F-1.459534226149552
aF-8.726837899210153
aF0.0
abag3
(g13
g5
Ntp2049
Rp2050
(lp2051
F0.0
aF0.0
aF-0.7551693863538431
aF0.6555297078805506
ababag3
(g4
g5
Ntp2052
Rp2053
(lp2054
g3
(g9
g5
Ntp2055
Rp2056
(lp2057
F-1.7307362052236435
aF-9.705706128802627
aF0.0
abag3
(g13
g5
Ntp2058
Rp2059
(lp2060
F0.0
aF0.0
aF-0.8445942934909764
aF0.5354068354088118
ababag3
(g4
g5
Ntp2061
Rp2062
(lp2063
g3
(g9
g5
Ntp2064
Rp2065
(lp2066
F-2.3129057365325583
aF-10.492631158227313
aF0.0
abag3
(g13
g5
Ntp2067
Rp2068
(lp2069
F0.0
aF0.0
aF-0.9535375219561195
aF0.30127428403662826
ababag3
(g4
g5
Ntp2070
Rp2071
(lp2072
g3
(g9
g5
Ntp2073
Rp2074
(lp2075
F-3.2009154371887383
aF-10.830087534200908
aF0.0
abag3
(g13
g5
Ntp2076
Rp2077
(lp2078
F0.0
aF0.0
aF-0.9974070716913133
aF0.07196619581553143
ababag3
(g4
g5
Ntp2079
Rp2080
(lp2081
g3
(g9
g5
Ntp2082
Rp2083
(lp2084
F-4.25170357710035
aF-10.841893004419955
aF0.0
abag3
(g13
g5
Ntp2085
Rp2086
(lp2087
F0.0
aF0.0
aF0.9984998830685872
aF0.0547538447236141
ababag3
(g4
g5
Ntp2088
Rp2089
(lp2090
g3
(g9
g5
Ntp2091
Rp2092
(lp2093
F-5.0489176776301505
aF-10.741484626090838
aF0.0
abag3
(g13
g5
Ntp2094
Rp2095
(lp2096
F0.0
aF0.0
aF0.9972529426951345
aF0.07407137291757715
ababag3
(g4
g5
Ntp2097
Rp2098
(lp2099
g3
(g9
g5
Ntp2100
Rp2101
(lp2102
F-6.089698625748437
aF-10.642037817043988
aF0.0
abag3
(g13
g5
Ntp2103
Rp2104
(lp2105
F0.0
aF0.0
aF0.9993527075376358
aF0.03597451788692262
ababag3
(g4
g5
Ntp2106
Rp2107
(lp2108
g3
(g9
g5
Ntp2109
Rp2110
(lp2111
F-7.149765816935725
aF-10.601495892198164
aF0.0
abag3
(g13
g5
Ntp2112
Rp2113
(lp2114
F0.0
aF0.0
aF0.9999864185921313
aF0.005211778130618925
ababag3
(g4
g5
Ntp2115
Rp2116
(lp2117
g3
(g9
g5
Ntp2118
Rp2119
(lp2120
F-8.205781722269597
aF-10.580940403278236
aF0.0
abag3
(g13
g5
Ntp2121
Rp2122
(lp2123
F0.0
aF0.0
aF0.9999429259655727
aF0.010683857515398921
ababag3
(g4
g5
Ntp2124
Rp2125
(lp2126
g3
(g9
g5
Ntp2127
Rp2128
(lp2129
F-9.008137652041986
aF-10.559845123684337
aF0.0
abag3
(g13
g5
Ntp2130
Rp2131
(lp2132
F0.0
aF0.0
aF0.9999189720715684
aF0.012729858260720844
ababag3
(g4
g5
Ntp2133
Rp2134
(lp2135
g3
(g9
g5
Ntp2136
Rp2137
(lp2138
F-10.052524141394967
aF-10.53639805901071
aF0.0
abag3
(g13
g5
Ntp2139
Rp2140
(lp2141
F0.0
aF0.0
aF0.9999545065677397
aF0.009538595015431889
ababag3
(g4
g5
Ntp2142
Rp2143
(lp2144
g3
(g9
g5
Ntp2145
Rp2146
(lp2147
F-11.083286248795352
aF-10.532467935838914
aF0.0
abag3
(g13
g5
Ntp2148
Rp2149
(lp2150
F0.0
aF0.0
aF-0.9999765864495151
aF0.006842992969116066
ababag3
(g4
g5
Ntp2151
Rp2152
(lp2153
g3
(g9
g5
Ntp2154
Rp2155
(lp2156
F-12.123371858527072
aF-10.523572547111012
aF0.0
abag3
(g13
g5
Ntp2157
Rp2158
(lp2159
F0.0
aF0.0
aF0.9998710363721326
aF0.01605959601352341
ababag3
(g4
g5
Ntp2160
Rp2161
(lp2162
g3
(g9
g5
Ntp2163
Rp2164
(lp2165
F-12.915957742183782
aF-10.49993246027819
aF0.0
abag3
(g13
g5
Ntp2166
Rp2167
(lp2168
F0.0
aF0.0
aF0.9999108069328431
aF0.013355829398078374
ababag3
(g4
g5
Ntp2169
Rp2170
(lp2171
g3
(g9
g5
Ntp2172
Rp2173
(lp2174
F-13.99660805850396
aF-10.469970046767282
aF0.0
abag3
(g13
g5
Ntp2175
Rp2176
(lp2177
F0.0
aF0.0
aF0.9998972145650916
aF0.014337374409951564
ababag3
(g4
g5
Ntp2178
Rp2179
(lp2180
g3
(g9
g5
Ntp2181
Rp2182
(lp2183
F-15.062418559269307
aF-10.448070667009546
aF0.0
abag3
(g13
g5
Ntp2184
Rp2185
(lp2186
F0.0
aF0.0
aF0.9999710866387561
aF0.007604333403083968
ababag3
(g4
g5
Ntp2187
Rp2188
(lp2189
g3
(g9
g5
Ntp2190
Rp2191
(lp2192
F-16.111875690753948
aF-10.441225589994275
aF0.0
abag3
(g13
g5
Ntp2193
Rp2194
(lp2195
F0.0
aF0.0
aF0.9999735296686943
aF0.007275985289485869
ababag3
(g4
g5
Ntp2196
Rp2197
(lp2198
g3
(g9
g5
Ntp2199
Rp2200
(lp2201
F-16.890497876214063
aF-10.422437397798928
aF0.0
abag3
(g13
g5
Ntp2202
Rp2203
(lp2204
F0.0
aF0.0
aF0.9996853136125511
aF0.025085329325630866
ababag3
(g4
g5
Ntp2205
Rp2206
(lp2207
g3
(g9
g5
Ntp2208
Rp2209
(lp2210
F-17.761318246247768
aF-10.125417230022967
aF0.0
abag3
(g13
g5
Ntp2211
Rp2212
(lp2213
F0.0
aF0.0
aF0.932489329628065
aF0.36119752231957786
ababag3
(g4
g5
Ntp2214
Rp2215
(lp2216
g3
(g9
g5
Ntp2217
Rp2218
(lp2219
F-18.172188499760313
aF-9.326601764589903
aF0.0
abag3
(g13
g5
Ntp2220
Rp2221
(lp2222
F0.0
aF0.0
aF0.7821279787297348
aF0.6231178258468775
ababag3
(g4
g5
Ntp2223
Rp2224
(lp2225
g3
(g9
g5
Ntp2226
Rp2227
(lp2228
F-18.2239988054362
aF-8.596848297242975
aF0.0
abag3
(g13
g5
Ntp2229
Rp2230
(lp2231
F0.0
aF0.0
aF0.6967793985414508
aF0.717285486935442
ababag3
(g4
g5
Ntp2232
Rp2233
(lp2234
g3
(g9
g5
Ntp2235
Rp2236
(lp2237
F-18.13352575820954
aF-7.910459530187845
aF0.0
abag3
(g13
g5
Ntp2238
Rp2239
(lp2240
F0.0
aF0.0
aF0.6337345564595788
aF0.7735505878408864
ababag3
(g4
g5
Ntp2241
Rp2242
(lp2243
g3
(g9
g5
Ntp2244
Rp2245
(lp2246
F-17.9561466681357
aF-7.19330202727918
aF0.0
abag3
(g13
g5
Ntp2247
Rp2248
(lp2249
F0.0
aF0.0
aF0.5922911766235077
aF0.8057239987079575
ababag3
(g4
g5
Ntp2250
Rp2251
(lp2252
g3
(g9
g5
Ntp2253
Rp2254
(lp2255
F-17.897123379303164
aF-7.001341319504314
aF0.0
abag3
(g13
g5
Ntp2256
Rp2257
(lp2258
F0.0
aF0.0
aF0.58479503328115
aF0.8111810951012719
ababag3
(g4
g5
Ntp2259
Rp2260
(lp2261
g3
(g9
g5
Ntp2262
Rp2263
(lp2264
F-17.829896864524912
aF-6.801943098376449
aF0.0
abag3
(g13
g5
Ntp2265
Rp2266
(lp2267
F0.0
aF0.0
aF0.5718347444662077
aF0.8203688347452425
ababaaa.