(lp0
(lp1
I3
aF37.27999999999997
a(lp2
ccopy_reg
_reconstructor
p3
(cgeometry_msgs.msg._Pose
Pose
p4
c__builtin__
object
p5
Ntp6
Rp7
(lp8
g3
(cgeometry_msgs.msg._Point
Point
p9
g5
Ntp10
Rp11
(lp12
F-14.327945940778408
aF-0.14684093860496034
aF0.0
abag3
(cgeometry_msgs.msg._Quaternion
Quaternion
p13
g5
Ntp14
Rp15
(lp16
F0.0
aF0.0
aF-0.8287854923249509
aF0.5595664461989198
ababag3
(g4
g5
Ntp17
Rp18
(lp19
g3
(g9
g5
Ntp20
Rp21
(lp22
F-14.327945940778408
aF-0.14684093860496034
aF0.0
abag3
(g13
g5
Ntp23
Rp24
(lp25
F0.0
aF0.0
aF-0.8287854923249509
aF0.5595664461989198
ababag3
(g4
g5
Ntp26
Rp27
(lp28
g3
(g9
g5
Ntp29
Rp30
(lp31
F-14.327945940778408
aF-0.14684093860496034
aF0.0
abag3
(g13
g5
Ntp32
Rp33
(lp34
F0.0
aF0.0
aF-0.8287854923249509
aF0.5595664461989198
ababag3
(g4
g5
Ntp35
Rp36
(lp37
g3
(g9
g5
Ntp38
Rp39
(lp40
F-14.32855464797999
aF-0.17406583903430492
aF0.0
abag3
(g13
g5
Ntp41
Rp42
(lp43
F0.0
aF0.0
aF-0.882089618851826
aF0.47108163232484485
ababag3
(g4
g5
Ntp44
Rp45
(lp46
g3
(g9
g5
Ntp47
Rp48
(lp49
F-14.32855464797999
aF-0.17406583903430492
aF0.0
abag3
(g13
g5
Ntp50
Rp51
(lp52
F0.0
aF0.0
aF-0.882089618851826
aF0.47108163232484485
ababag3
(g4
g5
Ntp53
Rp54
(lp55
g3
(g9
g5
Ntp56
Rp57
(lp58
F-14.340028265182829
aF-0.19688654144354484
aF0.0
abag3
(g13
g5
Ntp59
Rp60
(lp61
F0.0
aF0.0
aF-0.9602500160178274
aF0.27914137410595735
ababag3
(g4
g5
Ntp62
Rp63
(lp64
g3
(g9
g5
Ntp65
Rp66
(lp67
F-14.36331642200782
aF-0.2264265525881552
aF0.0
abag3
(g13
g5
Ntp68
Rp69
(lp70
F0.0
aF0.0
aF0.9826537244448411
aF0.1854498795758097
ababag3
(g4
g5
Ntp71
Rp72
(lp73
g3
(g9
g5
Ntp74
Rp75
(lp76
F-14.382854745036676
aF-0.1797380599063181
aF0.0
abag3
(g13
g5
Ntp77
Rp78
(lp79
F0.0
aF0.0
aF0.7764549263310376
aF0.6301727916819821
ababag3
(g4
g5
Ntp80
Rp81
(lp82
g3
(g9
g5
Ntp83
Rp84
(lp85
F-14.088736214903824
aF0.1338892757563993
aF0.0
abag3
(g13
g5
Ntp86
Rp87
(lp88
F0.0
aF0.0
aF0.12728321268116768
aF0.9918664142764189
ababag3
(g4
g5
Ntp89
Rp90
(lp91
g3
(g9
g5
Ntp92
Rp93
(lp94
F-13.648017429448688
aF0.05720351993254023
aF0.0
abag3
(g13
g5
Ntp95
Rp96
(lp97
F0.0
aF0.0
aF-0.16922584346984465
aF0.985577299810583
ababag3
(g4
g5
Ntp98
Rp99
(lp100
g3
(g9
g5
Ntp101
Rp102
(lp103
F-12.606663870361405
aF-0.10547514525513814
aF0.0
abag3
(g13
g5
Ntp104
Rp105
(lp106
F0.0
aF0.0
aF0.010738141818498671
aF0.9999423444930642
ababag3
(g4
g5
Ntp107
Rp108
(lp109
g3
(g9
g5
Ntp110
Rp111
(lp112
F-11.555735591083375
aF-0.013157074823756724
aF0.0
abag3
(g13
g5
Ntp113
Rp114
(lp115
F0.0
aF0.0
aF0.0524373759635511
aF0.9986242144080311
ababag3
(g4
g5
Ntp116
Rp117
(lp118
g3
(g9
g5
Ntp119
Rp120
(lp121
F-10.762316119000351
aF0.08253718322124814
aF0.0
abag3
(g13
g5
Ntp122
Rp123
(lp124
F0.0
aF0.0
aF0.08054074932821527
aF0.9967513168778106
ababag3
(g4
g5
Ntp125
Rp126
(lp127
g3
(g9
g5
Ntp128
Rp129
(lp130
F-9.724600587017935
aF0.25517266758464646
aF0.0
abag3
(g13
g5
Ntp131
Rp132
(lp133
F0.0
aF0.0
aF0.08884560677749041
aF0.9960454096858936
ababag3
(g4
g5
Ntp134
Rp135
(lp136
g3
(g9
g5
Ntp137
Rp138
(lp139
F-8.755898548107616
aF0.4283639179476246
aF0.0
abag3
(g13
g5
Ntp140
Rp141
(lp142
F0.0
aF0.0
aF0.09158005412312345
aF0.9957977172532612
ababag3
(g4
g5
Ntp143
Rp144
(lp145
g3
(g9
g5
Ntp146
Rp147
(lp148
F-7.718371001040329
aF0.560245541044744
aF0.0
abag3
(g13
g5
Ntp149
Rp150
(lp151
F0.0
aF0.0
aF0.03053920382438944
aF0.9995335697362907
ababag3
(g4
g5
Ntp152
Rp153
(lp154
g3
(g9
g5
Ntp155
Rp156
(lp157
F-6.662284232441863
aF0.5782863894592852
aF0.0
abag3
(g13
g5
Ntp158
Rp159
(lp160
F0.0
aF0.0
aF8.911793077100493e-07
aF0.9999999999996029
ababag3
(g4
g5
Ntp161
Rp162
(lp163
g3
(g9
g5
Ntp164
Rp165
(lp166
F-5.884146619952431
aF0.5663408742955135
aF0.0
abag3
(g13
g5
Ntp167
Rp168
(lp169
F0.0
aF0.0
aF-0.025535746506732085
aF0.9996739096577163
ababag3
(g4
g5
Ntp170
Rp171
(lp172
g3
(g9
g5
Ntp173
Rp174
(lp175
F-4.889498175594091
aF0.3622460523664589
aF0.0
abag3
(g13
g5
Ntp176
Rp177
(lp178
F0.0
aF0.0
aF-0.2104598491301313
aF0.9776025019935876
ababag3
(g4
g5
Ntp179
Rp180
(lp181
g3
(g9
g5
Ntp182
Rp183
(lp184
F-3.9056410896472364
aF-0.008047210402791435
aF0.0
abag3
(g13
g5
Ntp185
Rp186
(lp187
F0.0
aF0.0
aF-0.11748908986390214
aF0.9930741733440418
ababag3
(g4
g5
Ntp188
Rp189
(lp190
g3
(g9
g5
Ntp191
Rp192
(lp193
F-2.865082561467103
aF-0.11402309772409845
aF0.0
abag3
(g13
g5
Ntp194
Rp195
(lp196
F0.0
aF0.0
aF-0.00910737989869218
aF0.9999585269556838
ababag3
(g4
g5
Ntp197
Rp198
(lp199
g3
(g9
g5
Ntp200
Rp201
(lp202
F-2.0824974749047698
aF-0.07206369454144268
aF0.0
abag3
(g13
g5
Ntp203
Rp204
(lp205
F0.0
aF0.0
aF0.07066532114874234
aF0.9975000813969617
ababag3
(g4
g5
Ntp206
Rp207
(lp208
g3
(g9
g5
Ntp209
Rp210
(lp211
F-1.127277854664662
aF0.13566697145349813
aF0.0
abag3
(g13
g5
Ntp212
Rp213
(lp214
F0.0
aF0.0
aF0.12101574766207847
aF0.9926505874766751
ababag3
(g4
g5
Ntp215
Rp216
(lp217
g3
(g9
g5
Ntp218
Rp219
(lp220
F0.016536551371557417
aF0.3315418776854441
aF0.0
abag3
(g13
g5
Ntp221
Rp222
(lp223
F0.0
aF0.0
aF0.04677428524037176
aF0.9989054841376397
ababag3
(g4
g5
Ntp224
Rp225
(lp226
g3
(g9
g5
Ntp227
Rp228
(lp229
F0.7969356812833011
aF0.4122185334075828
aF0.0
abag3
(g13
g5
Ntp230
Rp231
(lp232
F0.0
aF0.0
aF0.05839434254580905
aF0.9982935944694039
ababag3
(g4
g5
Ntp233
Rp234
(lp235
g3
(g9
g5
Ntp236
Rp237
(lp238
F1.8561945868806087
aF0.5005545908382496
aF0.0
abag3
(g13
g5
Ntp239
Rp240
(lp241
F0.0
aF0.0
aF0.023212929080703236
aF0.9997305436583871
ababag3
(g4
g5
Ntp242
Rp243
(lp244
g3
(g9
g5
Ntp245
Rp246
(lp247
F2.927002531977402
aF0.5196943019070162
aF0.0
abag3
(g13
g5
Ntp248
Rp249
(lp250
F0.0
aF0.0
aF-0.0016895525439076641
aF0.9999985727050821
ababag3
(g4
g5
Ntp251
Rp252
(lp253
g3
(g9
g5
Ntp254
Rp255
(lp256
F3.7266805450942537
aF0.5066983000493748
aF0.0
abag3
(g13
g5
Ntp257
Rp258
(lp259
F0.0
aF0.0
aF-0.012608740487263053
aF0.9999205066720679
ababag3
(g4
g5
Ntp260
Rp261
(lp262
g3
(g9
g5
Ntp263
Rp264
(lp265
F4.779134770230148
aF0.443702632164734
aF0.0
abag3
(g13
g5
Ntp266
Rp267
(lp268
F0.0
aF0.0
aF-0.06410639210885045
aF0.9979430697643961
ababag3
(g4
g5
Ntp269
Rp270
(lp271
g3
(g9
g5
Ntp272
Rp273
(lp274
F5.79746429788503
aF0.251727707100762
aF0.0
abag3
(g13
g5
Ntp275
Rp276
(lp277
F0.0
aF0.0
aF-0.1367794104687383
aF0.9906015308244907
ababag3
(g4
g5
Ntp278
Rp279
(lp280
g3
(g9
g5
Ntp281
Rp282
(lp283
F6.706014509156193
aF0.00021228401918630587
aF0.0
abag3
(g13
g5
Ntp284
Rp285
(lp286
F0.0
aF0.0
aF-0.14331048609993857
aF0.9896777781549909
ababag3
(g4
g5
Ntp287
Rp288
(lp289
g3
(g9
g5
Ntp290
Rp291
(lp292
F6.945372703806058
aF-0.06940535473124908
aF0.0
abag3
(g13
g5
Ntp293
Rp294
(lp295
F0.0
aF0.0
aF-0.148908614664635
aF0.9888509617119555
ababag3
(g4
g5
Ntp296
Rp297
(lp298
g3
(g9
g5
Ntp299
Rp300
(lp301
F7.159040778131258
aF-0.1380823317585913
aF0.0
abag3
(g13
g5
Ntp302
Rp303
(lp304
F0.0
aF0.0
aF-0.15735019253908605
aF0.9875428683899816
ababag3
(g4
g5
Ntp305
Rp306
(lp307
g3
(g9
g5
Ntp308
Rp309
(lp310
F7.159040778131258
aF-0.1380823317585913
aF0.0
abag3
(g13
g5
Ntp311
Rp312
(lp313
F0.0
aF0.0
aF-0.15735019253908605
aF0.9875428683899816
ababag3
(g4
g5
Ntp314
Rp315
(lp316
g3
(g9
g5
Ntp317
Rp318
(lp319
F7.294623675595324
aF-0.182791176655692
aF0.0
abag3
(g13
g5
Ntp320
Rp321
(lp322
F0.0
aF0.0
aF-0.03469182190327839
aF0.9993980575791767
ababag3
(g4
g5
Ntp323
Rp324
(lp325
g3
(g9
g5
Ntp326
Rp327
(lp328
F7.3347878694388315
aF-0.17359661333416104
aF0.0
abag3
(g13
g5
Ntp329
Rp330
(lp331
F0.0
aF0.0
aF0.22444705138599685
aF0.9744862857547723
ababag3
(g4
g5
Ntp332
Rp333
(lp334
g3
(g9
g5
Ntp335
Rp336
(lp337
F7.3347878694388315
aF-0.17359661333416104
aF0.0
abag3
(g13
g5
Ntp338
Rp339
(lp340
F0.0
aF0.0
aF0.22444705138599685
aF0.9744862857547723
ababag3
(g4
g5
Ntp341
Rp342
(lp343
g3
(g9
g5
Ntp344
Rp345
(lp346
F7.36246096954089
aF-0.13952949270899603
aF0.0
abag3
(g13
g5
Ntp347
Rp348
(lp349
F0.0
aF0.0
aF0.4714131811886996
aF0.8819124744562525
ababaaa.