(lp0
(lp1
I3
aF33.23999999999998
a(lp2
ccopy_reg
_reconstructor
p3
(cgeometry_msgs.msg._Pose
Pose
p4
c__builtin__
object
p5
Ntp6
Rp7
(lp8
g3
(cgeometry_msgs.msg._Point
Point
p9
g5
Ntp10
Rp11
(lp12
F4.433178641658962
aF-14.852688957454445
aF0.0
abag3
(cgeometry_msgs.msg._Quaternion
Quaternion
p13
g5
Ntp14
Rp15
(lp16
F0.0
aF0.0
aF-0.6543263716320538
aF0.756212271380749
ababag3
(g4
g5
Ntp17
Rp18
(lp19
g3
(g9
g5
Ntp20
Rp21
(lp22
F4.42347828015937
aF-14.853614497995565
aF0.0
abag3
(g13
g5
Ntp23
Rp24
(lp25
F0.0
aF0.0
aF-0.9000904303141661
aF0.43570312973039255
ababag3
(g4
g5
Ntp26
Rp27
(lp28
g3
(g9
g5
Ntp29
Rp30
(lp31
F4.324166535842127
aF-14.84376786963925
aF0.0
abag3
(g13
g5
Ntp32
Rp33
(lp34
F0.0
aF0.0
aF0.994457149288506
aF0.10514265656230146
ababag3
(g4
g5
Ntp35
Rp36
(lp37
g3
(g9
g5
Ntp38
Rp39
(lp40
F4.036733158684892
aF-14.303347053644844
aF0.0
abag3
(g13
g5
Ntp41
Rp42
(lp43
F0.0
aF0.0
aF0.7469002412812019
aF0.6649361093925358
ababag3
(g4
g5
Ntp44
Rp45
(lp46
g3
(g9
g5
Ntp47
Rp48
(lp49
F4.166656785905713
aF-13.2955358420192
aF0.0
abag3
(g13
g5
Ntp50
Rp51
(lp52
F0.0
aF0.0
aF0.6164330136940308
aF0.7874073530442136
ababag3
(g4
g5
Ntp53
Rp54
(lp55
g3
(g9
g5
Ntp56
Rp57
(lp58
F4.391787371809421
aF-12.283577876027346
aF0.0
abag3
(g13
g5
Ntp59
Rp60
(lp61
F0.0
aF0.0
aF0.625348418522319
aF0.7803456640820364
ababag3
(g4
g5
Ntp62
Rp63
(lp64
g3
(g9
g5
Ntp65
Rp66
(lp67
F4.51716471431766
aF-11.541848740553283
aF0.0
abag3
(g13
g5
Ntp68
Rp69
(lp70
F0.0
aF0.0
aF0.6138305503882929
aF0.789437809716513
ababag3
(g4
g5
Ntp71
Rp72
(lp73
g3
(g9
g5
Ntp74
Rp75
(lp76
F5.019559592488031
aF-10.835614277551684
aF0.0
abag3
(g13
g5
Ntp77
Rp78
(lp79
F0.0
aF0.0
aF0.2810632462760128
aF0.9596892474091754
ababag3
(g4
g5
Ntp80
Rp81
(lp82
g3
(g9
g5
Ntp83
Rp84
(lp85
F5.966938677184998
aF-10.615267962696086
aF0.0
abag3
(g13
g5
Ntp86
Rp87
(lp88
F0.0
aF0.0
aF-0.02223054958758252
aF0.9997528707960953
ababag3
(g4
g5
Ntp89
Rp90
(lp91
g3
(g9
g5
Ntp92
Rp93
(lp94
F6.997967916657155
aF-10.635937418561396
aF0.0
abag3
(g13
g5
Ntp95
Rp96
(lp97
F0.0
aF0.0
aF0.043148238817353676
aF0.9990686810660019
ababag3
(g4
g5
Ntp98
Rp99
(lp100
g3
(g9
g5
Ntp101
Rp102
(lp103
F7.961622578480032
aF-10.36718253734893
aF0.0
abag3
(g13
g5
Ntp104
Rp105
(lp106
F0.0
aF0.0
aF0.25093080226444026
aF0.9680050270917627
ababag3
(g4
g5
Ntp107
Rp108
(lp109
g3
(g9
g5
Ntp110
Rp111
(lp112
F8.528197931249288
aF-9.661886499280996
aF0.0
abag3
(g13
g5
Ntp113
Rp114
(lp115
F0.0
aF0.0
aF0.5649791976434066
aF0.8251051485902948
ababag3
(g4
g5
Ntp116
Rp117
(lp118
g3
(g9
g5
Ntp119
Rp120
(lp121
F8.656142646461639
aF-8.91171624425442
aF0.0
abag3
(g13
g5
Ntp122
Rp123
(lp124
F0.0
aF0.0
aF0.7159365075978665
aF0.6981653937918794
ababag3
(g4
g5
Ntp125
Rp126
(lp127
g3
(g9
g5
Ntp128
Rp129
(lp130
F8.541359553959044
aF-7.864595252835894
aF0.0
abag3
(g13
g5
Ntp131
Rp132
(lp133
F0.0
aF0.0
aF0.7473314583253593
aF0.6644514213976005
ababag3
(g4
g5
Ntp134
Rp135
(lp136
g3
(g9
g5
Ntp137
Rp138
(lp139
F8.529768488751001
aF-6.805364222090775
aF0.0
abag3
(g13
g5
Ntp140
Rp141
(lp142
F0.0
aF0.0
aF0.688753088238961
aF0.7249959885691052
ababag3
(g4
g5
Ntp143
Rp144
(lp145
g3
(g9
g5
Ntp146
Rp147
(lp148
F8.598166335921754
aF-6.018568839060309
aF0.0
abag3
(g13
g5
Ntp149
Rp150
(lp151
F0.0
aF0.0
aF0.6526092118440353
aF0.7576946724217527
ababag3
(g4
g5
Ntp152
Rp153
(lp154
g3
(g9
g5
Ntp155
Rp156
(lp157
F8.847653640566051
aF-5.018185372056094
aF0.0
abag3
(g13
g5
Ntp158
Rp159
(lp160
F0.0
aF0.0
aF0.5377164702283377
aF0.8431257306269198
ababag3
(g4
g5
Ntp161
Rp162
(lp163
g3
(g9
g5
Ntp164
Rp165
(lp166
F9.391521108341772
aF-4.323781479508424
aF0.0
abag3
(g13
g5
Ntp167
Rp168
(lp169
F0.0
aF0.0
aF0.34119082543174006
aF0.9399940535137485
ababag3
(g4
g5
Ntp170
Rp171
(lp172
g3
(g9
g5
Ntp173
Rp174
(lp175
F10.081079607256221
aF-3.8463737339159065
aF0.0
abag3
(g13
g5
Ntp176
Rp177
(lp178
F0.0
aF0.0
aF0.3107932979565352
aF0.9504775252184032
ababag3
(g4
g5
Ntp179
Rp180
(lp181
g3
(g9
g5
Ntp182
Rp183
(lp184
F10.595275402870662
aF-2.9206751736541663
aF0.0
abag3
(g13
g5
Ntp185
Rp186
(lp187
F0.0
aF0.0
aF0.65153170006611
aF0.7586214100649707
ababag3
(g4
g5
Ntp188
Rp189
(lp190
g3
(g9
g5
Ntp191
Rp192
(lp193
F10.516007186453052
aF-1.935203915117412
aF0.0
abag3
(g13
g5
Ntp194
Rp195
(lp196
F0.0
aF0.0
aF0.8135101989703067
aF0.5815506479845861
ababag3
(g4
g5
Ntp197
Rp198
(lp199
g3
(g9
g5
Ntp200
Rp201
(lp202
F10.025526163784955
aF-1.02376629738509
aF0.0
abag3
(g13
g5
Ntp203
Rp204
(lp205
F0.0
aF0.0
aF0.8982185530078489
aF0.43954912243398464
ababag3
(g4
g5
Ntp206
Rp207
(lp208
g3
(g9
g5
Ntp209
Rp210
(lp211
F9.331959201485333
aF-0.505850824307385
aF0.0
abag3
(g13
g5
Ntp212
Rp213
(lp214
F0.0
aF0.0
aF0.9837369503568802
aF0.17961517893136159
ababag3
(g4
g5
Ntp215
Rp216
(lp217
g3
(g9
g5
Ntp218
Rp219
(lp220
F8.297168199864753
aF-0.38031923993828076
aF0.0
abag3
(g13
g5
Ntp221
Rp222
(lp223
F0.0
aF0.0
aF0.9999323713609234
aF0.011629819625446422
ababag3
(g4
g5
Ntp224
Rp225
(lp226
g3
(g9
g5
Ntp227
Rp228
(lp229
F7.527245791027838
aF-0.3575106574896855
aF0.0
abag3
(g13
g5
Ntp230
Rp231
(lp232
F0.0
aF0.0
aF0.9999346715260604
aF0.011430340330441359
ababag3
(g4
g5
Ntp233
Rp234
(lp235
g3
(g9
g5
Ntp236
Rp237
(lp238
F7.054959022349211
aF-0.34355347809537146
aF0.0
abag3
(g13
g5
Ntp239
Rp240
(lp241
F0.0
aF0.0
aF0.9999174049309002
aF0.012852366173364724
ababag3
(g4
g5
Ntp242
Rp243
(lp244
g3
(g9
g5
Ntp245
Rp246
(lp247
F7.054959022349211
aF-0.34355347809537146
aF0.0
abag3
(g13
g5
Ntp248
Rp249
(lp250
F0.0
aF0.0
aF0.9999174049309002
aF0.012852366173364724
ababag3
(g4
g5
Ntp251
Rp252
(lp253
g3
(g9
g5
Ntp254
Rp255
(lp256
F6.849167904575825
aF-0.33931275177073617
aF0.0
abag3
(g13
g5
Ntp257
Rp258
(lp259
F0.0
aF0.0
aF0.9999420565642503
aF0.01076492053188266
ababag3
(g4
g5
Ntp260
Rp261
(lp262
g3
(g9
g5
Ntp263
Rp264
(lp265
F6.849167904575825
aF-0.33931275177073617
aF0.0
abag3
(g13
g5
Ntp266
Rp267
(lp268
F0.0
aF0.0
aF0.9999420565642503
aF0.01076492053188266
ababag3
(g4
g5
Ntp269
Rp270
(lp271
g3
(g9
g5
Ntp272
Rp273
(lp274
F6.849167904575825
aF-0.33931275177073617
aF0.0
abag3
(g13
g5
Ntp275
Rp276
(lp277
F0.0
aF0.0
aF0.9999420565642503
aF0.01076492053188266
ababag3
(g4
g5
Ntp278
Rp279
(lp280
g3
(g9
g5
Ntp281
Rp282
(lp283
F6.745540004249342
aF-0.34074723435073817
aF0.0
abag3
(g13
g5
Ntp284
Rp285
(lp286
F0.0
aF0.0
aF-0.9732668290707901
aF0.2296773376510829
ababag3
(g4
g5
Ntp287
Rp288
(lp289
g3
(g9
g5
Ntp290
Rp291
(lp292
F6.721249529848584
aF-0.3614995082565836
aF0.0
abag3
(g13
g5
Ntp293
Rp294
(lp295
F0.0
aF0.0
aF-0.8826740805319215
aF0.46998560356369096
ababag3
(g4
g5
Ntp296
Rp297
(lp298
g3
(g9
g5
Ntp299
Rp300
(lp301
F6.721249529848584
aF-0.3614995082565836
aF0.0
abag3
(g13
g5
Ntp302
Rp303
(lp304
F0.0
aF0.0
aF-0.8826740805319215
aF0.46998560356369096
ababag3
(g4
g5
Ntp305
Rp306
(lp307
g3
(g9
g5
Ntp308
Rp309
(lp310
F6.716467110458742
aF-0.38407209013883764
aF0.0
abag3
(g13
g5
Ntp311
Rp312
(lp313
F0.0
aF0.0
aF-0.7289774943363937
aF0.684537663500726
ababaaa(lp314
I4
aF38.91999999999962
a(lp315
g3
(g4
g5
Ntp316
Rp317
(lp318
g3
(g9
g5
Ntp319
Rp320
(lp321
F4.433201943132299
aF-14.850931358317286
aF0.0
abag3
(g13
g5
Ntp322
Rp323
(lp324
F0.0
aF0.0
aF-0.654370637051025
aF0.756173967659186
ababag3
(g4
g5
Ntp325
Rp326
(lp327
g3
(g9
g5
Ntp328
Rp329
(lp330
F4.433590182693439
aF-14.845719520643906
aF0.0
abag3
(g13
g5
Ntp331
Rp332
(lp333
F0.0
aF0.0
aF-0.7569941203230022
aF0.6534216875773287
ababag3
(g4
g5
Ntp334
Rp335
(lp336
g3
(g9
g5
Ntp337
Rp338
(lp339
F4.412422165734296
aF-14.847375328533555
aF0.0
abag3
(g13
g5
Ntp340
Rp341
(lp342
F0.0
aF0.0
aF-0.9955611847027502
aF0.09411656343734887
ababag3
(g4
g5
Ntp343
Rp344
(lp345
g3
(g9
g5
Ntp346
Rp347
(lp348
F4.22859577997871
aF-14.664026066191354
aF0.0
abag3
(g13
g5
Ntp349
Rp350
(lp351
F0.0
aF0.0
aF0.8829236038254338
aF0.46951667681554027
ababag3
(g4
g5
Ntp352
Rp353
(lp354
g3
(g9
g5
Ntp355
Rp356
(lp357
F3.9474691126225743
aF-13.991253450599219
aF0.0
abag3
(g13
g5
Ntp358
Rp359
(lp360
F0.0
aF0.0
aF0.7745437278798402
aF0.632520366155905
ababag3
(g4
g5
Ntp361
Rp362
(lp363
g3
(g9
g5
Ntp364
Rp365
(lp366
F3.8715452038062748
aF-13.403514077509
aF0.0
abag3
(g13
g5
Ntp367
Rp368
(lp369
F0.0
aF0.0
aF0.7638945414154136
aF0.6453410955422992
ababag3
(g4
g5
Ntp370
Rp371
(lp372
g3
(g9
g5
Ntp373
Rp374
(lp375
F3.8715452038062748
aF-13.403514077509
aF0.0
abag3
(g13
g5
Ntp376
Rp377
(lp378
F0.0
aF0.0
aF0.7638945414154136
aF0.6453410955422992
ababag3
(g4
g5
Ntp379
Rp380
(lp381
g3
(g9
g5
Ntp382
Rp383
(lp384
F3.8560295570255274
aF-13.319015756743667
aF0.0
abag3
(g13
g5
Ntp385
Rp386
(lp387
F0.0
aF0.0
aF0.9061933809591636
aF0.42286351971504965
ababag3
(g4
g5
Ntp388
Rp389
(lp390
g3
(g9
g5
Ntp391
Rp392
(lp393
F3.847250422610485
aF-13.307411789887476
aF0.0
abag3
(g13
g5
Ntp394
Rp395
(lp396
F0.0
aF0.0
aF0.9837507173422062
aF0.1795397619712547
ababag3
(g4
g5
Ntp397
Rp398
(lp399
g3
(g9
g5
Ntp400
Rp401
(lp402
F3.8380907051563242
aF-13.316411954453427
aF0.0
abag3
(g13
g5
Ntp403
Rp404
(lp405
F0.0
aF0.0
aF-0.9968232466089585
aF0.07964555869585863
ababag3
(g4
g5
Ntp406
Rp407
(lp408
g3
(g9
g5
Ntp409
Rp410
(lp411
F3.8380907051563242
aF-13.316411954453427
aF0.0
abag3
(g13
g5
Ntp412
Rp413
(lp414
F0.0
aF0.0
aF-0.9968232466089585
aF0.07964555869585863
ababag3
(g4
g5
Ntp415
Rp416
(lp417
g3
(g9
g5
Ntp418
Rp419
(lp420
F3.8389951690301105
aF-13.326118049900803
aF0.0
abag3
(g13
g5
Ntp421
Rp422
(lp423
F0.0
aF0.0
aF-0.9452463736886575
aF0.3263576152450603
ababag3
(g4
g5
Ntp424
Rp425
(lp426
g3
(g9
g5
Ntp427
Rp428
(lp429
F3.8896344820707376
aF-13.372264924258209
aF0.0
abag3
(g13
g5
Ntp430
Rp431
(lp432
F0.0
aF0.0
aF-0.375457109010222
aF0.9268397700215967
ababag3
(g4
g5
Ntp433
Rp434
(lp435
g3
(g9
g5
Ntp436
Rp437
(lp438
F4.276429945226237
aF-13.426260409211382
aF0.0
abag3
(g13
g5
Ntp439
Rp440
(lp441
F0.0
aF0.0
aF0.20889368341332992
aF0.9779383564570987
ababag3
(g4
g5
Ntp442
Rp443
(lp444
g3
(g9
g5
Ntp445
Rp446
(lp447
F4.752988985114545
aF-12.898123406170674
aF0.0
abag3
(g13
g5
Ntp448
Rp449
(lp450
F0.0
aF0.0
aF0.5284649770990298
aF0.8489551036301753
ababag3
(g4
g5
Ntp451
Rp452
(lp453
g3
(g9
g5
Ntp454
Rp455
(lp456
F4.752988985114545
aF-12.898123406170674
aF0.0
abag3
(g13
g5
Ntp457
Rp458
(lp459
F0.0
aF0.0
aF0.5284649770990298
aF0.8489551036301753
ababag3
(g4
g5
Ntp460
Rp461
(lp462
g3
(g9
g5
Ntp463
Rp464
(lp465
F4.920880570853216
aF-12.718982996305684
aF0.0
abag3
(g13
g5
Ntp466
Rp467
(lp468
F0.0
aF0.0
aF0.5925740505297042
aF0.8055159803745793
ababag3
(g4
g5
Ntp469
Rp470
(lp471
g3
(g9
g5
Ntp472
Rp473
(lp474
F4.920880570853216
aF-12.718982996305684
aF0.0
abag3
(g13
g5
Ntp475
Rp476
(lp477
F0.0
aF0.0
aF0.5925740505297042
aF0.8055159803745793
ababag3
(g4
g5
Ntp478
Rp479
(lp480
g3
(g9
g5
Ntp481
Rp482
(lp483
F4.920880570853216
aF-12.718982996305684
aF0.0
abag3
(g13
g5
Ntp484
Rp485
(lp486
F0.0
aF0.0
aF0.5925740505297042
aF0.8055159803745793
ababag3
(g4
g5
Ntp487
Rp488
(lp489
g3
(g9
g5
Ntp490
Rp491
(lp492
F4.920880570853216
aF-12.718982996305684
aF0.0
abag3
(g13
g5
Ntp493
Rp494
(lp495
F0.0
aF0.0
aF0.5925740505297042
aF0.8055159803745793
ababag3
(g4
g5
Ntp496
Rp497
(lp498
g3
(g9
g5
Ntp499
Rp500
(lp501
F4.920880570853216
aF-12.718982996305684
aF0.0
abag3
(g13
g5
Ntp502
Rp503
(lp504
F0.0
aF0.0
aF0.5925740505297042
aF0.8055159803745793
ababag3
(g4
g5
Ntp505
Rp506
(lp507
g3
(g9
g5
Ntp508
Rp509
(lp510
F4.920880570853216
aF-12.718982996305684
aF0.0
abag3
(g13
g5
Ntp511
Rp512
(lp513
F0.0
aF0.0
aF0.5925740505297042
aF0.8055159803745793
ababag3
(g4
g5
Ntp514
Rp515
(lp516
g3
(g9
g5
Ntp517
Rp518
(lp519
F4.920880570853216
aF-12.718982996305684
aF0.0
abag3
(g13
g5
Ntp520
Rp521
(lp522
F0.0
aF0.0
aF0.5925740505297042
aF0.8055159803745793
ababag3
(g4
g5
Ntp523
Rp524
(lp525
g3
(g9
g5
Ntp526
Rp527
(lp528
F4.920880570853216
aF-12.718982996305684
aF0.0
abag3
(g13
g5
Ntp529
Rp530
(lp531
F0.0
aF0.0
aF0.5925740505297042
aF0.8055159803745793
ababag3
(g4
g5
Ntp532
Rp533
(lp534
g3
(g9
g5
Ntp535
Rp536
(lp537
F4.920880570853216
aF-12.718982996305684
aF0.0
abag3
(g13
g5
Ntp538
Rp539
(lp540
F0.0
aF0.0
aF0.5925740505297042
aF0.8055159803745793
ababag3
(g4
g5
Ntp541
Rp542
(lp543
g3
(g9
g5
Ntp544
Rp545
(lp546
F4.920880570853216
aF-12.718982996305684
aF0.0
abag3
(g13
g5
Ntp547
Rp548
(lp549
F0.0
aF0.0
aF0.5925740505297042
aF0.8055159803745793
ababag3
(g4
g5
Ntp550
Rp551
(lp552
g3
(g9
g5
Ntp553
Rp554
(lp555
F4.920880570853216
aF-12.718982996305684
aF0.0
abag3
(g13
g5
Ntp556
Rp557
(lp558
F0.0
aF0.0
aF0.5925740505297042
aF0.8055159803745793
ababag3
(g4
g5
Ntp559
Rp560
(lp561
g3
(g9
g5
Ntp562
Rp563
(lp564
F4.920880570853216
aF-12.718982996305684
aF0.0
abag3
(g13
g5
Ntp565
Rp566
(lp567
F0.0
aF0.0
aF0.5925740505297042
aF0.8055159803745793
ababag3
(g4
g5
Ntp568
Rp569
(lp570
g3
(g9
g5
Ntp571
Rp572
(lp573
F4.920880570853216
aF-12.718982996305684
aF0.0
abag3
(g13
g5
Ntp574
Rp575
(lp576
F0.0
aF0.0
aF0.5925740505297042
aF0.8055159803745793
ababag3
(g4
g5
Ntp577
Rp578
(lp579
g3
(g9
g5
Ntp580
Rp581
(lp582
F4.920880570853216
aF-12.718982996305684
aF0.0
abag3
(g13
g5
Ntp583
Rp584
(lp585
F0.0
aF0.0
aF0.5925740505297042
aF0.8055159803745793
ababag3
(g4
g5
Ntp586
Rp587
(lp588
g3
(g9
g5
Ntp589
Rp590
(lp591
F4.920880570853216
aF-12.718982996305684
aF0.0
abag3
(g13
g5
Ntp592
Rp593
(lp594
F0.0
aF0.0
aF0.5925740505297042
aF0.8055159803745793
ababag3
(g4
g5
Ntp595
Rp596
(lp597
g3
(g9
g5
Ntp598
Rp599
(lp600
F4.920880570853216
aF-12.718982996305684
aF0.0
abag3
(g13
g5
Ntp601
Rp602
(lp603
F0.0
aF0.0
aF0.5925740505297042
aF0.8055159803745793
ababag3
(g4
g5
Ntp604
Rp605
(lp606
g3
(g9
g5
Ntp607
Rp608
(lp609
F4.920880570853216
aF-12.718982996305684
aF0.0
abag3
(g13
g5
Ntp610
Rp611
(lp612
F0.0
aF0.0
aF0.5925740505297042
aF0.8055159803745793
ababag3
(g4
g5
Ntp613
Rp614
(lp615
g3
(g9
g5
Ntp616
Rp617
(lp618
F4.920880570853216
aF-12.718982996305684
aF0.0
abag3
(g13
g5
Ntp619
Rp620
(lp621
F0.0
aF0.0
aF0.5925740505297042
aF0.8055159803745793
ababag3
(g4
g5
Ntp622
Rp623
(lp624
g3
(g9
g5
Ntp625
Rp626
(lp627
F4.920880570853216
aF-12.718982996305684
aF0.0
abag3
(g13
g5
Ntp628
Rp629
(lp630
F0.0
aF0.0
aF0.5925740505297042
aF0.8055159803745793
ababag3
(g4
g5
Ntp631
Rp632
(lp633
g3
(g9
g5
Ntp634
Rp635
(lp636
F4.920880570853216
aF-12.718982996305684
aF0.0
abag3
(g13
g5
Ntp637
Rp638
(lp639
F0.0
aF0.0
aF0.5925740505297042
aF0.8055159803745793
ababag3
(g4
g5
Ntp640
Rp641
(lp642
g3
(g9
g5
Ntp643
Rp644
(lp645
F4.920880570853216
aF-12.718982996305684
aF0.0
abag3
(g13
g5
Ntp646
Rp647
(lp648
F0.0
aF0.0
aF0.5925740505297042
aF0.8055159803745793
ababag3
(g4
g5
Ntp649
Rp650
(lp651
g3
(g9
g5
Ntp652
Rp653
(lp654
F4.920880570853216
aF-12.718982996305684
aF0.0
abag3
(g13
g5
Ntp655
Rp656
(lp657
F0.0
aF0.0
aF0.5925740505297042
aF0.8055159803745793
ababag3
(g4
g5
Ntp658
Rp659
(lp660
g3
(g9
g5
Ntp661
Rp662
(lp663
F4.920880570853216
aF-12.718982996305684
aF0.0
abag3
(g13
g5
Ntp664
Rp665
(lp666
F0.0
aF0.0
aF0.5925740505297042
aF0.8055159803745793
ababaaa(lp667
I3
aF32.881000000000085
a(lp668
g3
(g4
g5
Ntp669
Rp670
(lp671
g3
(g9
g5
Ntp672
Rp673
(lp674
F4.432679787783904
aF-14.848901648091527
aF0.0
abag3
(g13
g5
Ntp675
Rp676
(lp677
F0.0
aF0.0
aF-0.654582993702193
aF0.7559901483193249
ababag3
(g4
g5
Ntp678
Rp679
(lp680
g3
(g9
g5
Ntp681
Rp682
(lp683
F4.427873821454969
aF-14.842149275291597
aF0.0
abag3
(g13
g5
Ntp684
Rp685
(lp686
F0.0
aF0.0
aF-0.9065503364604272
aF0.4220977226466478
ababag3
(g4
g5
Ntp687
Rp688
(lp689
g3
(g9
g5
Ntp690
Rp691
(lp692
F4.408394574685226
aF-14.820446600003116
aF0.0
abag3
(g13
g5
Ntp693
Rp694
(lp695
F0.0
aF0.0
aF0.9918452016884952
aF0.12744840480566383
ababag3
(g4
g5
Ntp696
Rp697
(lp698
g3
(g9
g5
Ntp699
Rp700
(lp701
F4.242264784229676
aF-14.371575412583539
aF0.0
abag3
(g13
g5
Ntp702
Rp703
(lp704
F0.0
aF0.0
aF0.7155910913489902
aF0.6985194270612386
ababag3
(g4
g5
Ntp705
Rp706
(lp707
g3
(g9
g5
Ntp708
Rp709
(lp710
F4.342096856144685
aF-13.345374982673002
aF0.0
abag3
(g13
g5
Ntp711
Rp712
(lp713
F0.0
aF0.0
aF0.6622623717255961
aF0.7492720140218694
ababag3
(g4
g5
Ntp714
Rp715
(lp716
g3
(g9
g5
Ntp717
Rp718
(lp719
F4.407537386948252
aF-12.57361070388769
aF0.0
abag3
(g13
g5
Ntp720
Rp721
(lp722
F0.0
aF0.0
aF0.6811789923958588
aF0.7321169171099399
ababag3
(g4
g5
Ntp723
Rp724
(lp725
g3
(g9
g5
Ntp726
Rp727
(lp728
F4.469542058338929
aF-11.563649109997563
aF0.0
abag3
(g13
g5
Ntp729
Rp730
(lp731
F0.0
aF0.0
aF0.638032424224845
aF0.7700094971088133
ababag3
(g4
g5
Ntp732
Rp733
(lp734
g3
(g9
g5
Ntp735
Rp736
(lp737
F4.950752085510006
aF-10.861623303631998
aF0.0
abag3
(g13
g5
Ntp738
Rp739
(lp740
F0.0
aF0.0
aF0.2820111581970205
aF0.959411124936737
ababag3
(g4
g5
Ntp741
Rp742
(lp743
g3
(g9
g5
Ntp744
Rp745
(lp746
F5.8991734687353725
aF-10.636000517816141
aF0.0
abag3
(g13
g5
Ntp747
Rp748
(lp749
F0.0
aF0.0
aF-0.030481963162265577
aF0.9995353169957399
ababag3
(g4
g5
Ntp750
Rp751
(lp752
g3
(g9
g5
Ntp753
Rp754
(lp755
F6.931999298464504
aF-10.685044680757247
aF0.0
abag3
(g13
g5
Ntp756
Rp757
(lp758
F0.0
aF0.0
aF0.033060624433298276
aF0.9994533481419132
ababag3
(g4
g5
Ntp759
Rp760
(lp761
g3
(g9
g5
Ntp762
Rp763
(lp764
F7.674874917630023
aF-10.534369147964444
aF0.0
abag3
(g13
g5
Ntp765
Rp766
(lp767
F0.0
aF0.0
aF0.15622488502721765
aF0.9877215120155238
ababag3
(g4
g5
Ntp768
Rp769
(lp770
g3
(g9
g5
Ntp771
Rp772
(lp773
F8.347539032496188
aF-10.04890495013528
aF0.0
abag3
(g13
g5
Ntp774
Rp775
(lp776
F0.0
aF0.0
aF0.4518549505194736
aF0.8920914211509066
ababag3
(g4
g5
Ntp777
Rp778
(lp779
g3
(g9
g5
Ntp780
Rp781
(lp782
F8.670534917464323
aF-9.03227063765024
aF0.0
abag3
(g13
g5
Ntp783
Rp784
(lp785
F0.0
aF0.0
aF0.6953265927121557
aF0.7186939052665634
ababag3
(g4
g5
Ntp786
Rp787
(lp788
g3
(g9
g5
Ntp789
Rp790
(lp791
F8.615894673325018
aF-7.971382143279226
aF0.0
abag3
(g13
g5
Ntp792
Rp793
(lp794
F0.0
aF0.0
aF0.731434860622155
aF0.6819113173035396
ababag3
(g4
g5
Ntp795
Rp796
(lp797
g3
(g9
g5
Ntp798
Rp799
(lp800
F8.604894090209683
aF-6.93009857504225
aF0.0
abag3
(g13
g5
Ntp801
Rp802
(lp803
F0.0
aF0.0
aF0.696398889775161
aF0.7176549214768357
ababag3
(g4
g5
Ntp804
Rp805
(lp806
g3
(g9
g5
Ntp807
Rp808
(lp809
F8.644205469298932
aF-6.13937016379402
aF0.0
abag3
(g13
g5
Ntp810
Rp811
(lp812
F0.0
aF0.0
aF0.684966602150652
aF0.7285744669820584
ababag3
(g4
g5
Ntp813
Rp814
(lp815
g3
(g9
g5
Ntp816
Rp817
(lp818
F8.796112061097965
aF-5.114037999142048
aF0.0
abag3
(g13
g5
Ntp819
Rp820
(lp821
F0.0
aF0.0
aF0.5803094463209504
aF0.8143960624356382
ababag3
(g4
g5
Ntp822
Rp823
(lp824
g3
(g9
g5
Ntp825
Rp826
(lp827
F9.27420194415796
aF-4.386824102477504
aF0.0
abag3
(g13
g5
Ntp828
Rp829
(lp830
F0.0
aF0.0
aF0.3642919663002906
aF0.931284791720056
ababag3
(g4
g5
Ntp831
Rp832
(lp833
g3
(g9
g5
Ntp834
Rp835
(lp836
F10.129250909394852
aF-3.816459538250099
aF0.0
abag3
(g13
g5
Ntp837
Rp838
(lp839
F0.0
aF0.0
aF0.28615839261353254
aF0.9581823283367521
ababag3
(g4
g5
Ntp840
Rp841
(lp842
g3
(g9
g5
Ntp843
Rp844
(lp845
F10.643252373854134
aF-3.0884899434705577
aF0.0
abag3
(g13
g5
Ntp846
Rp847
(lp848
F0.0
aF0.0
aF0.6063978781237248
aF0.7951613757012121
ababag3
(g4
g5
Ntp849
Rp850
(lp851
g3
(g9
g5
Ntp852
Rp853
(lp854
F10.61324189033881
aF-2.1136394962704528
aF0.0
abag3
(g13
g5
Ntp855
Rp856
(lp857
F0.0
aF0.0
aF0.8038834157882281
aF0.5947868978219433
ababag3
(g4
g5
Ntp858
Rp859
(lp860
g3
(g9
g5
Ntp861
Rp862
(lp863
F10.283961800364034
aF-1.4208922187444524
aF0.0
abag3
(g13
g5
Ntp864
Rp865
(lp866
F0.0
aF0.0
aF0.8714720820297085
aF0.49044511440405336
ababag3
(g4
g5
Ntp867
Rp868
(lp869
g3
(g9
g5
Ntp870
Rp871
(lp872
F9.50708411913974
aF-0.5967882465173368
aF0.0
abag3
(g13
g5
Ntp873
Rp874
(lp875
F0.0
aF0.0
aF0.9677542934379002
aF0.251896064940504
ababag3
(g4
g5
Ntp876
Rp877
(lp878
g3
(g9
g5
Ntp879
Rp880
(lp881
F8.777388417998782
aF-0.36030611202710566
aF0.0
abag3
(g13
g5
Ntp882
Rp883
(lp884
F0.0
aF0.0
aF0.9975255158761064
aF0.07030537089090558
ababag3
(g4
g5
Ntp885
Rp886
(lp887
g3
(g9
g5
Ntp888
Rp889
(lp890
F7.703167622716531
aF-0.29590603062147824
aF0.0
abag3
(g13
g5
Ntp891
Rp892
(lp893
F0.0
aF0.0
aF-0.9999800980226736
aF0.006309006147085923
ababag3
(g4
g5
Ntp894
Rp895
(lp896
g3
(g9
g5
Ntp897
Rp898
(lp899
F7.238500092543062
aF-0.3022519713622898
aF0.0
abag3
(g13
g5
Ntp900
Rp901
(lp902
F0.0
aF0.0
aF-0.9997640529374747
aF0.021721842786333424
ababag3
(g4
g5
Ntp903
Rp904
(lp905
g3
(g9
g5
Ntp906
Rp907
(lp908
F7.0373631396719665
aF-0.3134881132958115
aF0.0
abag3
(g13
g5
Ntp909
Rp910
(lp911
F0.0
aF0.0
aF-0.997976303860954
aF0.06358692422211261
ababag3
(g4
g5
Ntp912
Rp913
(lp914
g3
(g9
g5
Ntp915
Rp916
(lp917
F6.8358303918824355
aF-0.3431155207011379
aF0.0
abag3
(g13
g5
Ntp918
Rp919
(lp920
F0.0
aF0.0
aF-0.9970334229631009
aF0.07696982197252529
ababag3
(g4
g5
Ntp921
Rp922
(lp923
g3
(g9
g5
Ntp924
Rp925
(lp926
F6.8358303918824355
aF-0.3431155207011379
aF0.0
abag3
(g13
g5
Ntp927
Rp928
(lp929
F0.0
aF0.0
aF-0.9970334229631009
aF0.07696982197252529
ababag3
(g4
g5
Ntp930
Rp931
(lp932
g3
(g9
g5
Ntp933
Rp934
(lp935
F6.8358303918824355
aF-0.3431155207011379
aF0.0
abag3
(g13
g5
Ntp936
Rp937
(lp938
F0.0
aF0.0
aF-0.9970334229631009
aF0.07696982197252529
ababag3
(g4
g5
Ntp939
Rp940
(lp941
g3
(g9
g5
Ntp942
Rp943
(lp944
F6.728888307243841
aF-0.3694743202500696
aF0.0
abag3
(g13
g5
Ntp945
Rp946
(lp947
F0.0
aF0.0
aF-0.9442917447821746
aF0.32910955734563
ababag3
(g4
g5
Ntp948
Rp949
(lp950
g3
(g9
g5
Ntp951
Rp952
(lp953
F6.728888307243841
aF-0.3694743202500696
aF0.0
abag3
(g13
g5
Ntp954
Rp955
(lp956
F0.0
aF0.0
aF-0.9442917447821746
aF0.32910955734563
ababag3
(g4
g5
Ntp957
Rp958
(lp959
g3
(g9
g5
Ntp960
Rp961
(lp962
F6.710844849699774
aF-0.39663158321974806
aF0.0
abag3
(g13
g5
Ntp963
Rp964
(lp965
F0.0
aF0.0
aF-0.8306800072269463
aF0.5567501464691683
ababaaa.