(lp0
(lp1
I3
aF64.68
a(lp2
ccopy_reg
_reconstructor
p3
(cgeometry_msgs.msg._Pose
Pose
p4
c__builtin__
object
p5
Ntp6
Rp7
(lp8
g3
(cgeometry_msgs.msg._Point
Point
p9
g5
Ntp10
Rp11
(lp12
F-7.811297806907697
aF-14.06420811708554
aF0.0
abag3
(cgeometry_msgs.msg._Quaternion
Quaternion
p13
g5
Ntp14
Rp15
(lp16
F0.0
aF0.0
aF-0.7954314251936624
aF0.6060436022386335
ababag3
(g4
g5
Ntp17
Rp18
(lp19
g3
(g9
g5
Ntp20
Rp21
(lp22
F-7.8118901634263205
aF-14.068403172241775
aF0.0
abag3
(g13
g5
Ntp23
Rp24
(lp25
F0.0
aF0.0
aF-0.9487475263663913
aF0.31603501580308124
ababag3
(g4
g5
Ntp26
Rp27
(lp28
g3
(g9
g5
Ntp29
Rp30
(lp31
F-7.88930440352167
aF-14.103322519198612
aF0.0
abag3
(g13
g5
Ntp32
Rp33
(lp34
F0.0
aF0.0
aF0.9821184684518977
aF0.188263947493138
ababag3
(g4
g5
Ntp35
Rp36
(lp37
g3
(g9
g5
Ntp38
Rp39
(lp40
F-8.166595380725445
aF-13.549722014795128
aF0.0
abag3
(g13
g5
Ntp41
Rp42
(lp43
F0.0
aF0.0
aF0.7470910854261867
aF0.6647216786571069
ababag3
(g4
g5
Ntp44
Rp45
(lp46
g3
(g9
g5
Ntp47
Rp48
(lp49
F-8.119924047018996
aF-12.958081080518362
aF0.0
abag3
(g13
g5
Ntp50
Rp51
(lp52
F0.0
aF0.0
aF0.6361613821940072
aF0.7715560224669433
ababag3
(g4
g5
Ntp53
Rp54
(lp55
g3
(g9
g5
Ntp56
Rp57
(lp58
F-8.119924047018996
aF-12.958081080518362
aF0.0
abag3
(g13
g5
Ntp59
Rp60
(lp61
F0.0
aF0.0
aF0.6361613821940072
aF0.7715560224669433
ababag3
(g4
g5
Ntp62
Rp63
(lp64
g3
(g9
g5
Ntp65
Rp66
(lp67
F-8.065371753147097
aF-12.683676966144288
aF0.0
abag3
(g13
g5
Ntp68
Rp69
(lp70
F0.0
aF0.0
aF0.5572744161398914
aF0.8303283839035873
ababag3
(g4
g5
Ntp71
Rp72
(lp73
g3
(g9
g5
Ntp74
Rp75
(lp76
F-8.065371753147097
aF-12.683676966144288
aF0.0
abag3
(g13
g5
Ntp77
Rp78
(lp79
F0.0
aF0.0
aF0.5572744161398914
aF0.8303283839035873
ababag3
(g4
g5
Ntp80
Rp81
(lp82
g3
(g9
g5
Ntp83
Rp84
(lp85
F-8.05105118742075
aF-12.664477340973413
aF0.0
abag3
(g13
g5
Ntp86
Rp87
(lp88
F0.0
aF0.0
aF0.3422962517228636
aF0.9395920796050157
ababag3
(g4
g5
Ntp89
Rp90
(lp91
g3
(g9
g5
Ntp92
Rp93
(lp94
F-7.9430447836838
aF-12.61094912591252
aF0.0
abag3
(g13
g5
Ntp95
Rp96
(lp97
F0.0
aF0.0
aF0.26695239140400406
aF0.96370971808096
ababag3
(g4
g5
Ntp98
Rp99
(lp100
g3
(g9
g5
Ntp101
Rp102
(lp103
F-7.508948029229543
aF-11.956148326558306
aF0.0
abag3
(g13
g5
Ntp104
Rp105
(lp106
F0.0
aF0.0
aF0.5792199694725125
aF0.8151712868865424
ababag3
(g4
g5
Ntp107
Rp108
(lp109
g3
(g9
g5
Ntp110
Rp111
(lp112
F-7.311599434318141
aF-11.297764833843338
aF0.0
abag3
(g13
g5
Ntp113
Rp114
(lp115
F0.0
aF0.0
aF0.6089893251128728
aF0.7931784174437474
ababag3
(g4
g5
Ntp116
Rp117
(lp118
g3
(g9
g5
Ntp119
Rp120
(lp121
F-6.946419602900506
aF-10.644363255445105
aF0.0
abag3
(g13
g5
Ntp122
Rp123
(lp124
F0.0
aF0.0
aF0.33716049673196324
aF0.9414471835655231
ababag3
(g4
g5
Ntp125
Rp126
(lp127
g3
(g9
g5
Ntp128
Rp129
(lp130
F-6.018990362552425
aF-10.323416639298664
aF0.0
abag3
(g13
g5
Ntp131
Rp132
(lp133
F0.0
aF0.0
aF0.008292724464646545
aF0.9999656147693047
ababag3
(g4
g5
Ntp134
Rp135
(lp136
g3
(g9
g5
Ntp137
Rp138
(lp139
F-5.302396234990295
aF-10.417210840257464
aF0.0
abag3
(g13
g5
Ntp140
Rp141
(lp142
F0.0
aF0.0
aF-0.11424426983736855
aF0.993452689769033
ababag3
(g4
g5
Ntp143
Rp144
(lp145
g3
(g9
g5
Ntp146
Rp147
(lp148
F-4.137372952903952
aF-10.618021245888341
aF0.0
abag3
(g13
g5
Ntp149
Rp150
(lp151
F0.0
aF0.0
aF-0.05490880526186372
aF0.998491373575513
ababag3
(g4
g5
Ntp152
Rp153
(lp154
g3
(g9
g5
Ntp155
Rp156
(lp157
F-3.0682400897143807
aF-10.66139899260264
aF0.0
abag3
(g13
g5
Ntp158
Rp159
(lp160
F0.0
aF0.0
aF0.005215540108711076
aF0.9999863989781933
ababag3
(g4
g5
Ntp161
Rp162
(lp163
g3
(g9
g5
Ntp164
Rp165
(lp166
F-2.3567183755332466
aF-10.545412221813386
aF0.0
abag3
(g13
g5
Ntp167
Rp168
(lp169
F0.0
aF0.0
aF0.19937688500810843
aF0.9799228835599583
ababag3
(g4
g5
Ntp170
Rp171
(lp172
g3
(g9
g5
Ntp173
Rp174
(lp175
F-1.656277599215017
aF-9.9187143333774
aF0.0
abag3
(g13
g5
Ntp176
Rp177
(lp178
F0.0
aF0.0
aF0.5021777049355416
aF0.8647644492378674
ababag3
(g4
g5
Ntp179
Rp180
(lp181
g3
(g9
g5
Ntp182
Rp183
(lp184
F-1.4085923608562667
aF-9.005734091104777
aF0.0
abag3
(g13
g5
Ntp185
Rp186
(lp187
F0.0
aF0.0
aF0.6948118968324586
aF0.7191915099749724
ababag3
(g4
g5
Ntp188
Rp189
(lp190
g3
(g9
g5
Ntp191
Rp192
(lp193
F-1.476513068731086
aF-7.950077123059454
aF0.0
abag3
(g13
g5
Ntp194
Rp195
(lp196
F0.0
aF0.0
aF0.7453610031322414
aF0.6666610645670697
ababag3
(g4
g5
Ntp197
Rp198
(lp199
g3
(g9
g5
Ntp200
Rp201
(lp202
F-1.5309786851853868
aF-6.894924190042168
aF0.0
abag3
(g13
g5
Ntp203
Rp204
(lp205
F0.0
aF0.0
aF0.7116035613583716
aF0.7025812205447014
ababag3
(g4
g5
Ntp206
Rp207
(lp208
g3
(g9
g5
Ntp209
Rp210
(lp211
F-1.5041252699479362
aF-6.116041470767687
aF0.0
abag3
(g13
g5
Ntp212
Rp213
(lp214
F0.0
aF0.0
aF0.6794678342596187
aF0.7337052965643245
ababag3
(g4
g5
Ntp215
Rp216
(lp217
g3
(g9
g5
Ntp218
Rp219
(lp220
F-1.3943971057708537
aF-5.27772247415726
aF0.0
abag3
(g13
g5
Ntp221
Rp222
(lp223
F0.0
aF0.0
aF0.6289862831766128
aF0.777416397804722
ababag3
(g4
g5
Ntp224
Rp225
(lp226
g3
(g9
g5
Ntp227
Rp228
(lp229
F-0.8546367306963639
aF-4.309460770262602
aF0.0
abag3
(g13
g5
Ntp230
Rp231
(lp232
F0.0
aF0.0
aF0.35772674884096506
aF0.9338263078130071
ababag3
(g4
g5
Ntp233
Rp234
(lp235
g3
(g9
g5
Ntp236
Rp237
(lp238
F0.01018019526345308
aF-3.7605637281926505
aF0.0
abag3
(g13
g5
Ntp239
Rp240
(lp241
F0.0
aF0.0
aF0.23996012847781847
aF0.9707827443567942
ababag3
(g4
g5
Ntp242
Rp243
(lp244
g3
(g9
g5
Ntp245
Rp246
(lp247
F0.7229814499273672
aF-3.074079206152287
aF0.0
abag3
(g13
g5
Ntp248
Rp249
(lp250
F0.0
aF0.0
aF0.4971257375630013
aF0.8676785124989796
ababag3
(g4
g5
Ntp251
Rp252
(lp253
g3
(g9
g5
Ntp254
Rp255
(lp256
F0.9913360729464802
aF-2.2388348554328106
aF0.0
abag3
(g13
g5
Ntp257
Rp258
(lp259
F0.0
aF0.0
aF0.6597196606722966
aF0.7515117892105418
ababag3
(g4
g5
Ntp260
Rp261
(lp262
g3
(g9
g5
Ntp263
Rp264
(lp265
F1.047005917811216
aF-1.590578247133121
aF0.0
abag3
(g13
g5
Ntp266
Rp267
(lp268
F0.0
aF0.0
aF0.6833173507364433
aF0.7301214954940914
ababag3
(g4
g5
Ntp269
Rp270
(lp271
g3
(g9
g5
Ntp272
Rp273
(lp274
F1.047005917811216
aF-1.590578247133121
aF0.0
abag3
(g13
g5
Ntp275
Rp276
(lp277
F0.0
aF0.0
aF0.6833173507364433
aF0.7301214954940914
ababag3
(g4
g5
Ntp278
Rp279
(lp280
g3
(g9
g5
Ntp281
Rp282
(lp283
F1.047005917811216
aF-1.590578247133121
aF0.0
abag3
(g13
g5
Ntp284
Rp285
(lp286
F0.0
aF0.0
aF0.6833173507364433
aF0.7301214954940914
ababag3
(g4
g5
Ntp287
Rp288
(lp289
g3
(g9
g5
Ntp290
Rp291
(lp292
F1.047005917811216
aF-1.590578247133121
aF0.0
abag3
(g13
g5
Ntp293
Rp294
(lp295
F0.0
aF0.0
aF0.6833173507364433
aF0.7301214954940914
ababag3
(g4
g5
Ntp296
Rp297
(lp298
g3
(g9
g5
Ntp299
Rp300
(lp301
F1.0536732456514901
aF-1.5237731192169655
aF0.0
abag3
(g13
g5
Ntp302
Rp303
(lp304
F0.0
aF0.0
aF0.7670087658127199
aF0.641636620811537
ababag3
(g4
g5
Ntp305
Rp306
(lp307
g3
(g9
g5
Ntp308
Rp309
(lp310
F1.0536732456514901
aF-1.5237731192169655
aF0.0
abag3
(g13
g5
Ntp311
Rp312
(lp313
F0.0
aF0.0
aF0.7670087658127199
aF0.641636620811537
ababag3
(g4
g5
Ntp314
Rp315
(lp316
g3
(g9
g5
Ntp317
Rp318
(lp319
F1.0536732456514901
aF-1.5237731192169655
aF0.0
abag3
(g13
g5
Ntp320
Rp321
(lp322
F0.0
aF0.0
aF0.7670087658127199
aF0.641636620811537
ababag3
(g4
g5
Ntp323
Rp324
(lp325
g3
(g9
g5
Ntp326
Rp327
(lp328
F1.122765976480681
aF-1.7347960057722738
aF0.0
abag3
(g13
g5
Ntp329
Rp330
(lp331
F0.0
aF0.0
aF0.8105824550426417
aF0.5856245243985635
ababag3
(g4
g5
Ntp332
Rp333
(lp334
g3
(g9
g5
Ntp335
Rp336
(lp337
F1.122765976480681
aF-1.7347960057722738
aF0.0
abag3
(g13
g5
Ntp338
Rp339
(lp340
F0.0
aF0.0
aF0.8105824550426417
aF0.5856245243985635
ababag3
(g4
g5
Ntp341
Rp342
(lp343
g3
(g9
g5
Ntp344
Rp345
(lp346
F1.122765976480681
aF-1.7347960057722738
aF0.0
abag3
(g13
g5
Ntp347
Rp348
(lp349
F0.0
aF0.0
aF0.8105824550426417
aF0.5856245243985635
ababag3
(g4
g5
Ntp350
Rp351
(lp352
g3
(g9
g5
Ntp353
Rp354
(lp355
F1.122765976480681
aF-1.7347960057722738
aF0.0
abag3
(g13
g5
Ntp356
Rp357
(lp358
F0.0
aF0.0
aF0.8105824550426417
aF0.5856245243985635
ababag3
(g4
g5
Ntp359
Rp360
(lp361
g3
(g9
g5
Ntp362
Rp363
(lp364
F1.1246441044514373
aF-1.8966282245596369
aF0.0
abag3
(g13
g5
Ntp365
Rp366
(lp367
F0.0
aF0.0
aF0.688697494919108
aF0.7250487986971258
ababag3
(g4
g5
Ntp368
Rp369
(lp370
g3
(g9
g5
Ntp371
Rp372
(lp373
F1.1246441044514373
aF-1.8966282245596369
aF0.0
abag3
(g13
g5
Ntp374
Rp375
(lp376
F0.0
aF0.0
aF0.688697494919108
aF0.7250487986971258
ababag3
(g4
g5
Ntp377
Rp378
(lp379
g3
(g9
g5
Ntp380
Rp381
(lp382
F1.1246441044514373
aF-1.8966282245596369
aF0.0
abag3
(g13
g5
Ntp383
Rp384
(lp385
F0.0
aF0.0
aF0.688697494919108
aF0.7250487986971258
ababag3
(g4
g5
Ntp386
Rp387
(lp388
g3
(g9
g5
Ntp389
Rp390
(lp391
F1.1158222786843328
aF-2.1526755767349783
aF0.0
abag3
(g13
g5
Ntp392
Rp393
(lp394
F0.0
aF0.0
aF0.688190736054738
aF0.7255298138660037
ababag3
(g4
g5
Ntp395
Rp396
(lp397
g3
(g9
g5
Ntp398
Rp399
(lp400
F1.1158222786843328
aF-2.1526755767349783
aF0.0
abag3
(g13
g5
Ntp401
Rp402
(lp403
F0.0
aF0.0
aF0.688190736054738
aF0.7255298138660037
ababag3
(g4
g5
Ntp404
Rp405
(lp406
g3
(g9
g5
Ntp407
Rp408
(lp409
F1.1158222786843328
aF-2.1526755767349783
aF0.0
abag3
(g13
g5
Ntp410
Rp411
(lp412
F0.0
aF0.0
aF0.688190736054738
aF0.7255298138660037
ababag3
(g4
g5
Ntp413
Rp414
(lp415
g3
(g9
g5
Ntp416
Rp417
(lp418
F1.1023072221188557
aF-2.427137575634788
aF0.0
abag3
(g13
g5
Ntp419
Rp420
(lp421
F0.0
aF0.0
aF0.6867823059905797
aF0.7268631674381787
ababag3
(g4
g5
Ntp422
Rp423
(lp424
g3
(g9
g5
Ntp425
Rp426
(lp427
F1.1023072221188557
aF-2.427137575634788
aF0.0
abag3
(g13
g5
Ntp428
Rp429
(lp430
F0.0
aF0.0
aF0.6867823059905797
aF0.7268631674381787
ababag3
(g4
g5
Ntp431
Rp432
(lp433
g3
(g9
g5
Ntp434
Rp435
(lp436
F1.1023072221188557
aF-2.427137575634788
aF0.0
abag3
(g13
g5
Ntp437
Rp438
(lp439
F0.0
aF0.0
aF0.6867823059905797
aF0.7268631674381787
ababag3
(g4
g5
Ntp440
Rp441
(lp442
g3
(g9
g5
Ntp443
Rp444
(lp445
F1.0780215917707376
aF-2.690127888832553
aF0.0
abag3
(g13
g5
Ntp446
Rp447
(lp448
F0.0
aF0.0
aF0.6813624648146202
aF0.7319461671063969
ababag3
(g4
g5
Ntp449
Rp450
(lp451
g3
(g9
g5
Ntp452
Rp453
(lp454
F1.0780215917707376
aF-2.690127888832553
aF0.0
abag3
(g13
g5
Ntp455
Rp456
(lp457
F0.0
aF0.0
aF0.6813624648146202
aF0.7319461671063969
ababag3
(g4
g5
Ntp458
Rp459
(lp460
g3
(g9
g5
Ntp461
Rp462
(lp463
F1.0780215917707376
aF-2.690127888832553
aF0.0
abag3
(g13
g5
Ntp464
Rp465
(lp466
F0.0
aF0.0
aF0.6813624648146202
aF0.7319461671063969
ababag3
(g4
g5
Ntp467
Rp468
(lp469
g3
(g9
g5
Ntp470
Rp471
(lp472
F1.0370861066917367
aF-2.6878970684825876
aF0.0
abag3
(g13
g5
Ntp473
Rp474
(lp475
F0.0
aF0.0
aF0.7511127747977859
aF0.6601739161278416
ababag3
(g4
g5
Ntp476
Rp477
(lp478
g3
(g9
g5
Ntp479
Rp480
(lp481
F0.8167916063662058
aF-1.71399625749898
aF0.0
abag3
(g13
g5
Ntp482
Rp483
(lp484
F0.0
aF0.0
aF0.797857709691078
aF0.6028458136924462
ababag3
(g4
g5
Ntp485
Rp486
(lp487
g3
(g9
g5
Ntp488
Rp489
(lp490
F0.7439232509243362
aF-0.9830856598822386
aF0.0
abag3
(g13
g5
Ntp491
Rp492
(lp493
F0.0
aF0.0
aF0.6687927914563541
aF0.7434488564091128
ababag3
(g4
g5
Ntp494
Rp495
(lp496
g3
(g9
g5
Ntp497
Rp498
(lp499
F1.0394320817695715
aF-0.09872372253080362
aF0.0
abag3
(g13
g5
Ntp500
Rp501
(lp502
F0.0
aF0.0
aF0.49269767066368636
aF0.8702005546554068
ababag3
(g4
g5
Ntp503
Rp504
(lp505
g3
(g9
g5
Ntp506
Rp507
(lp508
F1.7358803732754597
aF0.5098388034653083
aF0.0
abag3
(g13
g5
Ntp509
Rp510
(lp511
F0.0
aF0.0
aF0.19671642467880662
aF0.9804604266677913
ababag3
(g4
g5
Ntp512
Rp513
(lp514
g3
(g9
g5
Ntp515
Rp516
(lp517
F2.716625895505783
aF0.6399601707812524
aF0.0
abag3
(g13
g5
Ntp518
Rp519
(lp520
F0.0
aF0.0
aF-0.039790282420328366
aF0.9992080531225269
ababag3
(g4
g5
Ntp521
Rp522
(lp523
g3
(g9
g5
Ntp524
Rp525
(lp526
F3.4397954539257944
aF0.5695995357014809
aF0.0
abag3
(g13
g5
Ntp527
Rp528
(lp529
F0.0
aF0.0
aF-0.06015745777594103
aF0.998188900095536
ababag3
(g4
g5
Ntp530
Rp531
(lp532
g3
(g9
g5
Ntp533
Rp534
(lp535
F4.598672856431626
aF0.4074316086295821
aF0.0
abag3
(g13
g5
Ntp536
Rp537
(lp538
F0.0
aF0.0
aF-0.10280511276123486
aF0.9947015174363362
ababag3
(g4
g5
Ntp539
Rp540
(lp541
g3
(g9
g5
Ntp542
Rp543
(lp544
F5.576563862689448
aF0.16564425661107582
aF0.0
abag3
(g13
g5
Ntp545
Rp546
(lp547
F0.0
aF0.0
aF-0.1555241927237465
aF0.9878320836445974
ababag3
(g4
g5
Ntp548
Rp549
(lp550
g3
(g9
g5
Ntp551
Rp552
(lp553
F6.348523317078195
aF-0.11228544115786515
aF0.0
abag3
(g13
g5
Ntp554
Rp555
(lp556
F0.0
aF0.0
aF-0.19143762052266058
aF0.9815047821832666
ababag3
(g4
g5
Ntp557
Rp558
(lp559
g3
(g9
g5
Ntp560
Rp561
(lp562
F6.585984811994656
aF-0.21493913274656992
aF0.0
abag3
(g13
g5
Ntp563
Rp564
(lp565
F0.0
aF0.0
aF-0.22032939373309376
aF0.9754255267611195
ababag3
(g4
g5
Ntp566
Rp567
(lp568
g3
(g9
g5
Ntp569
Rp570
(lp571
F6.585984811994656
aF-0.21493913274656992
aF0.0
abag3
(g13
g5
Ntp572
Rp573
(lp574
F0.0
aF0.0
aF-0.22032939373309376
aF0.9754255267611195
ababag3
(g4
g5
Ntp575
Rp576
(lp577
g3
(g9
g5
Ntp578
Rp579
(lp580
F6.776281365278095
aF-0.30927138793621234
aF0.0
abag3
(g13
g5
Ntp581
Rp582
(lp583
F0.0
aF0.0
aF-0.35275060374061756
aF0.9357173780371025
ababag3
(g4
g5
Ntp584
Rp585
(lp586
g3
(g9
g5
Ntp587
Rp588
(lp589
F6.776281365278095
aF-0.30927138793621234
aF0.0
abag3
(g13
g5
Ntp590
Rp591
(lp592
F0.0
aF0.0
aF-0.35275060374061756
aF0.9357173780371025
ababaaa(lp593
I3
aF46.88000000000011
a(lp594
g3
(g4
g5
Ntp595
Rp596
(lp597
g3
(g9
g5
Ntp598
Rp599
(lp600
F-7.807269609342964
aF-14.068033305610893
aF0.0
abag3
(g13
g5
Ntp601
Rp602
(lp603
F0.0
aF0.0
aF-0.7948920506968904
aF0.6067508778229268
ababag3
(g4
g5
Ntp604
Rp605
(lp606
g3
(g9
g5
Ntp607
Rp608
(lp609
F-7.8124497710284695
aF-14.094920775531294
aF0.0
abag3
(g13
g5
Ntp610
Rp611
(lp612
F0.0
aF0.0
aF-0.9570485602918644
aF0.28992766898533456
ababag3
(g4
g5
Ntp613
Rp614
(lp615
g3
(g9
g5
Ntp616
Rp617
(lp618
F-7.8477026917382915
aF-14.089758724035025
aF0.0
abag3
(g13
g5
Ntp619
Rp620
(lp621
F0.0
aF0.0
aF0.9647197442241331
aF0.2632789682145597
ababag3
(g4
g5
Ntp622
Rp623
(lp624
g3
(g9
g5
Ntp625
Rp626
(lp627
F-7.987658912338104
aF-13.432682992046269
aF0.0
abag3
(g13
g5
Ntp628
Rp629
(lp630
F0.0
aF0.0
aF0.6777548089653523
aF0.7352879836664943
ababag3
(g4
g5
Ntp631
Rp632
(lp633
g3
(g9
g5
Ntp634
Rp635
(lp636
F-7.8202067793687675
aF-12.425039396158358
aF0.0
abag3
(g13
g5
Ntp637
Rp638
(lp639
F0.0
aF0.0
aF0.6242426808848575
aF0.7812304879878191
ababag3
(g4
g5
Ntp640
Rp641
(lp642
g3
(g9
g5
Ntp643
Rp644
(lp645
F-7.584044947110519
aF-11.709831908108306
aF0.0
abag3
(g13
g5
Ntp646
Rp647
(lp648
F0.0
aF0.0
aF0.53763404328614
aF0.8431782940160384
ababag3
(g4
g5
Ntp649
Rp650
(lp651
g3
(g9
g5
Ntp652
Rp653
(lp654
F-7.222942342268674
aF-11.037095493135114
aF0.0
abag3
(g13
g5
Ntp655
Rp656
(lp657
F0.0
aF0.0
aF0.4657839686685772
aF0.8848984656622193
ababag3
(g4
g5
Ntp658
Rp659
(lp660
g3
(g9
g5
Ntp661
Rp662
(lp663
F-6.456288814531116
aF-10.523714110749147
aF0.0
abag3
(g13
g5
Ntp664
Rp665
(lp666
F0.0
aF0.0
aF0.11072210970914376
aF0.9938514045980699
ababag3
(g4
g5
Ntp667
Rp668
(lp669
g3
(g9
g5
Ntp670
Rp671
(lp672
F-5.450380364791335
aF-10.499417107428085
aF0.0
abag3
(g13
g5
Ntp673
Rp674
(lp675
F0.0
aF0.0
aF-0.05129220297274304
aF0.9986836886192759
ababag3
(g4
g5
Ntp676
Rp677
(lp678
g3
(g9
g5
Ntp679
Rp680
(lp681
F-4.678718313574272
aF-10.582608251392898
aF0.0
abag3
(g13
g5
Ntp682
Rp683
(lp684
F0.0
aF0.0
aF-0.06108057674901729
aF0.9981328384258317
ababag3
(g4
g5
Ntp685
Rp686
(lp687
g3
(g9
g5
Ntp688
Rp689
(lp690
F-3.646875391263801
aF-10.656617505759868
aF0.0
abag3
(g13
g5
Ntp691
Rp692
(lp693
F0.0
aF0.0
aF-0.023510561007530368
aF0.9997235885589132
ababag3
(g4
g5
Ntp694
Rp695
(lp696
g3
(g9
g5
Ntp697
Rp698
(lp699
F-2.6466182248965193
aF-10.665580565369073
aF0.0
abag3
(g13
g5
Ntp700
Rp701
(lp702
F0.0
aF0.0
aF0.049142290003259946
aF0.9987917877782313
ababag3
(g4
g5
Ntp703
Rp704
(lp705
g3
(g9
g5
Ntp706
Rp707
(lp708
F-1.8044029147890777
aF-10.313692345488633
aF0.0
abag3
(g13
g5
Ntp709
Rp710
(lp711
F0.0
aF0.0
aF0.36337765077201534
aF0.9316419284893801
ababag3
(g4
g5
Ntp712
Rp713
(lp714
g3
(g9
g5
Ntp715
Rp716
(lp717
F-1.4033782875380223
aF-9.741355236482132
aF0.0
abag3
(g13
g5
Ntp718
Rp719
(lp720
F0.0
aF0.0
aF0.5549350762885071
aF0.8318936597334233
ababag3
(g4
g5
Ntp721
Rp722
(lp723
g3
(g9
g5
Ntp724
Rp725
(lp726
F-1.2366205260879959
aF-8.779231609698762
aF0.0
abag3
(g13
g5
Ntp727
Rp728
(lp729
F0.0
aF0.0
aF0.71531954935932
aF0.6987974973512566
ababag3
(g4
g5
Ntp730
Rp731
(lp732
g3
(g9
g5
Ntp733
Rp734
(lp735
F-1.3867485831871929
aF-7.778840817165742
aF0.0
abag3
(g13
g5
Ntp736
Rp737
(lp738
F0.0
aF0.0
aF0.7844413499681753
aF0.6202030058457527
ababag3
(g4
g5
Ntp739
Rp740
(lp741
g3
(g9
g5
Ntp742
Rp743
(lp744
F-1.518284175388635
aF-6.756472030260556
aF0.0
abag3
(g13
g5
Ntp745
Rp746
(lp747
F0.0
aF0.0
aF0.7217534426472072
aF0.6921502496040182
ababag3
(g4
g5
Ntp748
Rp749
(lp750
g3
(g9
g5
Ntp751
Rp752
(lp753
F-1.4973061245119865
aF-5.9790170744614475
aF0.0
abag3
(g13
g5
Ntp754
Rp755
(lp756
F0.0
aF0.0
aF0.6710995496204663
aF0.7413672467132651
ababag3
(g4
g5
Ntp757
Rp758
(lp759
g3
(g9
g5
Ntp760
Rp761
(lp762
F-1.2456106099672624
aF-4.9894771165941565
aF0.0
abag3
(g13
g5
Ntp763
Rp764
(lp765
F0.0
aF0.0
aF0.5321450354480844
aF0.846653211916164
ababag3
(g4
g5
Ntp766
Rp767
(lp768
g3
(g9
g5
Ntp769
Rp770
(lp771
F-0.6068699322213214
aF-4.211773135548312
aF0.0
abag3
(g13
g5
Ntp772
Rp773
(lp774
F0.0
aF0.0
aF0.3202810666403035
aF0.9473225629909537
ababag3
(g4
g5
Ntp775
Rp776
(lp777
g3
(g9
g5
Ntp778
Rp779
(lp780
F0.1449626604325962
aF-3.741440019375466
aF0.0
abag3
(g13
g5
Ntp781
Rp782
(lp783
F0.0
aF0.0
aF0.30364844135391117
aF0.9527841434781229
ababag3
(g4
g5
Ntp784
Rp785
(lp786
g3
(g9
g5
Ntp787
Rp788
(lp789
F0.7553359229675092
aF-2.974836116958142
aF0.0
abag3
(g13
g5
Ntp790
Rp791
(lp792
F0.0
aF0.0
aF0.533136083414846
aF0.8460295009992728
ababag3
(g4
g5
Ntp793
Rp794
(lp795
g3
(g9
g5
Ntp796
Rp797
(lp798
F1.0183874544340263
aF-2.0054844203310096
aF0.0
abag3
(g13
g5
Ntp799
Rp800
(lp801
F0.0
aF0.0
aF0.6530611539304711
aF0.7573051757561158
ababag3
(g4
g5
Ntp802
Rp803
(lp804
g3
(g9
g5
Ntp805
Rp806
(lp807
F1.0893966160622983
aF-1.5630772280386962
aF0.0
abag3
(g13
g5
Ntp808
Rp809
(lp810
F0.0
aF0.0
aF0.6383872182371457
aF0.7697153757015894
ababag3
(g4
g5
Ntp811
Rp812
(lp813
g3
(g9
g5
Ntp814
Rp815
(lp816
F1.0893966160622983
aF-1.5630772280386962
aF0.0
abag3
(g13
g5
Ntp817
Rp818
(lp819
F0.0
aF0.0
aF0.6383872182371457
aF0.7697153757015894
ababag3
(g4
g5
Ntp820
Rp821
(lp822
g3
(g9
g5
Ntp823
Rp824
(lp825
F1.0893966160622983
aF-1.5630772280386962
aF0.0
abag3
(g13
g5
Ntp826
Rp827
(lp828
F0.0
aF0.0
aF0.6383872182371457
aF0.7697153757015894
ababag3
(g4
g5
Ntp829
Rp830
(lp831
g3
(g9
g5
Ntp832
Rp833
(lp834
F1.0893966160622983
aF-1.5630772280386962
aF0.0
abag3
(g13
g5
Ntp835
Rp836
(lp837
F0.0
aF0.0
aF0.6383872182371457
aF0.7697153757015894
ababag3
(g4
g5
Ntp838
Rp839
(lp840
g3
(g9
g5
Ntp841
Rp842
(lp843
F1.086149870755648
aF-1.5403681562352447
aF0.0
abag3
(g13
g5
Ntp844
Rp845
(lp846
F0.0
aF0.0
aF0.8119317888421524
aF0.5837523192824011
ababag3
(g4
g5
Ntp847
Rp848
(lp849
g3
(g9
g5
Ntp850
Rp851
(lp852
F1.086149870755648
aF-1.5403681562352447
aF0.0
abag3
(g13
g5
Ntp853
Rp854
(lp855
F0.0
aF0.0
aF0.8119317888421524
aF0.5837523192824011
ababag3
(g4
g5
Ntp856
Rp857
(lp858
g3
(g9
g5
Ntp859
Rp860
(lp861
F1.086149870755648
aF-1.5403681562352447
aF0.0
abag3
(g13
g5
Ntp862
Rp863
(lp864
F0.0
aF0.0
aF0.8119317888421524
aF0.5837523192824011
ababag3
(g4
g5
Ntp865
Rp866
(lp867
g3
(g9
g5
Ntp868
Rp869
(lp870
F1.0731678299998189
aF-1.5441935896411756
aF0.0
abag3
(g13
g5
Ntp871
Rp872
(lp873
F0.0
aF0.0
aF0.9338607385082451
aF0.35763685642399184
ababag3
(g4
g5
Ntp874
Rp875
(lp876
g3
(g9
g5
Ntp877
Rp878
(lp879
F1.0731678299998189
aF-1.5441935896411756
aF0.0
abag3
(g13
g5
Ntp880
Rp881
(lp882
F0.0
aF0.0
aF0.9338607385082451
aF0.35763685642399184
ababag3
(g4
g5
Ntp883
Rp884
(lp885
g3
(g9
g5
Ntp886
Rp887
(lp888
F1.06028138666686
aF-1.547250090581
aF0.0
abag3
(g13
g5
Ntp889
Rp890
(lp891
F0.0
aF0.0
aF0.9936168432469556
aF0.11280766293100324
ababag3
(g4
g5
Ntp892
Rp893
(lp894
g3
(g9
g5
Ntp895
Rp896
(lp897
F1.06028138666686
aF-1.547250090581
aF0.0
abag3
(g13
g5
Ntp898
Rp899
(lp900
F0.0
aF0.0
aF0.9936168432469556
aF0.11280766293100324
ababag3
(g4
g5
Ntp901
Rp902
(lp903
g3
(g9
g5
Ntp904
Rp905
(lp906
F0.7520535300867217
aF-0.9695148232365893
aF0.0
abag3
(g13
g5
Ntp907
Rp908
(lp909
F0.0
aF0.0
aF0.7176524838221418
aF0.6964014018250614
ababag3
(g4
g5
Ntp910
Rp911
(lp912
g3
(g9
g5
Ntp913
Rp914
(lp915
F1.0239643297138414
aF-0.06087893319204515
aF0.0
abag3
(g13
g5
Ntp916
Rp917
(lp918
F0.0
aF0.0
aF0.49794968310274534
aF0.8672059231219973
ababag3
(g4
g5
Ntp919
Rp920
(lp921
g3
(g9
g5
Ntp922
Rp923
(lp924
F1.6289408041418842
aF0.49141116339994984
aF0.0
abag3
(g13
g5
Ntp925
Rp926
(lp927
F0.0
aF0.0
aF0.22676517879170466
aF0.9739494615674708
ababag3
(g4
g5
Ntp928
Rp929
(lp930
g3
(g9
g5
Ntp931
Rp932
(lp933
F2.4315877051766286
aF0.6877320832670081
aF0.0
abag3
(g13
g5
Ntp934
Rp935
(lp936
F0.0
aF0.0
aF0.0414233466538719
aF0.9991416848235255
ababag3
(g4
g5
Ntp937
Rp938
(lp939
g3
(g9
g5
Ntp940
Rp941
(lp942
F3.479902218414281
aF0.649580897039345
aF0.0
abag3
(g13
g5
Ntp943
Rp944
(lp945
F0.0
aF0.0
aF-0.0705294313267247
aF0.9975096988584766
ababag3
(g4
g5
Ntp946
Rp947
(lp948
g3
(g9
g5
Ntp949
Rp950
(lp951
F4.49496324032832
aF0.45922441943389747
aF0.0
abag3
(g13
g5
Ntp952
Rp953
(lp954
F0.0
aF0.0
aF-0.13068902817067143
aF0.9914234100099742
ababag3
(g4
g5
Ntp955
Rp956
(lp957
g3
(g9
g5
Ntp958
Rp959
(lp960
F5.500957300535403
aF0.14430518501445025
aF0.0
abag3
(g13
g5
Ntp961
Rp962
(lp963
F0.0
aF0.0
aF-0.16792169824271602
aF0.9858003364065576
ababag3
(g4
g5
Ntp964
Rp965
(lp966
g3
(g9
g5
Ntp967
Rp968
(lp969
F6.21297069978562
aF-0.10890957222826034
aF0.0
abag3
(g13
g5
Ntp970
Rp971
(lp972
F0.0
aF0.0
aF-0.17336978609968148
aF0.9848568003866098
ababag3
(g4
g5
Ntp973
Rp974
(lp975
g3
(g9
g5
Ntp976
Rp977
(lp978
F6.64098196405149
aF-0.2634446530395132
aF0.0
abag3
(g13
g5
Ntp979
Rp980
(lp981
F0.0
aF0.0
aF-0.18145198570403287
aF0.9833998052084734
ababag3
(g4
g5
Ntp982
Rp983
(lp984
g3
(g9
g5
Ntp985
Rp986
(lp987
F6.64098196405149
aF-0.2634446530395132
aF0.0
abag3
(g13
g5
Ntp988
Rp989
(lp990
F0.0
aF0.0
aF-0.18145198570403287
aF0.9833998052084734
ababag3
(g4
g5
Ntp991
Rp992
(lp993
g3
(g9
g5
Ntp994
Rp995
(lp996
F6.64098196405149
aF-0.2634446530395132
aF0.0
abag3
(g13
g5
Ntp997
Rp998
(lp999
F0.0
aF0.0
aF-0.18145198570403287
aF0.9833998052084734
ababag3
(g4
g5
Ntp1000
Rp1001
(lp1002
g3
(g9
g5
Ntp1003
Rp1004
(lp1005
F6.817066820494701
aF-0.33517008400230824
aF0.0
abag3
(g13
g5
Ntp1006
Rp1007
(lp1008
F0.0
aF0.0
aF-0.3105104647603623
aF0.9505699612728691
ababag3
(g4
g5
Ntp1009
Rp1010
(lp1011
g3
(g9
g5
Ntp1012
Rp1013
(lp1014
F6.817066820494701
aF-0.33517008400230824
aF0.0
abag3
(g13
g5
Ntp1015
Rp1016
(lp1017
F0.0
aF0.0
aF-0.3105104647603623
aF0.9505699612728691
ababaaa.