(lp0
(lp1
I4
aF68.96000000000004
a(lp2
ccopy_reg
_reconstructor
p3
(cgeometry_msgs.msg._Pose
Pose
p4
c__builtin__
object
p5
Ntp6
Rp7
(lp8
g3
(cgeometry_msgs.msg._Point
Point
p9
g5
Ntp10
Rp11
(lp12
F-17.77764384092163
aF-6.705373760209819
aF0.0
abag3
(cgeometry_msgs.msg._Quaternion
Quaternion
p13
g5
Ntp14
Rp15
(lp16
F0.0
aF0.0
aF0.6152565063432538
aF0.7883269825410606
ababag3
(g4
g5
Ntp17
Rp18
(lp19
g3
(g9
g5
Ntp20
Rp21
(lp22
F-17.784793337816666
aF-6.71212978093738
aF0.0
abag3
(g13
g5
Ntp23
Rp24
(lp25
F0.0
aF0.0
aF0.491719683796507
aF0.8707535544383744
ababag3
(g4
g5
Ntp26
Rp27
(lp28
g3
(g9
g5
Ntp29
Rp30
(lp31
F-17.64839414276341
aF-6.752944748936273
aF0.0
abag3
(g13
g5
Ntp32
Rp33
(lp34
F0.0
aF0.0
aF-0.2751069406901403
aF0.9614136316820724
ababag3
(g4
g5
Ntp35
Rp36
(lp37
g3
(g9
g5
Ntp38
Rp39
(lp40
F-17.333167590096505
aF-7.451835757127298
aF0.0
abag3
(g13
g5
Ntp41
Rp42
(lp43
F0.0
aF0.0
aF-0.6863995561714589
aF0.7272246209305789
ababag3
(g4
g5
Ntp44
Rp45
(lp46
g3
(g9
g5
Ntp47
Rp48
(lp49
F-17.48354736514574
aF-8.159684368690991
aF0.0
abag3
(g13
g5
Ntp50
Rp51
(lp52
F0.0
aF0.0
aF-0.8651959246495057
aF0.5014339557408204
ababag3
(g4
g5
Ntp53
Rp54
(lp55
g3
(g9
g5
Ntp56
Rp57
(lp58
F-17.592390910500253
aF-8.361441187514838
aF0.0
abag3
(g13
g5
Ntp59
Rp60
(lp61
F0.0
aF0.0
aF-0.8656657570206767
aF0.5006224097279494
ababag3
(g4
g5
Ntp62
Rp63
(lp64
g3
(g9
g5
Ntp65
Rp66
(lp67
F-17.592390910500253
aF-8.361441187514838
aF0.0
abag3
(g13
g5
Ntp68
Rp69
(lp70
F0.0
aF0.0
aF-0.8656657570206767
aF0.5006224097279494
ababag3
(g4
g5
Ntp71
Rp72
(lp73
g3
(g9
g5
Ntp74
Rp75
(lp76
F-17.592390910500253
aF-8.361441187514838
aF0.0
abag3
(g13
g5
Ntp77
Rp78
(lp79
F0.0
aF0.0
aF-0.8656657570206767
aF0.5006224097279494
ababag3
(g4
g5
Ntp80
Rp81
(lp82
g3
(g9
g5
Ntp83
Rp84
(lp85
F-17.592390910500253
aF-8.361441187514838
aF0.0
abag3
(g13
g5
Ntp86
Rp87
(lp88
F0.0
aF0.0
aF-0.8656657570206767
aF0.5006224097279494
ababag3
(g4
g5
Ntp89
Rp90
(lp91
g3
(g9
g5
Ntp92
Rp93
(lp94
F-17.592390910500253
aF-8.361441187514838
aF0.0
abag3
(g13
g5
Ntp95
Rp96
(lp97
F0.0
aF0.0
aF-0.8656657570206767
aF0.5006224097279494
ababag3
(g4
g5
Ntp98
Rp99
(lp100
g3
(g9
g5
Ntp101
Rp102
(lp103
F-17.592390910500253
aF-8.361441187514838
aF0.0
abag3
(g13
g5
Ntp104
Rp105
(lp106
F0.0
aF0.0
aF-0.8656657570206767
aF0.5006224097279494
ababag3
(g4
g5
Ntp107
Rp108
(lp109
g3
(g9
g5
Ntp110
Rp111
(lp112
F-17.540515551542573
aF-8.280151278629376
aF0.0
abag3
(g13
g5
Ntp113
Rp114
(lp115
F0.0
aF0.0
aF-0.6886038850794172
aF0.7251377037870343
ababag3
(g4
g5
Ntp116
Rp117
(lp118
g3
(g9
g5
Ntp119
Rp120
(lp121
F-17.540515551542573
aF-8.280151278629376
aF0.0
abag3
(g13
g5
Ntp122
Rp123
(lp124
F0.0
aF0.0
aF-0.6886038850794172
aF0.7251377037870343
ababag3
(g4
g5
Ntp125
Rp126
(lp127
g3
(g9
g5
Ntp128
Rp129
(lp130
F-17.54433706211584
aF-8.299011830528347
aF0.0
abag3
(g13
g5
Ntp131
Rp132
(lp133
F0.0
aF0.0
aF-0.4825411284006022
aF0.8758733124155991
ababag3
(g4
g5
Ntp134
Rp135
(lp136
g3
(g9
g5
Ntp137
Rp138
(lp139
F-17.54433706211584
aF-8.299011830528347
aF0.0
abag3
(g13
g5
Ntp140
Rp141
(lp142
F0.0
aF0.0
aF-0.4825411284006022
aF0.8758733124155991
ababag3
(g4
g5
Ntp143
Rp144
(lp145
g3
(g9
g5
Ntp146
Rp147
(lp148
F-17.53791611812564
aF-8.299568303778063
aF0.0
abag3
(g13
g5
Ntp149
Rp150
(lp151
F0.0
aF0.0
aF-0.2414838750203891
aF0.9704048320701711
ababag3
(g4
g5
Ntp152
Rp153
(lp154
g3
(g9
g5
Ntp155
Rp156
(lp157
F-17.53791611812564
aF-8.299568303778063
aF0.0
abag3
(g13
g5
Ntp158
Rp159
(lp160
F0.0
aF0.0
aF-0.2414838750203891
aF0.9704048320701711
ababag3
(g4
g5
Ntp161
Rp162
(lp163
g3
(g9
g5
Ntp164
Rp165
(lp166
F-17.532270655537012
aF-8.289249932357865
aF0.0
abag3
(g13
g5
Ntp167
Rp168
(lp169
F0.0
aF0.0
aF0.010447961820652215
aF0.9999454185573301
ababag3
(g4
g5
Ntp170
Rp171
(lp172
g3
(g9
g5
Ntp173
Rp174
(lp175
F-17.532270655537012
aF-8.289249932357865
aF0.0
abag3
(g13
g5
Ntp176
Rp177
(lp178
F0.0
aF0.0
aF0.010447961820652215
aF0.9999454185573301
ababag3
(g4
g5
Ntp179
Rp180
(lp181
g3
(g9
g5
Ntp182
Rp183
(lp184
F-17.520455144264147
aF-8.274688878159134
aF0.0
abag3
(g13
g5
Ntp185
Rp186
(lp187
F0.0
aF0.0
aF0.2597338234707762
aF0.9656802477762769
ababag3
(g4
g5
Ntp188
Rp189
(lp190
g3
(g9
g5
Ntp191
Rp192
(lp193
F-17.5283356592915
aF-8.26600498316561
aF0.0
abag3
(g13
g5
Ntp194
Rp195
(lp196
F0.0
aF0.0
aF0.7363506406712098
aF0.6766001285715949
ababag3
(g4
g5
Ntp197
Rp198
(lp199
g3
(g9
g5
Ntp200
Rp201
(lp202
F-17.74898985514363
aF-8.17697214091704
aF0.0
abag3
(g13
g5
Ntp203
Rp204
(lp205
F0.0
aF0.0
aF-0.9964888350654979
aF0.08372575224987198
ababag3
(g4
g5
Ntp206
Rp207
(lp208
g3
(g9
g5
Ntp209
Rp210
(lp211
F-18.083115865545764
aF-8.477530173619684
aF0.0
abag3
(g13
g5
Ntp212
Rp213
(lp214
F0.0
aF0.0
aF-0.8637739219353167
aF0.5038795607925386
ababag3
(g4
g5
Ntp215
Rp216
(lp217
g3
(g9
g5
Ntp218
Rp219
(lp220
F-18.254026484060777
aF-8.975183813548227
aF0.0
abag3
(g13
g5
Ntp221
Rp222
(lp223
F0.0
aF0.0
aF-0.7873320822812642
aF0.616529149522266
ababag3
(g4
g5
Ntp224
Rp225
(lp226
g3
(g9
g5
Ntp227
Rp228
(lp229
F-18.254026484060777
aF-8.975183813548227
aF0.0
abag3
(g13
g5
Ntp230
Rp231
(lp232
F0.0
aF0.0
aF-0.7873320822812642
aF0.616529149522266
ababag3
(g4
g5
Ntp233
Rp234
(lp235
g3
(g9
g5
Ntp236
Rp237
(lp238
F-18.287115466195253
aF-9.086766166704603
aF0.0
abag3
(g13
g5
Ntp239
Rp240
(lp241
F0.0
aF0.0
aF-0.8686350147282098
aF0.49545253172036846
ababag3
(g4
g5
Ntp242
Rp243
(lp244
g3
(g9
g5
Ntp245
Rp246
(lp247
F-18.298812674904656
aF-9.088324183865552
aF0.0
abag3
(g13
g5
Ntp248
Rp249
(lp250
F0.0
aF0.0
aF0.9981190992690955
aF0.0613046790567374
ababag3
(g4
g5
Ntp251
Rp252
(lp253
g3
(g9
g5
Ntp254
Rp255
(lp256
F-18.29151528513139
aF-9.093534087589473
aF0.0
abag3
(g13
g5
Ntp257
Rp258
(lp259
F0.0
aF0.0
aF0.5846026675621653
aF0.8113197403485265
ababag3
(g4
g5
Ntp260
Rp261
(lp262
g3
(g9
g5
Ntp263
Rp264
(lp265
F-18.205289965840656
aF-9.0580654808327
aF0.0
abag3
(g13
g5
Ntp266
Rp267
(lp268
F0.0
aF0.0
aF0.09845007449635698
aF0.995141991291525
ababag3
(g4
g5
Ntp269
Rp270
(lp271
g3
(g9
g5
Ntp272
Rp273
(lp274
F-17.864703426935318
aF-9.176386202871946
aF0.0
abag3
(g13
g5
Ntp275
Rp276
(lp277
F0.0
aF0.0
aF-0.4327733256647467
aF0.9015027723712641
ababag3
(g4
g5
Ntp278
Rp279
(lp280
g3
(g9
g5
Ntp281
Rp282
(lp283
F-17.7790942551931
aF-9.384977062411387
aF0.0
abag3
(g13
g5
Ntp284
Rp285
(lp286
F0.0
aF0.0
aF-0.6591646856563729
aF0.7519986151473519
ababag3
(g4
g5
Ntp287
Rp288
(lp289
g3
(g9
g5
Ntp290
Rp291
(lp292
F-17.7790942551931
aF-9.384977062411387
aF0.0
abag3
(g13
g5
Ntp293
Rp294
(lp295
F0.0
aF0.0
aF-0.6591646856563729
aF0.7519986151473519
ababag3
(g4
g5
Ntp296
Rp297
(lp298
g3
(g9
g5
Ntp299
Rp300
(lp301
F-17.7759955454516
aF-9.542717185494022
aF0.0
abag3
(g13
g5
Ntp302
Rp303
(lp304
F0.0
aF0.0
aF-0.7832785377980754
aF0.6216709195586593
ababag3
(g4
g5
Ntp305
Rp306
(lp307
g3
(g9
g5
Ntp308
Rp309
(lp310
F-17.7759955454516
aF-9.542717185494022
aF0.0
abag3
(g13
g5
Ntp311
Rp312
(lp313
F0.0
aF0.0
aF-0.7832785377980754
aF0.6216709195586593
ababag3
(g4
g5
Ntp314
Rp315
(lp316
g3
(g9
g5
Ntp317
Rp318
(lp319
F-17.78408194305424
aF-9.545928891133983
aF0.0
abag3
(g13
g5
Ntp320
Rp321
(lp322
F0.0
aF0.0
aF-0.916441972528828
aF0.40016760362062154
ababag3
(g4
g5
Ntp323
Rp324
(lp325
g3
(g9
g5
Ntp326
Rp327
(lp328
F-17.78408194305424
aF-9.545928891133983
aF0.0
abag3
(g13
g5
Ntp329
Rp330
(lp331
F0.0
aF0.0
aF-0.916441972528828
aF0.40016760362062154
ababag3
(g4
g5
Ntp332
Rp333
(lp334
g3
(g9
g5
Ntp335
Rp336
(lp337
F-17.78408194305424
aF-9.545928891133983
aF0.0
abag3
(g13
g5
Ntp338
Rp339
(lp340
F0.0
aF0.0
aF-0.916441972528828
aF0.40016760362062154
ababag3
(g4
g5
Ntp341
Rp342
(lp343
g3
(g9
g5
Ntp344
Rp345
(lp346
F-17.78408194305424
aF-9.545928891133983
aF0.0
abag3
(g13
g5
Ntp347
Rp348
(lp349
F0.0
aF0.0
aF-0.916441972528828
aF0.40016760362062154
ababag3
(g4
g5
Ntp350
Rp351
(lp352
g3
(g9
g5
Ntp353
Rp354
(lp355
F-17.78408194305424
aF-9.545928891133983
aF0.0
abag3
(g13
g5
Ntp356
Rp357
(lp358
F0.0
aF0.0
aF-0.916441972528828
aF0.40016760362062154
ababag3
(g4
g5
Ntp359
Rp360
(lp361
g3
(g9
g5
Ntp362
Rp363
(lp364
F-17.78408194305424
aF-9.545928891133983
aF0.0
abag3
(g13
g5
Ntp365
Rp366
(lp367
F0.0
aF0.0
aF-0.916441972528828
aF0.40016760362062154
ababag3
(g4
g5
Ntp368
Rp369
(lp370
g3
(g9
g5
Ntp371
Rp372
(lp373
F-17.78408194305424
aF-9.545928891133983
aF0.0
abag3
(g13
g5
Ntp374
Rp375
(lp376
F0.0
aF0.0
aF-0.916441972528828
aF0.40016760362062154
ababag3
(g4
g5
Ntp377
Rp378
(lp379
g3
(g9
g5
Ntp380
Rp381
(lp382
F-17.78408194305424
aF-9.545928891133983
aF0.0
abag3
(g13
g5
Ntp383
Rp384
(lp385
F0.0
aF0.0
aF-0.916441972528828
aF0.40016760362062154
ababag3
(g4
g5
Ntp386
Rp387
(lp388
g3
(g9
g5
Ntp389
Rp390
(lp391
F-17.78408194305424
aF-9.545928891133983
aF0.0
abag3
(g13
g5
Ntp392
Rp393
(lp394
F0.0
aF0.0
aF-0.916441972528828
aF0.40016760362062154
ababag3
(g4
g5
Ntp395
Rp396
(lp397
g3
(g9
g5
Ntp398
Rp399
(lp400
F-17.78408194305424
aF-9.545928891133983
aF0.0
abag3
(g13
g5
Ntp401
Rp402
(lp403
F0.0
aF0.0
aF-0.916441972528828
aF0.40016760362062154
ababag3
(g4
g5
Ntp404
Rp405
(lp406
g3
(g9
g5
Ntp407
Rp408
(lp409
F-17.78408194305424
aF-9.545928891133983
aF0.0
abag3
(g13
g5
Ntp410
Rp411
(lp412
F0.0
aF0.0
aF-0.916441972528828
aF0.40016760362062154
ababag3
(g4
g5
Ntp413
Rp414
(lp415
g3
(g9
g5
Ntp416
Rp417
(lp418
F-17.78408194305424
aF-9.545928891133983
aF0.0
abag3
(g13
g5
Ntp419
Rp420
(lp421
F0.0
aF0.0
aF-0.916441972528828
aF0.40016760362062154
ababag3
(g4
g5
Ntp422
Rp423
(lp424
g3
(g9
g5
Ntp425
Rp426
(lp427
F-17.78408194305424
aF-9.545928891133983
aF0.0
abag3
(g13
g5
Ntp428
Rp429
(lp430
F0.0
aF0.0
aF-0.916441972528828
aF0.40016760362062154
ababag3
(g4
g5
Ntp431
Rp432
(lp433
g3
(g9
g5
Ntp434
Rp435
(lp436
F-17.78408194305424
aF-9.545928891133983
aF0.0
abag3
(g13
g5
Ntp437
Rp438
(lp439
F0.0
aF0.0
aF-0.916441972528828
aF0.40016760362062154
ababag3
(g4
g5
Ntp440
Rp441
(lp442
g3
(g9
g5
Ntp443
Rp444
(lp445
F-17.78408194305424
aF-9.545928891133983
aF0.0
abag3
(g13
g5
Ntp446
Rp447
(lp448
F0.0
aF0.0
aF-0.916441972528828
aF0.40016760362062154
ababag3
(g4
g5
Ntp449
Rp450
(lp451
g3
(g9
g5
Ntp452
Rp453
(lp454
F-17.78408194305424
aF-9.545928891133983
aF0.0
abag3
(g13
g5
Ntp455
Rp456
(lp457
F0.0
aF0.0
aF-0.916441972528828
aF0.40016760362062154
ababag3
(g4
g5
Ntp458
Rp459
(lp460
g3
(g9
g5
Ntp461
Rp462
(lp463
F-17.78408194305424
aF-9.545928891133983
aF0.0
abag3
(g13
g5
Ntp464
Rp465
(lp466
F0.0
aF0.0
aF-0.916441972528828
aF0.40016760362062154
ababag3
(g4
g5
Ntp467
Rp468
(lp469
g3
(g9
g5
Ntp470
Rp471
(lp472
F-17.78408194305424
aF-9.545928891133983
aF0.0
abag3
(g13
g5
Ntp473
Rp474
(lp475
F0.0
aF0.0
aF-0.916441972528828
aF0.40016760362062154
ababag3
(g4
g5
Ntp476
Rp477
(lp478
g3
(g9
g5
Ntp479
Rp480
(lp481
F-17.78408194305424
aF-9.545928891133983
aF0.0
abag3
(g13
g5
Ntp482
Rp483
(lp484
F0.0
aF0.0
aF-0.916441972528828
aF0.40016760362062154
ababag3
(g4
g5
Ntp485
Rp486
(lp487
g3
(g9
g5
Ntp488
Rp489
(lp490
F-17.78408194305424
aF-9.545928891133983
aF0.0
abag3
(g13
g5
Ntp491
Rp492
(lp493
F0.0
aF0.0
aF-0.916441972528828
aF0.40016760362062154
ababag3
(g4
g5
Ntp494
Rp495
(lp496
g3
(g9
g5
Ntp497
Rp498
(lp499
F-17.78408194305424
aF-9.545928891133983
aF0.0
abag3
(g13
g5
Ntp500
Rp501
(lp502
F0.0
aF0.0
aF-0.916441972528828
aF0.40016760362062154
ababag3
(g4
g5
Ntp503
Rp504
(lp505
g3
(g9
g5
Ntp506
Rp507
(lp508
F-17.78408194305424
aF-9.545928891133983
aF0.0
abag3
(g13
g5
Ntp509
Rp510
(lp511
F0.0
aF0.0
aF-0.916441972528828
aF0.40016760362062154
ababag3
(g4
g5
Ntp512
Rp513
(lp514
g3
(g9
g5
Ntp515
Rp516
(lp517
F-17.78408194305424
aF-9.545928891133983
aF0.0
abag3
(g13
g5
Ntp518
Rp519
(lp520
F0.0
aF0.0
aF-0.916441972528828
aF0.40016760362062154
ababag3
(g4
g5
Ntp521
Rp522
(lp523
g3
(g9
g5
Ntp524
Rp525
(lp526
F-17.78408194305424
aF-9.545928891133983
aF0.0
abag3
(g13
g5
Ntp527
Rp528
(lp529
F0.0
aF0.0
aF-0.916441972528828
aF0.40016760362062154
ababag3
(g4
g5
Ntp530
Rp531
(lp532
g3
(g9
g5
Ntp533
Rp534
(lp535
F-17.78408194305424
aF-9.545928891133983
aF0.0
abag3
(g13
g5
Ntp536
Rp537
(lp538
F0.0
aF0.0
aF-0.916441972528828
aF0.40016760362062154
ababag3
(g4
g5
Ntp539
Rp540
(lp541
g3
(g9
g5
Ntp542
Rp543
(lp544
F-17.78408194305424
aF-9.545928891133983
aF0.0
abag3
(g13
g5
Ntp545
Rp546
(lp547
F0.0
aF0.0
aF-0.916441972528828
aF0.40016760362062154
ababag3
(g4
g5
Ntp548
Rp549
(lp550
g3
(g9
g5
Ntp551
Rp552
(lp553
F-17.67707407021474
aF-9.431936870039099
aF0.0
abag3
(g13
g5
Ntp554
Rp555
(lp556
F0.0
aF0.0
aF-0.7313381857954452
aF0.6820149983669178
ababag3
(g4
g5
Ntp557
Rp558
(lp559
g3
(g9
g5
Ntp560
Rp561
(lp562
F-17.67707407021474
aF-9.431936870039099
aF0.0
abag3
(g13
g5
Ntp563
Rp564
(lp565
F0.0
aF0.0
aF-0.7313381857954452
aF0.6820149983669178
ababag3
(g4
g5
Ntp566
Rp567
(lp568
g3
(g9
g5
Ntp569
Rp570
(lp571
F-17.67707407021474
aF-9.431936870039099
aF0.0
abag3
(g13
g5
Ntp572
Rp573
(lp574
F0.0
aF0.0
aF-0.7313381857954452
aF0.6820149983669178
ababag3
(g4
g5
Ntp575
Rp576
(lp577
g3
(g9
g5
Ntp578
Rp579
(lp580
F-17.70319140390448
aF-9.239696163816452
aF0.0
abag3
(g13
g5
Ntp581
Rp582
(lp583
F0.0
aF0.0
aF-0.5955646606710105
aF0.803307372653721
ababag3
(g4
g5
Ntp584
Rp585
(lp586
g3
(g9
g5
Ntp587
Rp588
(lp589
F-17.70319140390448
aF-9.239696163816452
aF0.0
abag3
(g13
g5
Ntp590
Rp591
(lp592
F0.0
aF0.0
aF-0.5955646606710105
aF0.803307372653721
ababag3
(g4
g5
Ntp593
Rp594
(lp595
g3
(g9
g5
Ntp596
Rp597
(lp598
F-17.75012758958599
aF-9.142961099869064
aF0.0
abag3
(g13
g5
Ntp599
Rp600
(lp601
F0.0
aF0.0
aF-0.3675586823852939
aF0.9300003306468158
ababag3
(g4
g5
Ntp602
Rp603
(lp604
g3
(g9
g5
Ntp605
Rp606
(lp607
F-17.75012758958599
aF-9.142961099869064
aF0.0
abag3
(g13
g5
Ntp608
Rp609
(lp610
F0.0
aF0.0
aF-0.3675586823852939
aF0.9300003306468158
ababag3
(g4
g5
Ntp611
Rp612
(lp613
g3
(g9
g5
Ntp614
Rp615
(lp616
F-17.75012758958599
aF-9.142961099869064
aF0.0
abag3
(g13
g5
Ntp617
Rp618
(lp619
F0.0
aF0.0
aF-0.3675586823852939
aF0.9300003306468158
ababag3
(g4
g5
Ntp620
Rp621
(lp622
g3
(g9
g5
Ntp623
Rp624
(lp625
F-17.817519140968557
aF-9.111526504878919
aF0.0
abag3
(g13
g5
Ntp626
Rp627
(lp628
F0.0
aF0.0
aF-0.12107365067061916
aF0.9926435267069891
ababaaa(lp629
I3
aF47.15299999999979
a(lp630
g3
(g4
g5
Ntp631
Rp632
(lp633
g3
(g9
g5
Ntp634
Rp635
(lp636
F-17.780361287817048
aF-6.71189601825746
aF0.0
abag3
(g13
g5
Ntp637
Rp638
(lp639
F0.0
aF0.0
aF0.6232057123771041
aF0.782057951855581
ababag3
(g4
g5
Ntp640
Rp641
(lp642
g3
(g9
g5
Ntp643
Rp644
(lp645
F-17.781215995392678
aF-6.708214653809282
aF0.0
abag3
(g13
g5
Ntp646
Rp647
(lp648
F0.0
aF0.0
aF0.2779416358305428
aF0.9605979632873692
ababag3
(g4
g5
Ntp649
Rp650
(lp651
g3
(g9
g5
Ntp652
Rp653
(lp654
F-17.68027628583253
aF-6.7460032610019764
aF0.0
abag3
(g13
g5
Ntp655
Rp656
(lp657
F0.0
aF0.0
aF-0.26231304134270317
aF0.9649828331848921
ababag3
(g4
g5
Ntp658
Rp659
(lp660
g3
(g9
g5
Ntp661
Rp662
(lp663
F-17.37121845591248
aF-7.440539460323864
aF0.0
abag3
(g13
g5
Ntp664
Rp665
(lp666
F0.0
aF0.0
aF-0.6854471558565447
aF0.7281223774395165
ababag3
(g4
g5
Ntp667
Rp668
(lp669
g3
(g9
g5
Ntp670
Rp671
(lp672
F-17.505851022012465
aF-8.11181340710469
aF0.0
abag3
(g13
g5
Ntp673
Rp674
(lp675
F0.0
aF0.0
aF-0.8723991294261562
aF0.488794188771189
ababag3
(g4
g5
Ntp676
Rp677
(lp678
g3
(g9
g5
Ntp679
Rp680
(lp681
F-17.927188373169262
aF-8.728499244550038
aF0.0
abag3
(g13
g5
Ntp682
Rp683
(lp684
F0.0
aF0.0
aF-0.8241661708351581
aF0.5663480580446206
ababag3
(g4
g5
Ntp685
Rp686
(lp687
g3
(g9
g5
Ntp688
Rp689
(lp690
F-18.049886336769795
aF-9.441164149271625
aF0.0
abag3
(g13
g5
Ntp691
Rp692
(lp693
F0.0
aF0.0
aF-0.6980315349089986
aF0.7160670194001308
ababag3
(g4
g5
Ntp694
Rp695
(lp696
g3
(g9
g5
Ntp697
Rp698
(lp699
F-17.729076625955898
aF-10.241457436270737
aF0.0
abag3
(g13
g5
Ntp700
Rp701
(lp702
F0.0
aF0.0
aF-0.3886655331091249
aF0.9213789141135148
ababag3
(g4
g5
Ntp703
Rp704
(lp705
g3
(g9
g5
Ntp706
Rp707
(lp708
F-16.869882451982114
aF-10.69209773431967
aF0.0
abag3
(g13
g5
Ntp709
Rp710
(lp711
F0.0
aF0.0
aF-0.10375018313749072
aF0.9946033880391405
ababag3
(g4
g5
Ntp712
Rp713
(lp714
g3
(g9
g5
Ntp715
Rp716
(lp717
F-15.860931755302254
aF-10.699568590499624
aF0.0
abag3
(g13
g5
Ntp718
Rp719
(lp720
F0.0
aF0.0
aF0.10563371081036667
aF0.9944051081628814
ababag3
(g4
g5
Ntp721
Rp722
(lp723
g3
(g9
g5
Ntp724
Rp725
(lp726
F-14.79518162701116
aF-10.488013586056452
aF0.0
abag3
(g13
g5
Ntp727
Rp728
(lp729
F0.0
aF0.0
aF0.06324854118080918
aF0.9979978066301045
ababag3
(g4
g5
Ntp730
Rp731
(lp732
g3
(g9
g5
Ntp733
Rp734
(lp735
F-13.998012569808557
aF-10.43620143461547
aF0.0
abag3
(g13
g5
Ntp736
Rp737
(lp738
F0.0
aF0.0
aF0.0074810655854220835
aF0.9999720164373134
ababag3
(g4
g5
Ntp739
Rp740
(lp741
g3
(g9
g5
Ntp742
Rp743
(lp744
F-12.943038645838843
aF-10.446538565293679
aF0.0
abag3
(g13
g5
Ntp745
Rp746
(lp747
F0.0
aF0.0
aF-0.016184570400011512
aF0.9998690212627688
ababag3
(g4
g5
Ntp748
Rp749
(lp750
g3
(g9
g5
Ntp751
Rp752
(lp753
F-11.912523043860865
aF-10.476853388580459
aF0.0
abag3
(g13
g5
Ntp754
Rp755
(lp756
F0.0
aF0.0
aF-0.01768585512800437
aF0.9998435930326259
ababag3
(g4
g5
Ntp757
Rp758
(lp759
g3
(g9
g5
Ntp760
Rp761
(lp762
F-10.849771491730033
aF-10.52600371618036
aF0.0
abag3
(g13
g5
Ntp763
Rp764
(lp765
F0.0
aF0.0
aF-0.013856984434634114
aF0.9999039873819777
ababag3
(g4
g5
Ntp766
Rp767
(lp768
g3
(g9
g5
Ntp769
Rp770
(lp771
F-10.054386517588323
aF-10.543179565007906
aF0.0
abag3
(g13
g5
Ntp772
Rp773
(lp774
F0.0
aF0.0
aF-0.008927483296093426
aF0.999960149226957
ababag3
(g4
g5
Ntp775
Rp776
(lp777
g3
(g9
g5
Ntp778
Rp779
(lp780
F-9.000665486347552
aF-10.557674772551172
aF0.0
abag3
(g13
g5
Ntp781
Rp782
(lp783
F0.0
aF0.0
aF-0.0056797958683729045
aF0.9999838698293556
ababag3
(g4
g5
Ntp784
Rp785
(lp786
g3
(g9
g5
Ntp787
Rp788
(lp789
F-7.9461981893851705
aF-10.570539351314217
aF0.0
abag3
(g13
g5
Ntp790
Rp791
(lp792
F0.0
aF0.0
aF-0.012700981220604474
aF0.9999193392849415
ababag3
(g4
g5
Ntp793
Rp794
(lp795
g3
(g9
g5
Ntp796
Rp797
(lp798
F-6.899358780108693
aF-10.585130350206025
aF0.0
abag3
(g13
g5
Ntp799
Rp800
(lp801
F0.0
aF0.0
aF-0.00748030176192478
aF0.9999720221513952
ababag3
(g4
g5
Ntp802
Rp803
(lp804
g3
(g9
g5
Ntp805
Rp806
(lp807
F-6.097257665958799
aF-10.590131816332645
aF0.0
abag3
(g13
g5
Ntp808
Rp809
(lp810
F0.0
aF0.0
aF-0.007680188895908852
aF0.9999705069143405
ababag3
(g4
g5
Ntp811
Rp812
(lp813
g3
(g9
g5
Ntp814
Rp815
(lp816
F-5.038004121838981
aF-10.603772921147257
aF0.0
abag3
(g13
g5
Ntp817
Rp818
(lp819
F0.0
aF0.0
aF-0.009077657704473035
aF0.9999587972164655
ababag3
(g4
g5
Ntp820
Rp821
(lp822
g3
(g9
g5
Ntp823
Rp824
(lp825
F-3.9829113766208906
aF-10.630142305663162
aF0.0
abag3
(g13
g5
Ntp826
Rp827
(lp828
F0.0
aF0.0
aF-0.015769067432134548
aF0.999875660526008
ababag3
(g4
g5
Ntp829
Rp830
(lp831
g3
(g9
g5
Ntp832
Rp833
(lp834
F-2.9365614856195372
aF-10.656056207515018
aF0.0
abag3
(g13
g5
Ntp835
Rp836
(lp837
F0.0
aF0.0
aF-0.004832751660668473
aF0.9999883221875076
ababag3
(g4
g5
Ntp838
Rp839
(lp840
g3
(g9
g5
Ntp841
Rp842
(lp843
F-2.1675292935253148
aF-10.650109347052013
aF0.0
abag3
(g13
g5
Ntp844
Rp845
(lp846
F0.0
aF0.0
aF0.001091664820855525
aF0.999999404133782
ababag3
(g4
g5
Ntp847
Rp848
(lp849
g3
(g9
g5
Ntp850
Rp851
(lp852
F-1.110620781085287
aF-10.657205260562188
aF0.0
abag3
(g13
g5
Ntp853
Rp854
(lp855
F0.0
aF0.0
aF-0.007083337474306357
aF0.99997491285043
ababag3
(g4
g5
Ntp856
Rp857
(lp858
g3
(g9
g5
Ntp859
Rp860
(lp861
F-0.04405142235685208
aF-10.687944554170999
aF0.0
abag3
(g13
g5
Ntp862
Rp863
(lp864
F0.0
aF0.0
aF-0.013612651195262985
aF0.9999073435711111
ababag3
(g4
g5
Ntp865
Rp866
(lp867
g3
(g9
g5
Ntp868
Rp869
(lp870
F0.7567661476723467
aF-10.703035242497759
aF0.0
abag3
(g13
g5
Ntp871
Rp872
(lp873
F0.0
aF0.0
aF-0.00767543720156575
aF0.9999705433980367
ababag3
(g4
g5
Ntp874
Rp875
(lp876
g3
(g9
g5
Ntp877
Rp878
(lp879
F1.8245036939980497
aF-10.718000793721053
aF0.0
abag3
(g13
g5
Ntp880
Rp881
(lp882
F0.0
aF0.0
aF-0.008643287727438331
aF0.9999626460909731
ababag3
(g4
g5
Ntp883
Rp884
(lp885
g3
(g9
g5
Ntp886
Rp887
(lp888
F2.88587304488743
aF-10.736765654227595
aF0.0
abag3
(g13
g5
Ntp889
Rp890
(lp891
F0.0
aF0.0
aF-0.010072956765961752
aF0.9999492664840507
ababag3
(g4
g5
Ntp892
Rp893
(lp894
g3
(g9
g5
Ntp895
Rp896
(lp897
F3.927709216303505
aF-10.73885809052691
aF0.0
abag3
(g13
g5
Ntp898
Rp899
(lp900
F0.0
aF0.0
aF-0.006724583742277209
aF0.9999773897311344
ababag3
(g4
g5
Ntp901
Rp902
(lp903
g3
(g9
g5
Ntp904
Rp905
(lp906
F4.7061903619492895
aF-10.74901767110613
aF0.0
abag3
(g13
g5
Ntp907
Rp908
(lp909
F0.0
aF0.0
aF-0.00777182999677009
aF0.9999697988731966
ababag3
(g4
g5
Ntp910
Rp911
(lp912
g3
(g9
g5
Ntp913
Rp914
(lp915
F5.756218676101149
aF-10.769131935946703
aF0.0
abag3
(g13
g5
Ntp916
Rp917
(lp918
F0.0
aF0.0
aF-0.006881216386241757
aF0.99997632415025
ababag3
(g4
g5
Ntp919
Rp920
(lp921
g3
(g9
g5
Ntp922
Rp923
(lp924
F6.802800663171558
aF-10.788090475592876
aF0.0
abag3
(g13
g5
Ntp925
Rp926
(lp927
F0.0
aF0.0
aF-0.0013384842457047762
aF0.9999991042295608
ababag3
(g4
g5
Ntp928
Rp929
(lp930
g3
(g9
g5
Ntp931
Rp932
(lp933
F7.5494948749800335
aF-10.73943868505266
aF0.0
abag3
(g13
g5
Ntp934
Rp935
(lp936
F0.0
aF0.0
aF0.11844219692175884
aF0.9929609488737949
ababag3
(g4
g5
Ntp937
Rp938
(lp939
g3
(g9
g5
Ntp940
Rp941
(lp942
F8.34343303775609
aF-10.074677405879703
aF0.0
abag3
(g13
g5
Ntp943
Rp944
(lp945
F0.0
aF0.0
aF0.514677152618941
aF0.8573840613004532
ababag3
(g4
g5
Ntp946
Rp947
(lp948
g3
(g9
g5
Ntp949
Rp950
(lp951
F8.57954881485903
aF-9.08595917257343
aF0.0
abag3
(g13
g5
Ntp952
Rp953
(lp954
F0.0
aF0.0
aF0.7117334578914253
aF0.7024496315878561
ababag3
(g4
g5
Ntp955
Rp956
(lp957
g3
(g9
g5
Ntp958
Rp959
(lp960
F8.507453537866521
aF-8.29540516155252
aF0.0
abag3
(g13
g5
Ntp961
Rp962
(lp963
F0.0
aF0.0
aF0.7504438974993206
aF0.6609341545918391
ababag3
(g4
g5
Ntp964
Rp965
(lp966
g3
(g9
g5
Ntp967
Rp968
(lp969
F8.45219926737835
aF-7.235545860922015
aF0.0
abag3
(g13
g5
Ntp970
Rp971
(lp972
F0.0
aF0.0
aF0.7139165622990878
aF0.7002307777262098
ababag3
(g4
g5
Ntp973
Rp974
(lp975
g3
(g9
g5
Ntp976
Rp977
(lp978
F8.509015763466655
aF-6.188295196675746
aF0.0
abag3
(g13
g5
Ntp979
Rp980
(lp981
F0.0
aF0.0
aF0.6525548991169979
aF0.7577414490698028
ababag3
(g4
g5
Ntp982
Rp983
(lp984
g3
(g9
g5
Ntp985
Rp986
(lp987
F8.779593652140589
aF-5.1857676731183675
aF0.0
abag3
(g13
g5
Ntp988
Rp989
(lp990
F0.0
aF0.0
aF0.5576155262458861
aF0.8300993463974801
ababag3
(g4
g5
Ntp991
Rp992
(lp993
g3
(g9
g5
Ntp994
Rp995
(lp996
F9.18935542526155
aF-4.565384325932226
aF0.0
abag3
(g13
g5
Ntp997
Rp998
(lp999
F0.0
aF0.0
aF0.3725338377875276
aF0.9280186095673384
ababag3
(g4
g5
Ntp1000
Rp1001
(lp1002
g3
(g9
g5
Ntp1003
Rp1004
(lp1005
F9.914935458213556
aF-4.158385066745543
aF0.0
abag3
(g13
g5
Ntp1006
Rp1007
(lp1008
F0.0
aF0.0
aF0.13181308455251234
aF0.9912745889715686
ababag3
(g4
g5
Ntp1009
Rp1010
(lp1011
g3
(g9
g5
Ntp1012
Rp1013
(lp1014
F10.1479214092243
aF-4.098467496969991
aF0.0
abag3
(g13
g5
Ntp1015
Rp1016
(lp1017
F0.0
aF0.0
aF0.09708088952212611
aF0.9952764946936066
ababag3
(g4
g5
Ntp1018
Rp1019
(lp1020
g3
(g9
g5
Ntp1021
Rp1022
(lp1023
F10.1479214092243
aF-4.098467496969991
aF0.0
abag3
(g13
g5
Ntp1024
Rp1025
(lp1026
F0.0
aF0.0
aF0.09708088952212611
aF0.9952764946936066
ababag3
(g4
g5
Ntp1027
Rp1028
(lp1029
g3
(g9
g5
Ntp1030
Rp1031
(lp1032
F10.1479214092243
aF-4.098467496969991
aF0.0
abag3
(g13
g5
Ntp1033
Rp1034
(lp1035
F0.0
aF0.0
aF0.09708088952212611
aF0.9952764946936066
ababag3
(g4
g5
Ntp1036
Rp1037
(lp1038
g3
(g9
g5
Ntp1039
Rp1040
(lp1041
F10.36250036613545
aF-4.074932305135591
aF0.0
abag3
(g13
g5
Ntp1042
Rp1043
(lp1044
F0.0
aF0.0
aF0.041773840906163845
aF0.9991270921238932
ababag3
(g4
g5
Ntp1045
Rp1046
(lp1047
g3
(g9
g5
Ntp1048
Rp1049
(lp1050
F10.36250036613545
aF-4.074932305135591
aF0.0
abag3
(g13
g5
Ntp1051
Rp1052
(lp1053
F0.0
aF0.0
aF0.041773840906163845
aF0.9991270921238932
ababaaa(lp1054
I3
aF46.400999999999954
a(lp1055
g3
(g4
g5
Ntp1056
Rp1057
(lp1058
g3
(g9
g5
Ntp1059
Rp1060
(lp1061
F-17.778909410031307
aF-6.702810785940476
aF0.0
abag3
(g13
g5
Ntp1062
Rp1063
(lp1064
F0.0
aF0.0
aF0.614228085432652
aF0.7891285440698105
ababag3
(g4
g5
Ntp1065
Rp1066
(lp1067
g3
(g9
g5
Ntp1068
Rp1069
(lp1070
F-17.783593963261644
aF-6.7151852552032425
aF0.0
abag3
(g13
g5
Ntp1071
Rp1072
(lp1073
F0.0
aF0.0
aF0.27056914281925476
aF0.9627005447978378
ababag3
(g4
g5
Ntp1074
Rp1075
(lp1076
g3
(g9
g5
Ntp1077
Rp1078
(lp1079
F-17.727461353923363
aF-6.743313278687726
aF0.0
abag3
(g13
g5
Ntp1080
Rp1081
(lp1082
F0.0
aF0.0
aF-0.2642367681239907
aF0.9644578427134015
ababag3
(g4
g5
Ntp1083
Rp1084
(lp1085
g3
(g9
g5
Ntp1086
Rp1087
(lp1088
F-17.501034693860994
aF-7.358977312292993
aF0.0
abag3
(g13
g5
Ntp1089
Rp1090
(lp1091
F0.0
aF0.0
aF-0.6907101064888257
aF0.7231317644760151
ababag3
(g4
g5
Ntp1092
Rp1093
(lp1094
g3
(g9
g5
Ntp1095
Rp1096
(lp1097
F-17.66662213960278
aF-8.271643053914849
aF0.0
abag3
(g13
g5
Ntp1098
Rp1099
(lp1100
F0.0
aF0.0
aF-0.8383194274219187
aF0.5451793627853007
ababag3
(g4
g5
Ntp1101
Rp1102
(lp1103
g3
(g9
g5
Ntp1104
Rp1105
(lp1106
F-17.90286819218774
aF-8.822221815587397
aF0.0
abag3
(g13
g5
Ntp1107
Rp1108
(lp1109
F0.0
aF0.0
aF-0.811936218071627
aF0.5837461586884691
ababag3
(g4
g5
Ntp1110
Rp1111
(lp1112
g3
(g9
g5
Ntp1113
Rp1114
(lp1115
F-17.78397150894833
aF-9.912140355017657
aF0.0
abag3
(g13
g5
Ntp1116
Rp1117
(lp1118
F0.0
aF0.0
aF-0.5074342391707094
aF0.8616904855673198
ababag3
(g4
g5
Ntp1119
Rp1120
(lp1121
g3
(g9
g5
Ntp1122
Rp1123
(lp1124
F-17.28145956693674
aF-10.417049177740045
aF0.0
abag3
(g13
g5
Ntp1125
Rp1126
(lp1127
F0.0
aF0.0
aF-0.2522338166860399
aF0.967666317342912
ababag3
(g4
g5
Ntp1128
Rp1129
(lp1130
g3
(g9
g5
Ntp1131
Rp1132
(lp1133
F-16.369531195382702
aF-10.668546446258727
aF0.0
abag3
(g13
g5
Ntp1134
Rp1135
(lp1136
F0.0
aF0.0
aF-0.02168925700949238
aF0.9997647603963525
ababag3
(g4
g5
Ntp1137
Rp1138
(lp1139
g3
(g9
g5
Ntp1140
Rp1141
(lp1142
F-15.315407184330473
aF-10.580450778563646
aF0.0
abag3
(g13
g5
Ntp1143
Rp1144
(lp1145
F0.0
aF0.0
aF0.07689524588561951
aF0.9970391773446969
ababag3
(g4
g5
Ntp1146
Rp1147
(lp1148
g3
(g9
g5
Ntp1149
Rp1150
(lp1151
F-14.243031196522956
aF-10.469553896751457
aF0.0
abag3
(g13
g5
Ntp1152
Rp1153
(lp1154
F0.0
aF0.0
aF0.0297949587410368
aF0.9995560316628678
ababag3
(g4
g5
Ntp1155
Rp1156
(lp1157
g3
(g9
g5
Ntp1158
Rp1159
(lp1160
F-13.435846588309534
aF-10.452818611027865
aF0.0
abag3
(g13
g5
Ntp1161
Rp1162
(lp1163
F0.0
aF0.0
aF-0.0011320605934271126
aF0.9999993592192011
ababag3
(g4
g5
Ntp1164
Rp1165
(lp1166
g3
(g9
g5
Ntp1167
Rp1168
(lp1169
F-12.39442632457202
aF-10.467131427072303
aF0.0
abag3
(g13
g5
Ntp1170
Rp1171
(lp1172
F0.0
aF0.0
aF-0.009496740999987714
aF0.9999549049384073
ababag3
(g4
g5
Ntp1173
Rp1174
(lp1175
g3
(g9
g5
Ntp1176
Rp1177
(lp1178
F-11.346680120079762
aF-10.487486975394162
aF0.0
abag3
(g13
g5
Ntp1179
Rp1180
(lp1181
F0.0
aF0.0
aF-0.016143678455230067
aF0.9998696823316198
ababag3
(g4
g5
Ntp1182
Rp1183
(lp1184
g3
(g9
g5
Ntp1185
Rp1186
(lp1187
F-10.283375284737213
aF-10.526912184931636
aF0.0
abag3
(g13
g5
Ntp1188
Rp1189
(lp1190
F0.0
aF0.0
aF-0.017564859230468206
aF0.9998457259598672
ababag3
(g4
g5
Ntp1191
Rp1192
(lp1193
g3
(g9
g5
Ntp1194
Rp1195
(lp1196
F-9.48802844998879
aF-10.549242850456547
aF0.0
abag3
(g13
g5
Ntp1197
Rp1198
(lp1199
F0.0
aF0.0
aF-0.012405190368030432
aF0.9999230526655203
ababag3
(g4
g5
Ntp1200
Rp1201
(lp1202
g3
(g9
g5
Ntp1203
Rp1204
(lp1205
F-8.440870938641764
aF-10.576715586274396
aF0.0
abag3
(g13
g5
Ntp1206
Rp1207
(lp1208
F0.0
aF0.0
aF-0.010343452580582078
aF0.9999465050635025
ababag3
(g4
g5
Ntp1209
Rp1210
(lp1211
g3
(g9
g5
Ntp1212
Rp1213
(lp1214
F-7.389139895609593
aF-10.59982873603095
aF0.0
abag3
(g13
g5
Ntp1215
Rp1216
(lp1217
F0.0
aF0.0
aF-0.010265904922180207
aF0.9999473042096412
ababag3
(g4
g5
Ntp1218
Rp1219
(lp1220
g3
(g9
g5
Ntp1221
Rp1222
(lp1223
F-6.31785632266679
aF-10.60298655675159
aF0.0
abag3
(g13
g5
Ntp1224
Rp1225
(lp1226
F0.0
aF0.0
aF-0.004395570063068396
aF0.9999903394352471
ababag3
(g4
g5
Ntp1227
Rp1228
(lp1229
g3
(g9
g5
Ntp1230
Rp1231
(lp1232
F-5.508361781533517
aF-10.603347444205065
aF0.0
abag3
(g13
g5
Ntp1233
Rp1234
(lp1235
F0.0
aF0.0
aF-0.0048897622837168345
aF0.9999880450409439
ababag3
(g4
g5
Ntp1236
Rp1237
(lp1238
g3
(g9
g5
Ntp1239
Rp1240
(lp1241
F-4.439042740912018
aF-10.622087063300578
aF0.0
abag3
(g13
g5
Ntp1242
Rp1243
(lp1244
F0.0
aF0.0
aF-0.013758288498397726
aF0.9999053502695117
ababag3
(g4
g5
Ntp1245
Rp1246
(lp1247
g3
(g9
g5
Ntp1248
Rp1249
(lp1250
F-3.3889927664526556
aF-10.64895573115851
aF0.0
abag3
(g13
g5
Ntp1251
Rp1252
(lp1253
F0.0
aF0.0
aF-0.007242442812606367
aF0.9999737731671297
ababag3
(g4
g5
Ntp1254
Rp1255
(lp1256
g3
(g9
g5
Ntp1257
Rp1258
(lp1259
F-2.3693937976703467
aF-10.659417440515902
aF0.0
abag3
(g13
g5
Ntp1260
Rp1261
(lp1262
F0.0
aF0.0
aF0.0007025793654617415
aF0.9999997531910871
ababag3
(g4
g5
Ntp1263
Rp1264
(lp1265
g3
(g9
g5
Ntp1266
Rp1267
(lp1268
F-1.5938101058850196
aF-10.658433723015511
aF0.0
abag3
(g13
g5
Ntp1269
Rp1270
(lp1271
F0.0
aF0.0
aF0.0021137440182020053
aF0.9999977660406175
ababag3
(g4
g5
Ntp1272
Rp1273
(lp1274
g3
(g9
g5
Ntp1275
Rp1276
(lp1277
F-0.5322068242615164
aF-10.675152160198296
aF0.0
abag3
(g13
g5
Ntp1278
Rp1279
(lp1280
F0.0
aF0.0
aF-0.01258430333823254
aF0.9999208145195755
ababag3
(g4
g5
Ntp1281
Rp1282
(lp1283
g3
(g9
g5
Ntp1284
Rp1285
(lp1286
F0.5338168519457644
aF-10.709727720527274
aF0.0
abag3
(g13
g5
Ntp1287
Rp1288
(lp1289
F0.0
aF0.0
aF-0.008916020666902046
aF0.999960251497762
ababag3
(g4
g5
Ntp1290
Rp1291
(lp1292
g3
(g9
g5
Ntp1293
Rp1294
(lp1295
F1.6041734466301771
aF-10.724480176839458
aF0.0
abag3
(g13
g5
Ntp1296
Rp1297
(lp1298
F0.0
aF0.0
aF-0.00450283674655466
aF0.9999898621792292
ababag3
(g4
g5
Ntp1299
Rp1300
(lp1301
g3
(g9
g5
Ntp1302
Rp1303
(lp1304
F2.3991073494301705
aF-10.730986332954613
aF0.0
abag3
(g13
g5
Ntp1305
Rp1306
(lp1307
F0.0
aF0.0
aF-0.010877317132834229
aF0.999940840236057
ababag3
(g4
g5
Ntp1308
Rp1309
(lp1310
g3
(g9
g5
Ntp1311
Rp1312
(lp1313
F3.4506204011504034
aF-10.74218336813596
aF0.0
abag3
(g13
g5
Ntp1314
Rp1315
(lp1316
F0.0
aF0.0
aF-0.0044061014000534885
aF0.9999902930881142
ababag3
(g4
g5
Ntp1317
Rp1318
(lp1319
g3
(g9
g5
Ntp1320
Rp1321
(lp1322
F4.49633114134837
aF-10.758786559317889
aF0.0
abag3
(g13
g5
Ntp1323
Rp1324
(lp1325
F0.0
aF0.0
aF-0.006777180610946257
aF0.9999770346477797
ababag3
(g4
g5
Ntp1326
Rp1327
(lp1328
g3
(g9
g5
Ntp1329
Rp1330
(lp1331
F5.555166318365668
aF-10.77234213259696
aF0.0
abag3
(g13
g5
Ntp1332
Rp1333
(lp1334
F0.0
aF0.0
aF-0.0036815583131508517
aF0.9999932230412298
ababag3
(g4
g5
Ntp1335
Rp1336
(lp1337
g3
(g9
g5
Ntp1338
Rp1339
(lp1340
F6.337891226414718
aF-10.78278285710607
aF0.0
abag3
(g13
g5
Ntp1341
Rp1342
(lp1343
F0.0
aF0.0
aF-0.011043599266249482
aF0.9999390175981966
ababag3
(g4
g5
Ntp1344
Rp1345
(lp1346
g3
(g9
g5
Ntp1347
Rp1348
(lp1349
F7.3318642219173675
aF-10.766962300714486
aF0.0
abag3
(g13
g5
Ntp1350
Rp1351
(lp1352
F0.0
aF0.0
aF0.06298854151976147
aF0.9980142502175073
ababag3
(g4
g5
Ntp1353
Rp1354
(lp1355
g3
(g9
g5
Ntp1356
Rp1357
(lp1358
F8.154596890698596
aF-10.313306080841071
aF0.0
abag3
(g13
g5
Ntp1359
Rp1360
(lp1361
F0.0
aF0.0
aF0.40591222411873246
aF0.9139120670562261
ababag3
(g4
g5
Ntp1362
Rp1363
(lp1364
g3
(g9
g5
Ntp1365
Rp1366
(lp1367
F8.529833831142707
aF-9.529066429089019
aF0.0
abag3
(g13
g5
Ntp1368
Rp1369
(lp1370
F0.0
aF0.0
aF0.6307622898227829
aF0.7759761167313847
ababag3
(g4
g5
Ntp1371
Rp1372
(lp1373
g3
(g9
g5
Ntp1374
Rp1375
(lp1376
F8.545080200520282
aF-8.43516959025771
aF0.0
abag3
(g13
g5
Ntp1377
Rp1378
(lp1379
F0.0
aF0.0
aF0.7441369191288885
aF0.6680271293812596
ababag3
(g4
g5
Ntp1380
Rp1381
(lp1382
g3
(g9
g5
Ntp1383
Rp1384
(lp1385
F8.480119081137968
aF-7.624437371952125
aF0.0
abag3
(g13
g5
Ntp1386
Rp1387
(lp1388
F0.0
aF0.0
aF0.7236991362377576
aF0.6901156136537729
ababag3
(g4
g5
Ntp1389
Rp1390
(lp1391
g3
(g9
g5
Ntp1392
Rp1393
(lp1394
F8.51550457160102
aF-6.5653646915010055
aF0.0
abag3
(g13
g5
Ntp1395
Rp1396
(lp1397
F0.0
aF0.0
aF0.6769990696334649
aF0.7359838719125732
ababag3
(g4
g5
Ntp1398
Rp1399
(lp1400
g3
(g9
g5
Ntp1401
Rp1402
(lp1403
F8.655174374805254
aF-5.520837110778966
aF0.0
abag3
(g13
g5
Ntp1404
Rp1405
(lp1406
F0.0
aF0.0
aF0.6313094730720024
aF0.7755310111204778
ababag3
(g4
g5
Ntp1407
Rp1408
(lp1409
g3
(g9
g5
Ntp1410
Rp1411
(lp1412
F9.0672519329398
aF-4.708599667594698
aF0.0
abag3
(g13
g5
Ntp1413
Rp1414
(lp1415
F0.0
aF0.0
aF0.4054702537244626
aF0.9141082394030916
ababag3
(g4
g5
Ntp1416
Rp1417
(lp1418
g3
(g9
g5
Ntp1419
Rp1420
(lp1421
F9.65156088301818
aF-4.266818754394249
aF0.0
abag3
(g13
g5
Ntp1422
Rp1423
(lp1424
F0.0
aF0.0
aF0.20798017919766554
aF0.9781330405731661
ababag3
(g4
g5
Ntp1425
Rp1426
(lp1427
g3
(g9
g5
Ntp1428
Rp1429
(lp1430
F10.089806233468227
aF-4.1208978681684565
aF0.0
abag3
(g13
g5
Ntp1431
Rp1432
(lp1433
F0.0
aF0.0
aF0.08941236041428832
aF0.9959946936631466
ababag3
(g4
g5
Ntp1434
Rp1435
(lp1436
g3
(g9
g5
Ntp1437
Rp1438
(lp1439
F10.089806233468227
aF-4.1208978681684565
aF0.0
abag3
(g13
g5
Ntp1440
Rp1441
(lp1442
F0.0
aF0.0
aF0.08941236041428832
aF0.9959946936631466
ababag3
(g4
g5
Ntp1443
Rp1444
(lp1445
g3
(g9
g5
Ntp1446
Rp1447
(lp1448
F10.302729740026736
aF-4.081311673146482
aF0.0
abag3
(g13
g5
Ntp1449
Rp1450
(lp1451
F0.0
aF0.0
aF0.0996582370662866
aF0.9950217262878434
ababag3
(g4
g5
Ntp1452
Rp1453
(lp1454
g3
(g9
g5
Ntp1455
Rp1456
(lp1457
F10.302729740026736
aF-4.081311673146482
aF0.0
abag3
(g13
g5
Ntp1458
Rp1459
(lp1460
F0.0
aF0.0
aF0.0996582370662866
aF0.9950217262878434
ababag3
(g4
g5
Ntp1461
Rp1462
(lp1463
g3
(g9
g5
Ntp1464
Rp1465
(lp1466
F10.302729740026736
aF-4.081311673146482
aF0.0
abag3
(g13
g5
Ntp1467
Rp1468
(lp1469
F0.0
aF0.0
aF0.0996582370662866
aF0.9950217262878434
ababag3
(g4
g5
Ntp1470
Rp1471
(lp1472
g3
(g9
g5
Ntp1473
Rp1474
(lp1475
F10.426203940558313
aF-4.067294949699442
aF0.0
abag3
(g13
g5
Ntp1476
Rp1477
(lp1478
F0.0
aF0.0
aF-0.09635395663504426
aF0.995347132934421
ababaaa(lp1479
I3
aF46.080000000000155
a(lp1480
g3
(g4
g5
Ntp1481
Rp1482
(lp1483
g3
(g9
g5
Ntp1484
Rp1485
(lp1486
F-17.779997494096385
aF-6.7111631247691035
aF0.0
abag3
(g13
g5
Ntp1487
Rp1488
(lp1489
F0.0
aF0.0
aF0.6185631949747337
aF0.7857350531971
ababag3
(g4
g5
Ntp1490
Rp1491
(lp1492
g3
(g9
g5
Ntp1493
Rp1494
(lp1495
F-17.785351282041564
aF-6.7127199168623015
aF0.0
abag3
(g13
g5
Ntp1496
Rp1497
(lp1498
F0.0
aF0.0
aF0.4962314371262749
aF0.8681902791482936
ababag3
(g4
g5
Ntp1499
Rp1500
(lp1501
g3
(g9
g5
Ntp1502
Rp1503
(lp1504
F-17.747511802710985
aF-6.726690444873218
aF0.0
abag3
(g13
g5
Ntp1505
Rp1506
(lp1507
F0.0
aF0.0
aF-0.2700958769666362
aF0.9628334317241086
ababag3
(g4
g5
Ntp1508
Rp1509
(lp1510
g3
(g9
g5
Ntp1511
Rp1512
(lp1513
F-17.628128906723386
aF-7.2589590106846975
aF0.0
abag3
(g13
g5
Ntp1514
Rp1515
(lp1516
F0.0
aF0.0
aF-0.7258114222374303
aF0.6878937267846529
ababag3
(g4
g5
Ntp1517
Rp1518
(lp1519
g3
(g9
g5
Ntp1520
Rp1521
(lp1522
F-17.854478964306715
aF-8.255329902494884
aF0.0
abag3
(g13
g5
Ntp1523
Rp1524
(lp1525
F0.0
aF0.0
aF-0.7951832766173947
aF0.6063691586715338
ababag3
(g4
g5
Ntp1526
Rp1527
(lp1528
g3
(g9
g5
Ntp1529
Rp1530
(lp1531
F-17.951735157542096
aF-9.00995844521936
aF0.0
abag3
(g13
g5
Ntp1532
Rp1533
(lp1534
F0.0
aF0.0
aF-0.6995341589440083
aF0.714599160698149
ababag3
(g4
g5
Ntp1535
Rp1536
(lp1537
g3
(g9
g5
Ntp1538
Rp1539
(lp1540
F-17.750823035357442
aF-9.989601559477407
aF0.0
abag3
(g13
g5
Ntp1541
Rp1542
(lp1543
F0.0
aF0.0
aF-0.5168703700988372
aF0.856063677838215
ababag3
(g4
g5
Ntp1544
Rp1545
(lp1546
g3
(g9
g5
Ntp1547
Rp1548
(lp1549
F-17.139768732208246
aF-10.538703116312265
aF0.0
abag3
(g13
g5
Ntp1550
Rp1551
(lp1552
F0.0
aF0.0
aF-0.19682091862549855
aF0.9804394555460397
ababag3
(g4
g5
Ntp1553
Rp1554
(lp1555
g3
(g9
g5
Ntp1556
Rp1557
(lp1558
F-16.13926413361756
aF-10.662352725887551
aF0.0
abag3
(g13
g5
Ntp1559
Rp1560
(lp1561
F0.0
aF0.0
aF0.04977335774124599
aF0.9987605382969242
ababag3
(g4
g5
Ntp1562
Rp1563
(lp1564
g3
(g9
g5
Ntp1565
Rp1566
(lp1567
F-15.090058183486642
aF-10.535159424701883
aF0.0
abag3
(g13
g5
Ntp1568
Rp1569
(lp1570
F0.0
aF0.0
aF0.04845569661911016
aF0.998825332811076
ababag3
(g4
g5
Ntp1571
Rp1572
(lp1573
g3
(g9
g5
Ntp1574
Rp1575
(lp1576
F-14.021206976901508
aF-10.472713821813905
aF0.0
abag3
(g13
g5
Ntp1577
Rp1578
(lp1579
F0.0
aF0.0
aF0.01523640642571103
aF0.9998839192222418
ababag3
(g4
g5
Ntp1580
Rp1581
(lp1582
g3
(g9
g5
Ntp1583
Rp1584
(lp1585
F-13.230922125748865
aF-10.46251670083875
aF0.0
abag3
(g13
g5
Ntp1586
Rp1587
(lp1588
F0.0
aF0.0
aF0.0021758829570575158
aF0.9999976327638767
ababag3
(g4
g5
Ntp1589
Rp1590
(lp1591
g3
(g9
g5
Ntp1592
Rp1593
(lp1594
F-12.18460108588265
aF-10.470213504830593
aF0.0
abag3
(g13
g5
Ntp1595
Rp1596
(lp1597
F0.0
aF0.0
aF-0.007748149934098859
aF0.9999699826357783
ababag3
(g4
g5
Ntp1598
Rp1599
(lp1600
g3
(g9
g5
Ntp1601
Rp1602
(lp1603
F-11.133363946972246
aF-10.489301382130693
aF0.0
abag3
(g13
g5
Ntp1604
Rp1605
(lp1606
F0.0
aF0.0
aF-0.019529927515298265
aF0.9998092727771868
ababag3
(g4
g5
Ntp1607
Rp1608
(lp1609
g3
(g9
g5
Ntp1610
Rp1611
(lp1612
F-10.062313030548795
aF-10.528489234939995
aF0.0
abag3
(g13
g5
Ntp1613
Rp1614
(lp1615
F0.0
aF0.0
aF-0.0199620046220543
aF0.9998007393333279
ababag3
(g4
g5
Ntp1616
Rp1617
(lp1618
g3
(g9
g5
Ntp1619
Rp1620
(lp1621
F-9.270321820407885
aF-10.556548107724897
aF0.0
abag3
(g13
g5
Ntp1622
Rp1623
(lp1624
F0.0
aF0.0
aF-0.013612097512117352
aF0.9999073511087517
ababag3
(g4
g5
Ntp1625
Rp1626
(lp1627
g3
(g9
g5
Ntp1628
Rp1629
(lp1630
F-8.237765467695159
aF-10.575240020852897
aF0.0
abag3
(g13
g5
Ntp1631
Rp1632
(lp1633
F0.0
aF0.0
aF-0.013225832559852694
aF0.9999125348514732
ababag3
(g4
g5
Ntp1634
Rp1635
(lp1636
g3
(g9
g5
Ntp1637
Rp1638
(lp1639
F-7.18751636174231
aF-10.602891527136398
aF0.0
abag3
(g13
g5
Ntp1640
Rp1641
(lp1642
F0.0
aF0.0
aF-0.009490952880467859
aF0.9999549598924047
ababag3
(g4
g5
Ntp1643
Rp1644
(lp1645
g3
(g9
g5
Ntp1646
Rp1647
(lp1648
F-6.116627293430972
aF-10.612368217454655
aF0.0
abag3
(g13
g5
Ntp1649
Rp1650
(lp1651
F0.0
aF0.0
aF-0.0014974287459758912
aF0.9999988788529469
ababag3
(g4
g5
Ntp1652
Rp1653
(lp1654
g3
(g9
g5
Ntp1655
Rp1656
(lp1657
F-5.3149139959285385
aF-10.612127202692879
aF0.0
abag3
(g13
g5
Ntp1658
Rp1659
(lp1660
F0.0
aF0.0
aF-0.00016080548145922774
aF0.9999999870707985
ababag3
(g4
g5
Ntp1661
Rp1662
(lp1663
g3
(g9
g5
Ntp1664
Rp1665
(lp1666
F-4.2476177174200656
aF-10.633312077928183
aF0.0
abag3
(g13
g5
Ntp1667
Rp1668
(lp1669
F0.0
aF0.0
aF-0.015684728132948182
aF0.9998769870856092
ababag3
(g4
g5
Ntp1670
Rp1671
(lp1672
g3
(g9
g5
Ntp1673
Rp1674
(lp1675
F-3.2116251955415316
aF-10.655448497507988
aF0.0
abag3
(g13
g5
Ntp1676
Rp1677
(lp1678
F0.0
aF0.0
aF-0.006796293602527443
aF0.999976904929943
ababag3
(g4
g5
Ntp1679
Rp1680
(lp1681
g3
(g9
g5
Ntp1682
Rp1683
(lp1684
F-2.1896808071142733
aF-10.653919395384367
aF0.0
abag3
(g13
g5
Ntp1685
Rp1686
(lp1687
F0.0
aF0.0
aF-0.0014210976770491184
aF0.9999989902401863
ababag3
(g4
g5
Ntp1688
Rp1689
(lp1690
g3
(g9
g5
Ntp1691
Rp1692
(lp1693
F-1.3982835620626277
aF-10.654462852837117
aF0.0
abag3
(g13
g5
Ntp1694
Rp1695
(lp1696
F0.0
aF0.0
aF-0.005600081307473124
aF0.9999843194217346
ababag3
(g4
g5
Ntp1697
Rp1698
(lp1699
g3
(g9
g5
Ntp1700
Rp1701
(lp1702
F-0.3414795254125322
aF-10.681799611432464
aF0.0
abag3
(g13
g5
Ntp1703
Rp1704
(lp1705
F0.0
aF0.0
aF-0.014916229006445804
aF0.9998887468674839
ababag3
(g4
g5
Ntp1706
Rp1707
(lp1708
g3
(g9
g5
Ntp1709
Rp1710
(lp1711
F0.7281866845991859
aF-10.70474680293881
aF0.0
abag3
(g13
g5
Ntp1712
Rp1713
(lp1714
F0.0
aF0.0
aF-0.011871831521794805
aF0.9999295273249601
ababag3
(g4
g5
Ntp1715
Rp1716
(lp1717
g3
(g9
g5
Ntp1718
Rp1719
(lp1720
F1.8007412870989608
aF-10.724497790607337
aF0.0
abag3
(g13
g5
Ntp1721
Rp1722
(lp1723
F0.0
aF0.0
aF-0.007726413517224954
aF0.9999701508215937
ababag3
(g4
g5
Ntp1724
Rp1725
(lp1726
g3
(g9
g5
Ntp1727
Rp1728
(lp1729
F2.5963089428575894
aF-10.73588965551508
aF0.0
abag3
(g13
g5
Ntp1730
Rp1731
(lp1732
F0.0
aF0.0
aF-0.008702226136858298
aF0.9999621349132491
ababag3
(g4
g5
Ntp1733
Rp1734
(lp1735
g3
(g9
g5
Ntp1736
Rp1737
(lp1738
F3.6438626317765213
aF-10.739839239991023
aF0.0
abag3
(g13
g5
Ntp1739
Rp1740
(lp1741
F0.0
aF0.0
aF-0.005391287162095801
aF0.9999854669057625
ababag3
(g4
g5
Ntp1742
Rp1743
(lp1744
g3
(g9
g5
Ntp1745
Rp1746
(lp1747
F4.691889093398915
aF-10.759194809235641
aF0.0
abag3
(g13
g5
Ntp1748
Rp1749
(lp1750
F0.0
aF0.0
aF-0.00846864282253231
aF0.9999641404014168
ababag3
(g4
g5
Ntp1751
Rp1752
(lp1753
g3
(g9
g5
Ntp1754
Rp1755
(lp1756
F5.734422670891369
aF-10.77772358821457
aF0.0
abag3
(g13
g5
Ntp1757
Rp1758
(lp1759
F0.0
aF0.0
aF-0.00672674757827563
aF0.9999773751775678
ababag3
(g4
g5
Ntp1760
Rp1761
(lp1762
g3
(g9
g5
Ntp1763
Rp1764
(lp1765
F6.519952396965214
aF-10.790300648741393
aF0.0
abag3
(g13
g5
Ntp1766
Rp1767
(lp1768
F0.0
aF0.0
aF-0.0034693921508577347
aF0.9999939816409414
ababag3
(g4
g5
Ntp1769
Rp1770
(lp1771
g3
(g9
g5
Ntp1772
Rp1773
(lp1774
F7.522900654815255
aF-10.74917282306748
aF0.0
abag3
(g13
g5
Ntp1775
Rp1776
(lp1777
F0.0
aF0.0
aF0.08089345033583858
aF0.9967227546779311
ababag3
(g4
g5
Ntp1778
Rp1779
(lp1780
g3
(g9
g5
Ntp1781
Rp1782
(lp1783
F8.185935367110549
aF-10.403476572035885
aF0.0
abag3
(g13
g5
Ntp1784
Rp1785
(lp1786
F0.0
aF0.0
aF0.3827080627696594
aF0.9238693298790118
ababag3
(g4
g5
Ntp1787
Rp1788
(lp1789
g3
(g9
g5
Ntp1790
Rp1791
(lp1792
F8.603518091227011
aF-9.4426457902768
aF0.0
abag3
(g13
g5
Ntp1793
Rp1794
(lp1795
F0.0
aF0.0
aF0.6688653976570638
aF0.743383534803575
ababag3
(g4
g5
Ntp1796
Rp1797
(lp1798
g3
(g9
g5
Ntp1799
Rp1800
(lp1801
F8.583460135789075
aF-8.38252646791901
aF0.0
abag3
(g13
g5
Ntp1802
Rp1803
(lp1804
F0.0
aF0.0
aF0.7391169076606555
aF0.673577164703607
ababag3
(g4
g5
Ntp1805
Rp1806
(lp1807
g3
(g9
g5
Ntp1808
Rp1809
(lp1810
F8.557576122396625
aF-7.3153431301329785
aF0.0
abag3
(g13
g5
Ntp1811
Rp1812
(lp1813
F0.0
aF0.0
aF0.7008664304514608
aF0.7132925393316739
ababag3
(g4
g5
Ntp1814
Rp1815
(lp1816
g3
(g9
g5
Ntp1817
Rp1818
(lp1819
F8.591868620797378
aF-6.513556337900659
aF0.0
abag3
(g13
g5
Ntp1820
Rp1821
(lp1822
F0.0
aF0.0
aF0.6861368482266017
aF0.7274724912363802
ababag3
(g4
g5
Ntp1823
Rp1824
(lp1825
g3
(g9
g5
Ntp1826
Rp1827
(lp1828
F8.705892137056805
aF-5.4633007470505754
aF0.0
abag3
(g13
g5
Ntp1829
Rp1830
(lp1831
F0.0
aF0.0
aF0.6364849124874382
aF0.771289152118619
ababag3
(g4
g5
Ntp1832
Rp1833
(lp1834
g3
(g9
g5
Ntp1835
Rp1836
(lp1837
F8.961148046602672
aF-4.763350873970274
aF0.0
abag3
(g13
g5
Ntp1838
Rp1839
(lp1840
F0.0
aF0.0
aF0.46394103176506535
aF0.8858660841485956
ababag3
(g4
g5
Ntp1841
Rp1842
(lp1843
g3
(g9
g5
Ntp1844
Rp1845
(lp1846
F9.689203281707657
aF-4.1714124318814765
aF0.0
abag3
(g13
g5
Ntp1847
Rp1848
(lp1849
F0.0
aF0.0
aF0.18378184461471678
aF0.9829670562078935
ababag3
(g4
g5
Ntp1850
Rp1851
(lp1852
g3
(g9
g5
Ntp1853
Rp1854
(lp1855
F10.13990588284859
aF-4.068432621800645
aF0.0
abag3
(g13
g5
Ntp1856
Rp1857
(lp1858
F0.0
aF0.0
aF0.0014739730213114547
aF0.9999989137011762
ababag3
(g4
g5
Ntp1859
Rp1860
(lp1861
g3
(g9
g5
Ntp1862
Rp1863
(lp1864
F10.13990588284859
aF-4.068432621800645
aF0.0
abag3
(g13
g5
Ntp1865
Rp1866
(lp1867
F0.0
aF0.0
aF0.0014739730213114547
aF0.9999989137011762
ababag3
(g4
g5
Ntp1868
Rp1869
(lp1870
g3
(g9
g5
Ntp1871
Rp1872
(lp1873
F10.349392249432228
aF-4.073231166771899
aF0.0
abag3
(g13
g5
Ntp1874
Rp1875
(lp1876
F0.0
aF0.0
aF-0.017852620341431848
aF0.9998406292739582
ababag3
(g4
g5
Ntp1877
Rp1878
(lp1879
g3
(g9
g5
Ntp1880
Rp1881
(lp1882
F10.349392249432228
aF-4.073231166771899
aF0.0
abag3
(g13
g5
Ntp1883
Rp1884
(lp1885
F0.0
aF0.0
aF-0.017852620341431848
aF0.9998406292739582
ababag3
(g4
g5
Ntp1886
Rp1887
(lp1888
g3
(g9
g5
Ntp1889
Rp1890
(lp1891
F10.349392249432228
aF-4.073231166771899
aF0.0
abag3
(g13
g5
Ntp1892
Rp1893
(lp1894
F0.0
aF0.0
aF-0.017852620341431848
aF0.9998406292739582
ababaaa(lp1895
I3
aF45.122
a(lp1896
g3
(g4
g5
Ntp1897
Rp1898
(lp1899
g3
(g9
g5
Ntp1900
Rp1901
(lp1902
F-17.778665468462144
aF-6.7069129441781445
aF0.0
abag3
(g13
g5
Ntp1903
Rp1904
(lp1905
F0.0
aF0.0
aF0.6144913684295896
aF0.7889235439036728
ababag3
(g4
g5
Ntp1906
Rp1907
(lp1908
g3
(g9
g5
Ntp1909
Rp1910
(lp1911
F-17.78601444388494
aF-6.7214212642875175
aF0.0
abag3
(g13
g5
Ntp1912
Rp1913
(lp1914
F0.0
aF0.0
aF0.4922080482374342
aF0.8704775914693587
ababag3
(g4
g5
Ntp1915
Rp1916
(lp1917
g3
(g9
g5
Ntp1918
Rp1919
(lp1920
F-17.773150222587283
aF-6.740391653366407
aF0.0
abag3
(g13
g5
Ntp1921
Rp1922
(lp1923
F0.0
aF0.0
aF-0.2799528258452994
aF0.9600137578708086
ababag3
(g4
g5
Ntp1924
Rp1925
(lp1926
g3
(g9
g5
Ntp1927
Rp1928
(lp1929
F-17.711250202563313
aF-6.9740244587617815
aF0.0
abag3
(g13
g5
Ntp1930
Rp1931
(lp1932
F0.0
aF0.0
aF-0.7048764316917028
aF0.7093301178193213
ababag3
(g4
g5
Ntp1933
Rp1934
(lp1935
g3
(g9
g5
Ntp1936
Rp1937
(lp1938
F-17.864391174906253
aF-7.976783626437155
aF0.0
abag3
(g13
g5
Ntp1939
Rp1940
(lp1941
F0.0
aF0.0
aF-0.7645863374675951
aF0.6445213204835731
ababag3
(g4
g5
Ntp1942
Rp1943
(lp1944
g3
(g9
g5
Ntp1945
Rp1946
(lp1947
F-17.934555139270348
aF-9.00215961985286
aF0.0
abag3
(g13
g5
Ntp1948
Rp1949
(lp1950
F0.0
aF0.0
aF-0.687327584739767
aF0.726347569181448
ababag3
(g4
g5
Ntp1951
Rp1952
(lp1953
g3
(g9
g5
Ntp1954
Rp1955
(lp1956
F-17.818490688933586
aF-9.743608350832085
aF0.0
abag3
(g13
g5
Ntp1957
Rp1958
(lp1959
F0.0
aF0.0
aF-0.6156817822233313
aF0.7879948876980755
ababag3
(g4
g5
Ntp1960
Rp1961
(lp1962
g3
(g9
g5
Ntp1963
Rp1964
(lp1965
F-17.310438878259777
aF-10.431853840700873
aF0.0
abag3
(g13
g5
Ntp1966
Rp1967
(lp1968
F0.0
aF0.0
aF-0.28698430157214944
aF0.9579352852104079
ababag3
(g4
g5
Ntp1969
Rp1970
(lp1971
g3
(g9
g5
Ntp1972
Rp1973
(lp1974
F-16.38031003572511
aF-10.720017360132257
aF0.0
abag3
(g13
g5
Ntp1975
Rp1976
(lp1977
F0.0
aF0.0
aF-0.0069645771456192974
aF0.9999757470384882
ababag3
(g4
g5
Ntp1978
Rp1979
(lp1980
g3
(g9
g5
Ntp1981
Rp1982
(lp1983
F-15.348547237887626
aF-10.572822754257414
aF0.0
abag3
(g13
g5
Ntp1984
Rp1985
(lp1986
F0.0
aF0.0
aF0.09855696481569294
aF0.9951314107625777
ababag3
(g4
g5
Ntp1987
Rp1988
(lp1989
g3
(g9
g5
Ntp1990
Rp1991
(lp1992
F-14.29636531316165
aF-10.450041426896204
aF0.0
abag3
(g13
g5
Ntp1993
Rp1994
(lp1995
F0.0
aF0.0
aF0.024653227989367466
aF0.9996960629859979
ababag3
(g4
g5
Ntp1996
Rp1997
(lp1998
g3
(g9
g5
Ntp1999
Rp2000
(lp2001
F-13.506409350657883
aF-10.431232295898074
aF0.0
abag3
(g13
g5
Ntp2002
Rp2003
(lp2004
F0.0
aF0.0
aF-0.0017161674846127423
aF0.999998527383498
ababag3
(g4
g5
Ntp2005
Rp2006
(lp2007
g3
(g9
g5
Ntp2008
Rp2009
(lp2010
F-12.470714326857225
aF-10.44280113339044
aF0.0
abag3
(g13
g5
Ntp2011
Rp2012
(lp2013
F0.0
aF0.0
aF-0.012211726233100928
aF0.9999254340911665
ababag3
(g4
g5
Ntp2014
Rp2015
(lp2016
g3
(g9
g5
Ntp2017
Rp2018
(lp2019
F-11.438079127222037
aF-10.472287246792538
aF0.0
abag3
(g13
g5
Ntp2020
Rp2021
(lp2022
F0.0
aF0.0
aF-0.019321480261629696
aF0.9998133227760567
ababag3
(g4
g5
Ntp2023
Rp2024
(lp2025
g3
(g9
g5
Ntp2026
Rp2027
(lp2028
F-10.380995993354958
aF-10.51634150939954
aF0.0
abag3
(g13
g5
Ntp2029
Rp2030
(lp2031
F0.0
aF0.0
aF-0.020499203689302827
aF0.9997898692465854
ababag3
(g4
g5
Ntp2032
Rp2033
(lp2034
g3
(g9
g5
Ntp2035
Rp2036
(lp2037
F-9.601912656510319
aF-10.542690084158757
aF0.0
abag3
(g13
g5
Ntp2038
Rp2039
(lp2040
F0.0
aF0.0
aF-0.015221041757335046
aF0.9998841532336741
ababag3
(g4
g5
Ntp2041
Rp2042
(lp2043
g3
(g9
g5
Ntp2044
Rp2045
(lp2046
F-8.572011686272393
aF-10.560469754225087
aF0.0
abag3
(g13
g5
Ntp2047
Rp2048
(lp2049
F0.0
aF0.0
aF-0.006884742288520655
aF0.9999762998809625
ababag3
(g4
g5
Ntp2050
Rp2051
(lp2052
g3
(g9
g5
Ntp2053
Rp2054
(lp2055
F-7.539745232894101
aF-10.579772725539193
aF0.0
abag3
(g13
g5
Ntp2056
Rp2057
(lp2058
F0.0
aF0.0
aF-0.011585206327898522
aF0.9999328892452433
ababag3
(g4
g5
Ntp2059
Rp2060
(lp2061
g3
(g9
g5
Ntp2062
Rp2063
(lp2064
F-6.483029060193429
aF-10.588893120601847
aF0.0
abag3
(g13
g5
Ntp2065
Rp2066
(lp2067
F0.0
aF0.0
aF-0.0056196532819604095
aF0.9999842096238273
ababag3
(g4
g5
Ntp2068
Rp2069
(lp2070
g3
(g9
g5
Ntp2071
Rp2072
(lp2073
F-5.685282643464536
aF-10.595806647490397
aF0.0
abag3
(g13
g5
Ntp2074
Rp2075
(lp2076
F0.0
aF0.0
aF-0.008255003349846569
aF0.9999659268793583
ababag3
(g4
g5
Ntp2077
Rp2078
(lp2079
g3
(g9
g5
Ntp2080
Rp2081
(lp2082
F-4.627971481583442
aF-10.620260050444948
aF0.0
abag3
(g13
g5
Ntp2083
Rp2084
(lp2085
F0.0
aF0.0
aF-0.008056918760707197
aF0.9999675425032971
ababag3
(g4
g5
Ntp2086
Rp2087
(lp2088
g3
(g9
g5
Ntp2089
Rp2090
(lp2091
F-3.5660474652953784
aF-10.643355935860663
aF0.0
abag3
(g13
g5
Ntp2092
Rp2093
(lp2094
F0.0
aF0.0
aF-0.00982791548107868
aF0.9999517048724387
ababag3
(g4
g5
Ntp2095
Rp2096
(lp2097
g3
(g9
g5
Ntp2098
Rp2099
(lp2100
F-2.5343011082184503
aF-10.650705874219103
aF0.0
abag3
(g13
g5
Ntp2101
Rp2102
(lp2103
F0.0
aF0.0
aF0.0010981917085990188
aF0.9999993969873038
ababag3
(g4
g5
Ntp2104
Rp2105
(lp2106
g3
(g9
g5
Ntp2107
Rp2108
(lp2109
F-1.7615577468683334
aF-10.645351623100835
aF0.0
abag3
(g13
g5
Ntp2110
Rp2111
(lp2112
F0.0
aF0.0
aF0.0005898079543833455
aF0.9999998260632733
ababag3
(g4
g5
Ntp2113
Rp2114
(lp2115
g3
(g9
g5
Ntp2116
Rp2117
(lp2118
F-0.7001007653792465
aF-10.662923169404804
aF0.0
abag3
(g13
g5
Ntp2119
Rp2120
(lp2121
F0.0
aF0.0
aF-0.010290324731401011
aF0.9999470532067797
ababag3
(g4
g5
Ntp2122
Rp2123
(lp2124
g3
(g9
g5
Ntp2125
Rp2126
(lp2127
F0.3688322703972586
aF-10.69444550086645
aF0.0
abag3
(g13
g5
Ntp2128
Rp2129
(lp2130
F0.0
aF0.0
aF-0.008388605531755805
aF0.9999648150296252
ababag3
(g4
g5
Ntp2131
Rp2132
(lp2133
g3
(g9
g5
Ntp2134
Rp2135
(lp2136
F1.1628623699406282
aF-10.705243663558647
aF0.0
abag3
(g13
g5
Ntp2137
Rp2138
(lp2139
F0.0
aF0.0
aF-0.006902763641424983
aF0.9999761756432554
ababag3
(g4
g5
Ntp2140
Rp2141
(lp2142
g3
(g9
g5
Ntp2143
Rp2144
(lp2145
F2.2219946150992964
aF-10.723015525146414
aF0.0
abag3
(g13
g5
Ntp2146
Rp2147
(lp2148
F0.0
aF0.0
aF-0.010015751986534243
aF0.9999498410981144
ababag3
(g4
g5
Ntp2149
Rp2150
(lp2151
g3
(g9
g5
Ntp2152
Rp2153
(lp2154
F3.2675642768280206
aF-10.741101927797734
aF0.0
abag3
(g13
g5
Ntp2155
Rp2156
(lp2157
F0.0
aF0.0
aF-0.0099299193171192
aF0.9999506971357915
ababag3
(g4
g5
Ntp2158
Rp2159
(lp2160
g3
(g9
g5
Ntp2161
Rp2162
(lp2163
F4.312085177777542
aF-10.754332304888958
aF0.0
abag3
(g13
g5
Ntp2164
Rp2165
(lp2166
F0.0
aF0.0
aF-0.0046105233104502446
aF0.9999893714809192
ababag3
(g4
g5
Ntp2167
Rp2168
(lp2169
g3
(g9
g5
Ntp2170
Rp2171
(lp2172
F5.095416735213235
aF-10.755010213032213
aF0.0
abag3
(g13
g5
Ntp2173
Rp2174
(lp2175
F0.0
aF0.0
aF-0.003232885767590432
aF0.9999947742111525
ababag3
(g4
g5
Ntp2176
Rp2177
(lp2178
g3
(g9
g5
Ntp2179
Rp2180
(lp2181
F6.141178631490158
aF-10.774415127164872
aF0.0
abag3
(g13
g5
Ntp2182
Rp2183
(lp2184
F0.0
aF0.0
aF-0.008080699682454008
aF0.9999673506133298
ababag3
(g4
g5
Ntp2185
Rp2186
(lp2187
g3
(g9
g5
Ntp2188
Rp2189
(lp2190
F7.160774641595507
aF-10.794689456311295
aF0.0
abag3
(g13
g5
Ntp2191
Rp2192
(lp2193
F0.0
aF0.0
aF-0.002585065013894987
aF0.9999966587138549
ababag3
(g4
g5
Ntp2194
Rp2195
(lp2196
g3
(g9
g5
Ntp2197
Rp2198
(lp2199
F7.8721013201549574
aF-10.678934105819692
aF0.0
abag3
(g13
g5
Ntp2200
Rp2201
(lp2202
F0.0
aF0.0
aF0.21223464756189747
aF0.9772187341502808
ababag3
(g4
g5
Ntp2203
Rp2204
(lp2205
g3
(g9
g5
Ntp2206
Rp2207
(lp2208
F8.539074743732971
aF-9.853385281707599
aF0.0
abag3
(g13
g5
Ntp2209
Rp2210
(lp2211
F0.0
aF0.0
aF0.5905465040298944
aF0.8070036100155128
ababag3
(g4
g5
Ntp2212
Rp2213
(lp2214
g3
(g9
g5
Ntp2215
Rp2216
(lp2217
F8.596282302278382
aF-8.847714960384765
aF0.0
abag3
(g13
g5
Ntp2218
Rp2219
(lp2220
F0.0
aF0.0
aF0.7623093125870473
aF0.6472128799267389
ababag3
(g4
g5
Ntp2221
Rp2222
(lp2223
g3
(g9
g5
Ntp2224
Rp2225
(lp2226
F8.482039362253634
aF-8.057785975517632
aF0.0
abag3
(g13
g5
Ntp2227
Rp2228
(lp2229
F0.0
aF0.0
aF0.7439398266773103
aF0.6682466118756858
ababag3
(g4
g5
Ntp2230
Rp2231
(lp2232
g3
(g9
g5
Ntp2233
Rp2234
(lp2235
F8.47157398709185
aF-6.98409926180657
aF0.0
abag3
(g13
g5
Ntp2236
Rp2237
(lp2238
F0.0
aF0.0
aF0.6877749623155458
aF0.7259239637950035
ababag3
(g4
g5
Ntp2239
Rp2240
(lp2241
g3
(g9
g5
Ntp2242
Rp2243
(lp2244
F8.58466342957464
aF-5.938030148041143
aF0.0
abag3
(g13
g5
Ntp2245
Rp2246
(lp2247
F0.0
aF0.0
aF0.6340956261780084
aF0.7732546390820552
ababag3
(g4
g5
Ntp2248
Rp2249
(lp2250
g3
(g9
g5
Ntp2251
Rp2252
(lp2253
F8.879066460560498
aF-4.947093585674559
aF0.0
abag3
(g13
g5
Ntp2254
Rp2255
(lp2256
F0.0
aF0.0
aF0.5146978789582445
aF0.8573716191919839
ababag3
(g4
g5
Ntp2257
Rp2258
(lp2259
g3
(g9
g5
Ntp2260
Rp2261
(lp2262
F9.465474880664026
aF-4.316426734554076
aF0.0
abag3
(g13
g5
Ntp2263
Rp2264
(lp2265
F0.0
aF0.0
aF0.2803280253398229
aF0.9599042651270363
ababag3
(g4
g5
Ntp2266
Rp2267
(lp2268
g3
(g9
g5
Ntp2269
Rp2270
(lp2271
F9.958592493053812
aF-4.112357461095276
aF0.0
abag3
(g13
g5
Ntp2272
Rp2273
(lp2274
F0.0
aF0.0
aF0.10420351169765811
aF0.9945559954823439
ababag3
(g4
g5
Ntp2275
Rp2276
(lp2277
g3
(g9
g5
Ntp2278
Rp2279
(lp2280
F10.161976235728725
aF-4.0842256226862
aF0.0
abag3
(g13
g5
Ntp2281
Rp2282
(lp2283
F0.0
aF0.0
aF0.04143931376502854
aF0.9991410227163549
ababag3
(g4
g5
Ntp2284
Rp2285
(lp2286
g3
(g9
g5
Ntp2287
Rp2288
(lp2289
F10.161976235728725
aF-4.0842256226862
aF0.0
abag3
(g13
g5
Ntp2290
Rp2291
(lp2292
F0.0
aF0.0
aF0.04143931376502854
aF0.9991410227163549
ababag3
(g4
g5
Ntp2293
Rp2294
(lp2295
g3
(g9
g5
Ntp2296
Rp2297
(lp2298
F10.161976235728725
aF-4.0842256226862
aF0.0
abag3
(g13
g5
Ntp2299
Rp2300
(lp2301
F0.0
aF0.0
aF0.04143931376502854
aF0.9991410227163549
ababaaa.