(lp0
(lp1
I3
aF36.20100000000002
a(lp2
ccopy_reg
_reconstructor
p3
(cgeometry_msgs.msg._Pose
Pose
p4
c__builtin__
object
p5
Ntp6
Rp7
(lp8
g3
(cgeometry_msgs.msg._Point
Point
p9
g5
Ntp10
Rp11
(lp12
F-17.780220959668547
aF-6.705436283112236
aF0.0
abag3
(cgeometry_msgs.msg._Quaternion
Quaternion
p13
g5
Ntp14
Rp15
(lp16
F0.0
aF0.0
aF0.6144502101927882
aF0.788955600267872
ababag3
(g4
g5
Ntp17
Rp18
(lp19
g3
(g9
g5
Ntp20
Rp21
(lp22
F-17.789498759490815
aF-6.719410706628276
aF0.0
abag3
(g13
g5
Ntp23
Rp24
(lp25
F0.0
aF0.0
aF0.7484657615564285
aF0.6631734341616494
ababag3
(g4
g5
Ntp26
Rp27
(lp28
g3
(g9
g5
Ntp29
Rp30
(lp31
F-17.81556605328003
aF-6.744568004316453
aF0.0
abag3
(g13
g5
Ntp32
Rp33
(lp34
F0.0
aF0.0
aF-0.9915150488963161
aF0.12999195287453688
ababag3
(g4
g5
Ntp35
Rp36
(lp37
g3
(g9
g5
Ntp38
Rp39
(lp40
F-18.033779426745905
aF-7.089274368425451
aF0.0
abag3
(g13
g5
Ntp41
Rp42
(lp43
F0.0
aF0.0
aF-0.7791089989654818
aF0.6268884810961236
ababag3
(g4
g5
Ntp44
Rp45
(lp46
g3
(g9
g5
Ntp47
Rp48
(lp49
F-18.068841225990344
aF-8.023742036310919
aF0.0
abag3
(g13
g5
Ntp50
Rp51
(lp52
F0.0
aF0.0
aF-0.6933357659597186
aF0.7206146790352319
ababag3
(g4
g5
Ntp53
Rp54
(lp55
g3
(g9
g5
Ntp56
Rp57
(lp58
F-18.01990155064938
aF-9.071150748857834
aF0.0
abag3
(g13
g5
Ntp59
Rp60
(lp61
F0.0
aF0.0
aF-0.6607722859504249
aF0.7505864281479181
ababag3
(g4
g5
Ntp62
Rp63
(lp64
g3
(g9
g5
Ntp65
Rp66
(lp67
F-17.79964926380565
aF-9.776405014878652
aF0.0
abag3
(g13
g5
Ntp68
Rp69
(lp70
F0.0
aF0.0
aF-0.5150659848829797
aF0.857150530080059
ababag3
(g4
g5
Ntp71
Rp72
(lp73
g3
(g9
g5
Ntp74
Rp75
(lp76
F-17.17432985060695
aF-10.464656226151883
aF0.0
abag3
(g13
g5
Ntp77
Rp78
(lp79
F0.0
aF0.0
aF-0.24625212114449413
aF0.969205805199204
ababag3
(g4
g5
Ntp80
Rp81
(lp82
g3
(g9
g5
Ntp83
Rp84
(lp85
F-16.269055521273454
aF-10.68229698102451
aF0.0
abag3
(g13
g5
Ntp86
Rp87
(lp88
F0.0
aF0.0
aF0.006651248987983889
aF0.9999778801988071
ababag3
(g4
g5
Ntp89
Rp90
(lp91
g3
(g9
g5
Ntp92
Rp93
(lp94
F-15.214041305530566
aF-10.56194767240334
aF0.0
abag3
(g13
g5
Ntp95
Rp96
(lp97
F0.0
aF0.0
aF0.07563231285219801
aF0.9971357747331239
ababag3
(g4
g5
Ntp98
Rp99
(lp100
g3
(g9
g5
Ntp101
Rp102
(lp103
F-14.166568823902152
aF-10.45902852784156
aF0.0
abag3
(g13
g5
Ntp104
Rp105
(lp106
F0.0
aF0.0
aF0.021477860680019036
aF0.9997693241446297
ababag3
(g4
g5
Ntp107
Rp108
(lp109
g3
(g9
g5
Ntp110
Rp111
(lp112
F-13.366766099247958
aF-10.439871759613
aF0.0
abag3
(g13
g5
Ntp113
Rp114
(lp115
F0.0
aF0.0
aF0.0013736391910150899
aF0.9999990565572414
ababag3
(g4
g5
Ntp116
Rp117
(lp118
g3
(g9
g5
Ntp119
Rp120
(lp121
F-12.391939508350816
aF-10.321530756956776
aF0.0
abag3
(g13
g5
Ntp122
Rp123
(lp124
F0.0
aF0.0
aF0.201320493469133
aF0.9795254253511466
ababag3
(g4
g5
Ntp125
Rp126
(lp127
g3
(g9
g5
Ntp128
Rp129
(lp130
F-11.671586050067752
aF-9.693406208750025
aF0.0
abag3
(g13
g5
Ntp131
Rp132
(lp133
F0.0
aF0.0
aF0.5060653335084696
aF0.862495146781106
ababag3
(g4
g5
Ntp134
Rp135
(lp136
g3
(g9
g5
Ntp137
Rp138
(lp139
F-11.445630100085184
aF-8.84608782938898
aF0.0
abag3
(g13
g5
Ntp140
Rp141
(lp142
F0.0
aF0.0
aF0.6904185326380639
aF0.7234101532256115
ababag3
(g4
g5
Ntp143
Rp144
(lp145
g3
(g9
g5
Ntp146
Rp147
(lp148
F-11.49102582877701
aF-7.799160738258648
aF0.0
abag3
(g13
g5
Ntp149
Rp150
(lp151
F0.0
aF0.0
aF0.7311803484774737
aF0.6821842111925196
ababag3
(g4
g5
Ntp152
Rp153
(lp154
g3
(g9
g5
Ntp155
Rp156
(lp157
F-11.541277682175624
aF-6.771353450021269
aF0.0
abag3
(g13
g5
Ntp158
Rp159
(lp160
F0.0
aF0.0
aF0.7086541250373477
aF0.7055560438884718
ababag3
(g4
g5
Ntp161
Rp162
(lp163
g3
(g9
g5
Ntp164
Rp165
(lp166
F-11.498156927994673
aF-5.988838061228632
aF0.0
abag3
(g13
g5
Ntp167
Rp168
(lp169
F0.0
aF0.0
aF0.6678511248562873
aF0.7442948844565518
ababag3
(g4
g5
Ntp170
Rp171
(lp172
g3
(g9
g5
Ntp173
Rp174
(lp175
F-11.322478083425832
aF-5.037364557827025
aF0.0
abag3
(g13
g5
Ntp176
Rp177
(lp178
F0.0
aF0.0
aF0.5805696304478486
aF0.8142106018725429
ababag3
(g4
g5
Ntp179
Rp180
(lp181
g3
(g9
g5
Ntp182
Rp183
(lp184
F-10.783496309879824
aF-4.225708353802897
aF0.0
abag3
(g13
g5
Ntp185
Rp186
(lp187
F0.0
aF0.0
aF0.3692455456855741
aF0.9293318712878422
ababag3
(g4
g5
Ntp188
Rp189
(lp190
g3
(g9
g5
Ntp191
Rp192
(lp193
F-9.941359029143161
aF-3.6228895910916954
aF0.0
abag3
(g13
g5
Ntp194
Rp195
(lp196
F0.0
aF0.0
aF0.2903648231416892
aF0.9569160200779876
ababag3
(g4
g5
Ntp197
Rp198
(lp199
g3
(g9
g5
Ntp200
Rp201
(lp202
F-9.304678665000331
aF-2.888631034010016
aF0.0
abag3
(g13
g5
Ntp203
Rp204
(lp205
F0.0
aF0.0
aF0.5422484449338467
aF0.8402182002116028
ababag3
(g4
g5
Ntp206
Rp207
(lp208
g3
(g9
g5
Ntp209
Rp210
(lp211
F-9.11428608025981
aF-1.960351535031735
aF0.0
abag3
(g13
g5
Ntp212
Rp213
(lp214
F0.0
aF0.0
aF0.7049629789806221
aF0.709244103441662
ababag3
(g4
g5
Ntp215
Rp216
(lp217
g3
(g9
g5
Ntp218
Rp219
(lp220
F-9.15743879539494
aF-1.1812385207280445
aF0.0
abag3
(g13
g5
Ntp221
Rp222
(lp223
F0.0
aF0.0
aF0.7363075539351733
aF0.6766470172977945
ababag3
(g4
g5
Ntp224
Rp225
(lp226
g3
(g9
g5
Ntp227
Rp228
(lp229
F-9.193424496873673
aF-0.14070324908500711
aF0.0
abag3
(g13
g5
Ntp230
Rp231
(lp232
F0.0
aF0.0
aF0.7057687691237245
aF0.7084422661936417
ababag3
(g4
g5
Ntp233
Rp234
(lp235
g3
(g9
g5
Ntp236
Rp237
(lp238
F-9.199995455738337
aF0.8769268917818892
aF0.0
abag3
(g13
g5
Ntp239
Rp240
(lp241
F0.0
aF0.0
aF0.7691053015805227
aF0.6391220815155216
ababag3
(g4
g5
Ntp242
Rp243
(lp244
g3
(g9
g5
Ntp245
Rp246
(lp247
F-9.672164253450989
aF1.6971745916698664
aF0.0
abag3
(g13
g5
Ntp248
Rp249
(lp250
F0.0
aF0.0
aF0.9329061177179722
aF0.3601196683387079
ababag3
(g4
g5
Ntp251
Rp252
(lp253
g3
(g9
g5
Ntp254
Rp255
(lp256
F-10.3265266819313
aF2.054211202277752
aF0.0
abag3
(g13
g5
Ntp257
Rp258
(lp259
F0.0
aF0.0
aF0.9890902913816343
aF0.14731054101656738
ababag3
(g4
g5
Ntp260
Rp261
(lp262
g3
(g9
g5
Ntp263
Rp264
(lp265
F-11.497106510277485
aF2.1453007765690897
aF0.0
abag3
(g13
g5
Ntp266
Rp267
(lp268
F0.0
aF0.0
aF-0.9999191478003241
aF0.01271604743124408
ababag3
(g4
g5
Ntp269
Rp270
(lp271
g3
(g9
g5
Ntp272
Rp273
(lp274
F-12.29473544878215
aF2.123731781452102
aF0.0
abag3
(g13
g5
Ntp275
Rp276
(lp277
F0.0
aF0.0
aF-0.9998865139035129
aF0.015065168896503618
ababag3
(g4
g5
Ntp278
Rp279
(lp280
g3
(g9
g5
Ntp281
Rp282
(lp283
F-13.35566476215283
aF2.096193182293081
aF0.0
abag3
(g13
g5
Ntp284
Rp285
(lp286
F0.0
aF0.0
aF-0.9999951155095265
aF0.003125533088757745
ababag3
(g4
g5
Ntp287
Rp288
(lp289
g3
(g9
g5
Ntp290
Rp291
(lp292
F-13.908050155212893
aF2.1213450146501556
aF0.0
abag3
(g13
g5
Ntp293
Rp294
(lp295
F0.0
aF0.0
aF0.9973472212726009
aF0.07279093501131575
ababag3
(g4
g5
Ntp296
Rp297
(lp298
g3
(g9
g5
Ntp299
Rp300
(lp301
F-14.200347655238694
aF2.194336581299563
aF0.0
abag3
(g13
g5
Ntp302
Rp303
(lp304
F0.0
aF0.0
aF0.9834607132025892
aF0.18112157681252275
ababag3
(g4
g5
Ntp305
Rp306
(lp307
g3
(g9
g5
Ntp308
Rp309
(lp310
F-14.400631234176137
aF2.3171573829282432
aF0.0
abag3
(g13
g5
Ntp311
Rp312
(lp313
F0.0
aF0.0
aF0.9487136047717166
aF0.3161368313263343
ababag3
(g4
g5
Ntp314
Rp315
(lp316
g3
(g9
g5
Ntp317
Rp318
(lp319
F-14.400631234176137
aF2.3171573829282432
aF0.0
abag3
(g13
g5
Ntp320
Rp321
(lp322
F0.0
aF0.0
aF0.9487136047717166
aF0.3161368313263343
ababag3
(g4
g5
Ntp323
Rp324
(lp325
g3
(g9
g5
Ntp326
Rp327
(lp328
F-14.400631234176137
aF2.3171573829282432
aF0.0
abag3
(g13
g5
Ntp329
Rp330
(lp331
F0.0
aF0.0
aF0.9487136047717166
aF0.3161368313263343
ababag3
(g4
g5
Ntp332
Rp333
(lp334
g3
(g9
g5
Ntp335
Rp336
(lp337
F-14.455667439813034
aF2.3646033619095514
aF0.0
abag3
(g13
g5
Ntp338
Rp339
(lp340
F0.0
aF0.0
aF0.8397319697498306
aF0.5430011224482594
ababaaa(lp341
I3
aF42.44499999999999
a(lp342
g3
(g4
g5
Ntp343
Rp344
(lp345
g3
(g9
g5
Ntp346
Rp347
(lp348
F-17.77845696537941
aF-6.706129448491996
aF0.0
abag3
(g13
g5
Ntp349
Rp350
(lp351
F0.0
aF0.0
aF0.6152169329283016
aF0.7883578663515026
ababag3
(g4
g5
Ntp352
Rp353
(lp354
g3
(g9
g5
Ntp355
Rp356
(lp357
F-17.782355854391234
aF-6.71104164790167
aF0.0
abag3
(g13
g5
Ntp358
Rp359
(lp360
F0.0
aF0.0
aF0.5106208754792059
aF0.8598059790004076
ababag3
(g4
g5
Ntp361
Rp362
(lp363
g3
(g9
g5
Ntp364
Rp365
(lp366
F-17.6435232746461
aF-6.749764698182448
aF0.0
abag3
(g13
g5
Ntp367
Rp368
(lp369
F0.0
aF0.0
aF-0.2594677839709221
aF0.9657517636956294
ababag3
(g4
g5
Ntp370
Rp371
(lp372
g3
(g9
g5
Ntp373
Rp374
(lp375
F-17.346181964722184
aF-7.428098596674784
aF0.0
abag3
(g13
g5
Ntp376
Rp377
(lp378
F0.0
aF0.0
aF-0.6783114189412516
aF0.7347745361224121
ababag3
(g4
g5
Ntp379
Rp380
(lp381
g3
(g9
g5
Ntp382
Rp383
(lp384
F-17.486105934064724
aF-8.131034126784405
aF0.0
abag3
(g13
g5
Ntp385
Rp386
(lp387
F0.0
aF0.0
aF-0.8663144119440598
aF0.49949908874593346
ababag3
(g4
g5
Ntp388
Rp389
(lp390
g3
(g9
g5
Ntp391
Rp392
(lp393
F-17.62142254134703
aF-8.342606202257125
aF0.0
abag3
(g13
g5
Ntp394
Rp395
(lp396
F0.0
aF0.0
aF-0.8834452543741196
aF0.46853439844246986
ababag3
(g4
g5
Ntp397
Rp398
(lp399
g3
(g9
g5
Ntp400
Rp401
(lp402
F-17.62142254134703
aF-8.342606202257125
aF0.0
abag3
(g13
g5
Ntp403
Rp404
(lp405
F0.0
aF0.0
aF-0.8834452543741196
aF0.46853439844246986
ababag3
(g4
g5
Ntp406
Rp407
(lp408
g3
(g9
g5
Ntp409
Rp410
(lp411
F-17.62142254134703
aF-8.342606202257125
aF0.0
abag3
(g13
g5
Ntp412
Rp413
(lp414
F0.0
aF0.0
aF-0.8834452543741196
aF0.46853439844246986
ababag3
(g4
g5
Ntp415
Rp416
(lp417
g3
(g9
g5
Ntp418
Rp419
(lp420
F-17.62142254134703
aF-8.342606202257125
aF0.0
abag3
(g13
g5
Ntp421
Rp422
(lp423
F0.0
aF0.0
aF-0.8834452543741196
aF0.46853439844246986
ababag3
(g4
g5
Ntp424
Rp425
(lp426
g3
(g9
g5
Ntp427
Rp428
(lp429
F-17.808130868285012
aF-8.575072146028727
aF0.0
abag3
(g13
g5
Ntp430
Rp431
(lp432
F0.0
aF0.0
aF-0.8619109838625856
aF0.5070596176950298
ababag3
(g4
g5
Ntp433
Rp434
(lp435
g3
(g9
g5
Ntp436
Rp437
(lp438
F-17.98083569259822
aF-9.5483870566381
aF0.0
abag3
(g13
g5
Ntp439
Rp440
(lp441
F0.0
aF0.0
aF-0.6967475507728347
aF0.7173164228512102
ababag3
(g4
g5
Ntp442
Rp443
(lp444
g3
(g9
g5
Ntp445
Rp446
(lp447
F-17.64992752691073
aF-10.320363744811125
aF0.0
abag3
(g13
g5
Ntp448
Rp449
(lp450
F0.0
aF0.0
aF-0.3675609130239816
aF0.9299994490412223
ababag3
(g4
g5
Ntp451
Rp452
(lp453
g3
(g9
g5
Ntp454
Rp455
(lp456
F-17.030751289934607
aF-10.6697693177214
aF0.0
abag3
(g13
g5
Ntp457
Rp458
(lp459
F0.0
aF0.0
aF-0.13963850428404265
aF0.9902025490379811
ababag3
(g4
g5
Ntp460
Rp461
(lp462
g3
(g9
g5
Ntp463
Rp464
(lp465
F-16.04535358904513
aF-10.707028846608885
aF0.0
abag3
(g13
g5
Ntp466
Rp467
(lp468
F0.0
aF0.0
aF0.10945728417592601
aF0.9939915004369155
ababag3
(g4
g5
Ntp469
Rp470
(lp471
g3
(g9
g5
Ntp472
Rp473
(lp474
F-15.009204435913416
aF-10.495577323195434
aF0.0
abag3
(g13
g5
Ntp475
Rp476
(lp477
F0.0
aF0.0
aF0.0662006597600805
aF0.9978063302301354
ababag3
(g4
g5
Ntp478
Rp479
(lp480
g3
(g9
g5
Ntp481
Rp482
(lp483
F-13.949296067230131
aF-10.421129310945256
aF0.0
abag3
(g13
g5
Ntp484
Rp485
(lp486
F0.0
aF0.0
aF0.0028480514404016655
aF0.999995944293272
ababag3
(g4
g5
Ntp487
Rp488
(lp489
g3
(g9
g5
Ntp490
Rp491
(lp492
F-13.152112958908264
aF-10.420674635539541
aF0.0
abag3
(g13
g5
Ntp493
Rp494
(lp495
F0.0
aF0.0
aF-0.006236094337806772
aF0.9999805553746582
ababag3
(g4
g5
Ntp496
Rp497
(lp498
g3
(g9
g5
Ntp499
Rp500
(lp501
F-12.106475990896397
aF-10.278853493626404
aF0.0
abag3
(g13
g5
Ntp502
Rp503
(lp504
F0.0
aF0.0
aF0.23760521611346488
aF0.9713618076060401
ababag3
(g4
g5
Ntp505
Rp506
(lp507
g3
(g9
g5
Ntp508
Rp509
(lp510
F-11.545422030898472
aF-9.676209570911373
aF0.0
abag3
(g13
g5
Ntp511
Rp512
(lp513
F0.0
aF0.0
aF0.5299290531845301
aF0.8480419792621987
ababag3
(g4
g5
Ntp514
Rp515
(lp516
g3
(g9
g5
Ntp517
Rp518
(lp519
F-11.38003818455836
aF-8.708376496269118
aF0.0
abag3
(g13
g5
Ntp520
Rp521
(lp522
F0.0
aF0.0
aF0.7350347692515117
aF0.6780294152847478
ababag3
(g4
g5
Ntp523
Rp524
(lp525
g3
(g9
g5
Ntp526
Rp527
(lp528
F-11.484015726880989
aF-7.931848634488132
aF0.0
abag3
(g13
g5
Ntp529
Rp530
(lp531
F0.0
aF0.0
aF0.7508471674961025
aF0.6604759882562573
ababag3
(g4
g5
Ntp532
Rp533
(lp534
g3
(g9
g5
Ntp535
Rp536
(lp537
F-11.56461035435284
aF-6.892739502100928
aF0.0
abag3
(g13
g5
Ntp538
Rp539
(lp540
F0.0
aF0.0
aF0.718113093287974
aF0.6959264222950423
ababag3
(g4
g5
Ntp541
Rp542
(lp543
g3
(g9
g5
Ntp544
Rp545
(lp546
F-11.495059780293916
aF-5.855347774828421
aF0.0
abag3
(g13
g5
Ntp547
Rp548
(lp549
F0.0
aF0.0
aF0.6453732792457525
aF0.7638673513350233
ababag3
(g4
g5
Ntp550
Rp551
(lp552
g3
(g9
g5
Ntp553
Rp554
(lp555
F-11.222747758325065
aF-4.861214783608755
aF0.0
abag3
(g13
g5
Ntp556
Rp557
(lp558
F0.0
aF0.0
aF0.5351395920723653
aF0.8447636456409702
ababag3
(g4
g5
Ntp559
Rp560
(lp561
g3
(g9
g5
Ntp562
Rp563
(lp564
F-10.792225171598764
aF-4.247593986340364
aF0.0
abag3
(g13
g5
Ntp565
Rp566
(lp567
F0.0
aF0.0
aF0.380790729400777
aF0.9246612462964068
ababag3
(g4
g5
Ntp568
Rp569
(lp570
g3
(g9
g5
Ntp571
Rp572
(lp573
F-9.947935768657842
aF-3.663387559115557
aF0.0
abag3
(g13
g5
Ntp574
Rp575
(lp576
F0.0
aF0.0
aF0.3043442431420872
aF0.9525621143349499
ababag3
(g4
g5
Ntp577
Rp578
(lp579
g3
(g9
g5
Ntp580
Rp581
(lp582
F-9.348021665789263
aF-2.832992113409363
aF0.0
abag3
(g13
g5
Ntp583
Rp584
(lp585
F0.0
aF0.0
aF0.5654775688157555
aF0.8247636747373289
ababag3
(g4
g5
Ntp586
Rp587
(lp588
g3
(g9
g5
Ntp589
Rp590
(lp591
F-9.186040848731938
aF-2.0806879581544107
aF0.0
abag3
(g13
g5
Ntp592
Rp593
(lp594
F0.0
aF0.0
aF0.6805585270308254
aF0.7326937227011251
ababag3
(g4
g5
Ntp595
Rp596
(lp597
g3
(g9
g5
Ntp598
Rp599
(lp600
F-9.18612996162801
aF-1.0388920247599909
aF0.0
abag3
(g13
g5
Ntp601
Rp602
(lp603
F0.0
aF0.0
aF0.7265867922672036
aF0.6870746926665656
ababag3
(g4
g5
Ntp604
Rp605
(lp606
g3
(g9
g5
Ntp607
Rp608
(lp609
F-9.204497173248697
aF0.003964727552315602
aF0.0
abag3
(g13
g5
Ntp610
Rp611
(lp612
F0.0
aF0.0
aF0.6984473079034886
aF0.7156614828830522
ababag3
(g4
g5
Ntp613
Rp614
(lp615
g3
(g9
g5
Ntp616
Rp617
(lp618
F-9.206145712435326
aF1.0356374095799026
aF0.0
abag3
(g13
g5
Ntp619
Rp620
(lp621
F0.0
aF0.0
aF0.7598253250066092
aF0.6501272763687129
ababag3
(g4
g5
Ntp622
Rp623
(lp624
g3
(g9
g5
Ntp625
Rp626
(lp627
F-9.638181406792533
aF1.7860642842306154
aF0.0
abag3
(g13
g5
Ntp628
Rp629
(lp630
F0.0
aF0.0
aF0.9393882954932427
aF0.3428551155959325
ababag3
(g4
g5
Ntp631
Rp632
(lp633
g3
(g9
g5
Ntp634
Rp635
(lp636
F-10.296529904349649
aF2.094003310206966
aF0.0
abag3
(g13
g5
Ntp637
Rp638
(lp639
F0.0
aF0.0
aF0.9934705511997789
aF0.11408884213106683
ababag3
(g4
g5
Ntp640
Rp641
(lp642
g3
(g9
g5
Ntp643
Rp644
(lp645
F-11.336101849686926
aF2.1247089849645637
aF0.0
abag3
(g13
g5
Ntp646
Rp647
(lp648
F0.0
aF0.0
aF-0.9997040247066091
aF0.024328234325724615
ababag3
(g4
g5
Ntp649
Rp650
(lp651
g3
(g9
g5
Ntp652
Rp653
(lp654
F-12.396253417993291
aF2.0902504704994245
aF0.0
abag3
(g13
g5
Ntp655
Rp656
(lp657
F0.0
aF0.0
aF-0.9999731747350538
aF0.007324603081237268
ababag3
(g4
g5
Ntp658
Rp659
(lp660
g3
(g9
g5
Ntp661
Rp662
(lp663
F-13.448175283188432
aF2.1107746769553746
aF0.0
abag3
(g13
g5
Ntp664
Rp665
(lp666
F0.0
aF0.0
aF0.9989178185044263
aF0.046510126578607355
ababag3
(g4
g5
Ntp667
Rp668
(lp669
g3
(g9
g5
Ntp670
Rp671
(lp672
F-13.920269353549699
aF2.174654084678688
aF0.0
abag3
(g13
g5
Ntp673
Rp674
(lp675
F0.0
aF0.0
aF0.9946907521179937
aF0.10290922043694603
ababag3
(g4
g5
Ntp676
Rp677
(lp678
g3
(g9
g5
Ntp679
Rp680
(lp681
F-14.149204818705154
aF2.2293241303492963
aF0.0
abag3
(g13
g5
Ntp682
Rp683
(lp684
F0.0
aF0.0
aF0.9900425351281802
aF0.14076852857427358
ababag3
(g4
g5
Ntp685
Rp686
(lp687
g3
(g9
g5
Ntp688
Rp689
(lp690
F-14.339776495905204
aF2.295970243553612
aF0.0
abag3
(g13
g5
Ntp691
Rp692
(lp693
F0.0
aF0.0
aF0.9847360367259795
aF0.1740544109559144
ababag3
(g4
g5
Ntp694
Rp695
(lp696
g3
(g9
g5
Ntp697
Rp698
(lp699
F-14.339776495905204
aF2.295970243553612
aF0.0
abag3
(g13
g5
Ntp700
Rp701
(lp702
F0.0
aF0.0
aF0.9847360367259795
aF0.1740544109559144
ababag3
(g4
g5
Ntp703
Rp704
(lp705
g3
(g9
g5
Ntp706
Rp707
(lp708
F-14.339776495905204
aF2.295970243553612
aF0.0
abag3
(g13
g5
Ntp709
Rp710
(lp711
F0.0
aF0.0
aF0.9847360367259795
aF0.1740544109559144
ababag3
(g4
g5
Ntp712
Rp713
(lp714
g3
(g9
g5
Ntp715
Rp716
(lp717
F-14.445735398317321
aF2.337152569893451
aF0.0
abag3
(g13
g5
Ntp718
Rp719
(lp720
F0.0
aF0.0
aF0.9506815890162263
aF0.310168528876775
ababag3
(g4
g5
Ntp721
Rp722
(lp723
g3
(g9
g5
Ntp724
Rp725
(lp726
F-14.46458074783607
aF2.3601583256551413
aF0.0
abag3
(g13
g5
Ntp727
Rp728
(lp729
F0.0
aF0.0
aF0.8362354014406528
aF0.5483706350429336
ababaaa(lp730
I4
aF44.76000000000022
a(lp731
g3
(g4
g5
Ntp732
Rp733
(lp734
g3
(g9
g5
Ntp735
Rp736
(lp737
F-17.778889244004215
aF-6.708423996623266
aF0.0
abag3
(g13
g5
Ntp738
Rp739
(lp740
F0.0
aF0.0
aF0.6143660424781475
aF0.7890211441081532
ababag3
(g4
g5
Ntp741
Rp742
(lp743
g3
(g9
g5
Ntp744
Rp745
(lp746
F-17.785422393142294
aF-6.7159578149081085
aF0.0
abag3
(g13
g5
Ntp747
Rp748
(lp749
F0.0
aF0.0
aF0.5127688677870215
aF0.8585266962817266
ababag3
(g4
g5
Ntp750
Rp751
(lp752
g3
(g9
g5
Ntp753
Rp754
(lp755
F-17.771280495149536
aF-6.7287654914167945
aF0.0
abag3
(g13
g5
Ntp756
Rp757
(lp758
F0.0
aF0.0
aF-0.05564015187211929
aF0.9984508868740853
ababag3
(g4
g5
Ntp759
Rp760
(lp761
g3
(g9
g5
Ntp762
Rp763
(lp764
F-17.599591754085075
aF-6.94164575703131
aF0.0
abag3
(g13
g5
Ntp765
Rp766
(lp767
F0.0
aF0.0
aF-0.5456447723870947
aF0.8380165764271227
ababag3
(g4
g5
Ntp768
Rp769
(lp770
g3
(g9
g5
Ntp771
Rp772
(lp773
F-17.468897130121544
aF-7.888145208410157
aF0.0
abag3
(g13
g5
Ntp774
Rp775
(lp776
F0.0
aF0.0
aF-0.7599600362930402
aF0.649969801788884
ababag3
(g4
g5
Ntp777
Rp778
(lp779
g3
(g9
g5
Ntp780
Rp781
(lp782
F-17.527105573692072
aF-8.133952325350181
aF0.0
abag3
(g13
g5
Ntp783
Rp784
(lp785
F0.0
aF0.0
aF-0.822982594186244
aF0.5680665891130019
ababag3
(g4
g5
Ntp786
Rp787
(lp788
g3
(g9
g5
Ntp789
Rp790
(lp791
F-17.527105573692072
aF-8.133952325350181
aF0.0
abag3
(g13
g5
Ntp792
Rp793
(lp794
F0.0
aF0.0
aF-0.822982594186244
aF0.5680665891130019
ababag3
(g4
g5
Ntp795
Rp796
(lp797
g3
(g9
g5
Ntp798
Rp799
(lp800
F-17.527105573692072
aF-8.133952325350181
aF0.0
abag3
(g13
g5
Ntp801
Rp802
(lp803
F0.0
aF0.0
aF-0.822982594186244
aF0.5680665891130019
ababag3
(g4
g5
Ntp804
Rp805
(lp806
g3
(g9
g5
Ntp807
Rp808
(lp809
F-17.527105573692072
aF-8.133952325350181
aF0.0
abag3
(g13
g5
Ntp810
Rp811
(lp812
F0.0
aF0.0
aF-0.822982594186244
aF0.5680665891130019
ababag3
(g4
g5
Ntp813
Rp814
(lp815
g3
(g9
g5
Ntp816
Rp817
(lp818
F-17.527105573692072
aF-8.133952325350181
aF0.0
abag3
(g13
g5
Ntp819
Rp820
(lp821
F0.0
aF0.0
aF-0.822982594186244
aF0.5680665891130019
ababag3
(g4
g5
Ntp822
Rp823
(lp824
g3
(g9
g5
Ntp825
Rp826
(lp827
F-17.565934387931957
aF-8.30912163906041
aF0.0
abag3
(g13
g5
Ntp828
Rp829
(lp830
F0.0
aF0.0
aF-0.8839087369359394
aF0.46765943245946856
ababag3
(g4
g5
Ntp831
Rp832
(lp833
g3
(g9
g5
Ntp834
Rp835
(lp836
F-17.565934387931957
aF-8.30912163906041
aF0.0
abag3
(g13
g5
Ntp837
Rp838
(lp839
F0.0
aF0.0
aF-0.8839087369359394
aF0.46765943245946856
ababag3
(g4
g5
Ntp840
Rp841
(lp842
g3
(g9
g5
Ntp843
Rp844
(lp845
F-17.565934387931957
aF-8.30912163906041
aF0.0
abag3
(g13
g5
Ntp846
Rp847
(lp848
F0.0
aF0.0
aF-0.8839087369359394
aF0.46765943245946856
ababag3
(g4
g5
Ntp849
Rp850
(lp851
g3
(g9
g5
Ntp852
Rp853
(lp854
F-17.565934387931957
aF-8.30912163906041
aF0.0
abag3
(g13
g5
Ntp855
Rp856
(lp857
F0.0
aF0.0
aF-0.8839087369359394
aF0.46765943245946856
ababag3
(g4
g5
Ntp858
Rp859
(lp860
g3
(g9
g5
Ntp861
Rp862
(lp863
F-17.565934387931957
aF-8.30912163906041
aF0.0
abag3
(g13
g5
Ntp864
Rp865
(lp866
F0.0
aF0.0
aF-0.8839087369359394
aF0.46765943245946856
ababag3
(g4
g5
Ntp867
Rp868
(lp869
g3
(g9
g5
Ntp870
Rp871
(lp872
F-17.565934387931957
aF-8.30912163906041
aF0.0
abag3
(g13
g5
Ntp873
Rp874
(lp875
F0.0
aF0.0
aF-0.8839087369359394
aF0.46765943245946856
ababag3
(g4
g5
Ntp876
Rp877
(lp878
g3
(g9
g5
Ntp879
Rp880
(lp881
F-17.565934387931957
aF-8.30912163906041
aF0.0
abag3
(g13
g5
Ntp882
Rp883
(lp884
F0.0
aF0.0
aF-0.8839087369359394
aF0.46765943245946856
ababag3
(g4
g5
Ntp885
Rp886
(lp887
g3
(g9
g5
Ntp888
Rp889
(lp890
F-17.565934387931957
aF-8.30912163906041
aF0.0
abag3
(g13
g5
Ntp891
Rp892
(lp893
F0.0
aF0.0
aF-0.8839087369359394
aF0.46765943245946856
ababag3
(g4
g5
Ntp894
Rp895
(lp896
g3
(g9
g5
Ntp897
Rp898
(lp899
F-17.565934387931957
aF-8.30912163906041
aF0.0
abag3
(g13
g5
Ntp900
Rp901
(lp902
F0.0
aF0.0
aF-0.8839087369359394
aF0.46765943245946856
ababag3
(g4
g5
Ntp903
Rp904
(lp905
g3
(g9
g5
Ntp906
Rp907
(lp908
F-17.565934387931957
aF-8.30912163906041
aF0.0
abag3
(g13
g5
Ntp909
Rp910
(lp911
F0.0
aF0.0
aF-0.8839087369359394
aF0.46765943245946856
ababag3
(g4
g5
Ntp912
Rp913
(lp914
g3
(g9
g5
Ntp915
Rp916
(lp917
F-17.565934387931957
aF-8.30912163906041
aF0.0
abag3
(g13
g5
Ntp918
Rp919
(lp920
F0.0
aF0.0
aF-0.8839087369359394
aF0.46765943245946856
ababag3
(g4
g5
Ntp921
Rp922
(lp923
g3
(g9
g5
Ntp924
Rp925
(lp926
F-17.565934387931957
aF-8.30912163906041
aF0.0
abag3
(g13
g5
Ntp927
Rp928
(lp929
F0.0
aF0.0
aF-0.8839087369359394
aF0.46765943245946856
ababag3
(g4
g5
Ntp930
Rp931
(lp932
g3
(g9
g5
Ntp933
Rp934
(lp935
F-17.565934387931957
aF-8.30912163906041
aF0.0
abag3
(g13
g5
Ntp936
Rp937
(lp938
F0.0
aF0.0
aF-0.8839087369359394
aF0.46765943245946856
ababag3
(g4
g5
Ntp939
Rp940
(lp941
g3
(g9
g5
Ntp942
Rp943
(lp944
F-17.565934387931957
aF-8.30912163906041
aF0.0
abag3
(g13
g5
Ntp945
Rp946
(lp947
F0.0
aF0.0
aF-0.8839087369359394
aF0.46765943245946856
ababag3
(g4
g5
Ntp948
Rp949
(lp950
g3
(g9
g5
Ntp951
Rp952
(lp953
F-17.565934387931957
aF-8.30912163906041
aF0.0
abag3
(g13
g5
Ntp954
Rp955
(lp956
F0.0
aF0.0
aF-0.8839087369359394
aF0.46765943245946856
ababag3
(g4
g5
Ntp957
Rp958
(lp959
g3
(g9
g5
Ntp960
Rp961
(lp962
F-17.565934387931957
aF-8.30912163906041
aF0.0
abag3
(g13
g5
Ntp963
Rp964
(lp965
F0.0
aF0.0
aF-0.8839087369359394
aF0.46765943245946856
ababag3
(g4
g5
Ntp966
Rp967
(lp968
g3
(g9
g5
Ntp969
Rp970
(lp971
F-17.565934387931957
aF-8.30912163906041
aF0.0
abag3
(g13
g5
Ntp972
Rp973
(lp974
F0.0
aF0.0
aF-0.8839087369359394
aF0.46765943245946856
ababag3
(g4
g5
Ntp975
Rp976
(lp977
g3
(g9
g5
Ntp978
Rp979
(lp980
F-17.565934387931957
aF-8.30912163906041
aF0.0
abag3
(g13
g5
Ntp981
Rp982
(lp983
F0.0
aF0.0
aF-0.8839087369359394
aF0.46765943245946856
ababag3
(g4
g5
Ntp984
Rp985
(lp986
g3
(g9
g5
Ntp987
Rp988
(lp989
F-17.565934387931957
aF-8.30912163906041
aF0.0
abag3
(g13
g5
Ntp990
Rp991
(lp992
F0.0
aF0.0
aF-0.8839087369359394
aF0.46765943245946856
ababag3
(g4
g5
Ntp993
Rp994
(lp995
g3
(g9
g5
Ntp996
Rp997
(lp998
F-17.565934387931957
aF-8.30912163906041
aF0.0
abag3
(g13
g5
Ntp999
Rp1000
(lp1001
F0.0
aF0.0
aF-0.8839087369359394
aF0.46765943245946856
ababag3
(g4
g5
Ntp1002
Rp1003
(lp1004
g3
(g9
g5
Ntp1005
Rp1006
(lp1007
F-17.565934387931957
aF-8.30912163906041
aF0.0
abag3
(g13
g5
Ntp1008
Rp1009
(lp1010
F0.0
aF0.0
aF-0.8839087369359394
aF0.46765943245946856
ababag3
(g4
g5
Ntp1011
Rp1012
(lp1013
g3
(g9
g5
Ntp1014
Rp1015
(lp1016
F-17.565934387931957
aF-8.30912163906041
aF0.0
abag3
(g13
g5
Ntp1017
Rp1018
(lp1019
F0.0
aF0.0
aF-0.8839087369359394
aF0.46765943245946856
ababag3
(g4
g5
Ntp1020
Rp1021
(lp1022
g3
(g9
g5
Ntp1023
Rp1024
(lp1025
F-17.565934387931957
aF-8.30912163906041
aF0.0
abag3
(g13
g5
Ntp1026
Rp1027
(lp1028
F0.0
aF0.0
aF-0.8839087369359394
aF0.46765943245946856
ababag3
(g4
g5
Ntp1029
Rp1030
(lp1031
g3
(g9
g5
Ntp1032
Rp1033
(lp1034
F-17.565934387931957
aF-8.30912163906041
aF0.0
abag3
(g13
g5
Ntp1035
Rp1036
(lp1037
F0.0
aF0.0
aF-0.8839087369359394
aF0.46765943245946856
ababag3
(g4
g5
Ntp1038
Rp1039
(lp1040
g3
(g9
g5
Ntp1041
Rp1042
(lp1043
F-17.565934387931957
aF-8.30912163906041
aF0.0
abag3
(g13
g5
Ntp1044
Rp1045
(lp1046
F0.0
aF0.0
aF-0.8839087369359394
aF0.46765943245946856
ababag3
(g4
g5
Ntp1047
Rp1048
(lp1049
g3
(g9
g5
Ntp1050
Rp1051
(lp1052
F-17.565934387931957
aF-8.30912163906041
aF0.0
abag3
(g13
g5
Ntp1053
Rp1054
(lp1055
F0.0
aF0.0
aF-0.8839087369359394
aF0.46765943245946856
ababag3
(g4
g5
Ntp1056
Rp1057
(lp1058
g3
(g9
g5
Ntp1059
Rp1060
(lp1061
F-17.565934387931957
aF-8.30912163906041
aF0.0
abag3
(g13
g5
Ntp1062
Rp1063
(lp1064
F0.0
aF0.0
aF-0.8839087369359394
aF0.46765943245946856
ababag3
(g4
g5
Ntp1065
Rp1066
(lp1067
g3
(g9
g5
Ntp1068
Rp1069
(lp1070
F-17.565934387931957
aF-8.30912163906041
aF0.0
abag3
(g13
g5
Ntp1071
Rp1072
(lp1073
F0.0
aF0.0
aF-0.8839087369359394
aF0.46765943245946856
ababag3
(g4
g5
Ntp1074
Rp1075
(lp1076
g3
(g9
g5
Ntp1077
Rp1078
(lp1079
F-17.565934387931957
aF-8.30912163906041
aF0.0
abag3
(g13
g5
Ntp1080
Rp1081
(lp1082
F0.0
aF0.0
aF-0.8839087369359394
aF0.46765943245946856
ababag3
(g4
g5
Ntp1083
Rp1084
(lp1085
g3
(g9
g5
Ntp1086
Rp1087
(lp1088
F-17.565934387931957
aF-8.30912163906041
aF0.0
abag3
(g13
g5
Ntp1089
Rp1090
(lp1091
F0.0
aF0.0
aF-0.8839087369359394
aF0.46765943245946856
ababag3
(g4
g5
Ntp1092
Rp1093
(lp1094
g3
(g9
g5
Ntp1095
Rp1096
(lp1097
F-17.565934387931957
aF-8.30912163906041
aF0.0
abag3
(g13
g5
Ntp1098
Rp1099
(lp1100
F0.0
aF0.0
aF-0.8839087369359394
aF0.46765943245946856
ababag3
(g4
g5
Ntp1101
Rp1102
(lp1103
g3
(g9
g5
Ntp1104
Rp1105
(lp1106
F-17.565934387931957
aF-8.30912163906041
aF0.0
abag3
(g13
g5
Ntp1107
Rp1108
(lp1109
F0.0
aF0.0
aF-0.8839087369359394
aF0.46765943245946856
ababag3
(g4
g5
Ntp1110
Rp1111
(lp1112
g3
(g9
g5
Ntp1113
Rp1114
(lp1115
F-17.565934387931957
aF-8.30912163906041
aF0.0
abag3
(g13
g5
Ntp1116
Rp1117
(lp1118
F0.0
aF0.0
aF-0.8839087369359394
aF0.46765943245946856
ababag3
(g4
g5
Ntp1119
Rp1120
(lp1121
g3
(g9
g5
Ntp1122
Rp1123
(lp1124
F-17.565934387931957
aF-8.30912163906041
aF0.0
abag3
(g13
g5
Ntp1125
Rp1126
(lp1127
F0.0
aF0.0
aF-0.8839087369359394
aF0.46765943245946856
ababag3
(g4
g5
Ntp1128
Rp1129
(lp1130
g3
(g9
g5
Ntp1131
Rp1132
(lp1133
F-17.565934387931957
aF-8.30912163906041
aF0.0
abag3
(g13
g5
Ntp1134
Rp1135
(lp1136
F0.0
aF0.0
aF-0.8839087369359394
aF0.46765943245946856
ababaaa(lp1137
I3
aF75.68099999999998
a(lp1138
g3
(g4
g5
Ntp1139
Rp1140
(lp1141
g3
(g9
g5
Ntp1142
Rp1143
(lp1144
F-17.77845696537942
aF-6.7061294484919935
aF0.0
abag3
(g13
g5
Ntp1145
Rp1146
(lp1147
F0.0
aF0.0
aF0.6152169329283016
aF0.7883578663515026
ababag3
(g4
g5
Ntp1148
Rp1149
(lp1150
g3
(g9
g5
Ntp1151
Rp1152
(lp1153
F-17.78136913318308
aF-6.7171867810714305
aF0.0
abag3
(g13
g5
Ntp1154
Rp1155
(lp1156
F0.0
aF0.0
aF0.4956172186304385
aF0.8685410598221757
ababag3
(g4
g5
Ntp1157
Rp1158
(lp1159
g3
(g9
g5
Ntp1160
Rp1161
(lp1162
F-17.693168287391767
aF-6.743467467716957
aF0.0
abag3
(g13
g5
Ntp1163
Rp1164
(lp1165
F0.0
aF0.0
aF-0.28319084950948153
aF0.9590635759709041
ababag3
(g4
g5
Ntp1166
Rp1167
(lp1168
g3
(g9
g5
Ntp1169
Rp1170
(lp1171
F-17.446395351176594
aF-7.233395991266764
aF0.0
abag3
(g13
g5
Ntp1172
Rp1173
(lp1174
F0.0
aF0.0
aF-0.63218503688701
aF0.7748174489104965
ababag3
(g4
g5
Ntp1175
Rp1176
(lp1177
g3
(g9
g5
Ntp1178
Rp1179
(lp1180
F-17.56765550237997
aF-8.203106115555634
aF0.0
abag3
(g13
g5
Ntp1181
Rp1182
(lp1183
F0.0
aF0.0
aF-0.8552867674613044
aF0.5181549434344833
ababag3
(g4
g5
Ntp1184
Rp1185
(lp1186
g3
(g9
g5
Ntp1187
Rp1188
(lp1189
F-17.679657667690165
aF-8.41527815116001
aF0.0
abag3
(g13
g5
Ntp1190
Rp1191
(lp1192
F0.0
aF0.0
aF-0.8620888945467726
aF0.5067570797720774
ababag3
(g4
g5
Ntp1193
Rp1194
(lp1195
g3
(g9
g5
Ntp1196
Rp1197
(lp1198
F-17.679657667690165
aF-8.41527815116001
aF0.0
abag3
(g13
g5
Ntp1199
Rp1200
(lp1201
F0.0
aF0.0
aF-0.8620888945467726
aF0.5067570797720774
ababag3
(g4
g5
Ntp1202
Rp1203
(lp1204
g3
(g9
g5
Ntp1205
Rp1206
(lp1207
F-17.679657667690165
aF-8.41527815116001
aF0.0
abag3
(g13
g5
Ntp1208
Rp1209
(lp1210
F0.0
aF0.0
aF-0.8620888945467726
aF0.5067570797720774
ababag3
(g4
g5
Ntp1211
Rp1212
(lp1213
g3
(g9
g5
Ntp1214
Rp1215
(lp1216
F-17.679657667690165
aF-8.41527815116001
aF0.0
abag3
(g13
g5
Ntp1217
Rp1218
(lp1219
F0.0
aF0.0
aF-0.8620888945467726
aF0.5067570797720774
ababag3
(g4
g5
Ntp1220
Rp1221
(lp1222
g3
(g9
g5
Ntp1223
Rp1224
(lp1225
F-17.679657667690165
aF-8.41527815116001
aF0.0
abag3
(g13
g5
Ntp1226
Rp1227
(lp1228
F0.0
aF0.0
aF-0.8620888945467726
aF0.5067570797720774
ababag3
(g4
g5
Ntp1229
Rp1230
(lp1231
g3
(g9
g5
Ntp1232
Rp1233
(lp1234
F-17.655283135532123
aF-8.337200245021629
aF0.0
abag3
(g13
g5
Ntp1235
Rp1236
(lp1237
F0.0
aF0.0
aF-0.6811849572973677
aF0.7321113671783709
ababag3
(g4
g5
Ntp1238
Rp1239
(lp1240
g3
(g9
g5
Ntp1241
Rp1242
(lp1243
F-17.655283135532123
aF-8.337200245021629
aF0.0
abag3
(g13
g5
Ntp1244
Rp1245
(lp1246
F0.0
aF0.0
aF-0.6811849572973677
aF0.7321113671783709
ababag3
(g4
g5
Ntp1247
Rp1248
(lp1249
g3
(g9
g5
Ntp1250
Rp1251
(lp1252
F-17.655283135532123
aF-8.337200245021629
aF0.0
abag3
(g13
g5
Ntp1253
Rp1254
(lp1255
F0.0
aF0.0
aF-0.6811849572973677
aF0.7321113671783709
ababag3
(g4
g5
Ntp1256
Rp1257
(lp1258
g3
(g9
g5
Ntp1259
Rp1260
(lp1261
F-17.658407889844767
aF-8.336953947218303
aF0.0
abag3
(g13
g5
Ntp1262
Rp1263
(lp1264
F0.0
aF0.0
aF-0.4879537142501872
aF0.8728695049945591
ababag3
(g4
g5
Ntp1265
Rp1266
(lp1267
g3
(g9
g5
Ntp1268
Rp1269
(lp1270
F-17.658407889844767
aF-8.336953947218303
aF0.0
abag3
(g13
g5
Ntp1271
Rp1272
(lp1273
F0.0
aF0.0
aF-0.4879537142501872
aF0.8728695049945591
ababag3
(g4
g5
Ntp1274
Rp1275
(lp1276
g3
(g9
g5
Ntp1277
Rp1278
(lp1279
F-17.66490873183471
aF-8.345447745259342
aF0.0
abag3
(g13
g5
Ntp1280
Rp1281
(lp1282
F0.0
aF0.0
aF-0.27148557375221327
aF0.9624425090593368
ababag3
(g4
g5
Ntp1283
Rp1284
(lp1285
g3
(g9
g5
Ntp1286
Rp1287
(lp1288
F-17.66490873183471
aF-8.345447745259342
aF0.0
abag3
(g13
g5
Ntp1289
Rp1290
(lp1291
F0.0
aF0.0
aF-0.27148557375221327
aF0.9624425090593368
ababag3
(g4
g5
Ntp1292
Rp1293
(lp1294
g3
(g9
g5
Ntp1295
Rp1296
(lp1297
F-17.66490873183471
aF-8.345447745259342
aF0.0
abag3
(g13
g5
Ntp1298
Rp1299
(lp1300
F0.0
aF0.0
aF-0.27148557375221327
aF0.9624425090593368
ababag3
(g4
g5
Ntp1301
Rp1302
(lp1303
g3
(g9
g5
Ntp1304
Rp1305
(lp1306
F-17.660686723371363
aF-8.342848795604615
aF0.0
abag3
(g13
g5
Ntp1307
Rp1308
(lp1309
F0.0
aF0.0
aF-0.021154784503946263
aF0.9997762125058746
ababag3
(g4
g5
Ntp1310
Rp1311
(lp1312
g3
(g9
g5
Ntp1313
Rp1314
(lp1315
F-17.660686723371363
aF-8.342848795604615
aF0.0
abag3
(g13
g5
Ntp1316
Rp1317
(lp1318
F0.0
aF0.0
aF-0.021154784503946263
aF0.9997762125058746
ababag3
(g4
g5
Ntp1319
Rp1320
(lp1321
g3
(g9
g5
Ntp1322
Rp1323
(lp1324
F-17.663985409623603
aF-8.343197476240203
aF0.0
abag3
(g13
g5
Ntp1325
Rp1326
(lp1327
F0.0
aF0.0
aF0.23362706228983265
aF0.9723262805076405
ababag3
(g4
g5
Ntp1328
Rp1329
(lp1330
g3
(g9
g5
Ntp1331
Rp1332
(lp1333
F-17.663985409623603
aF-8.343197476240203
aF0.0
abag3
(g13
g5
Ntp1334
Rp1335
(lp1336
F0.0
aF0.0
aF0.23362706228983265
aF0.9723262805076405
ababag3
(g4
g5
Ntp1337
Rp1338
(lp1339
g3
(g9
g5
Ntp1340
Rp1341
(lp1342
F-17.654433933236884
aF-8.33189931173084
aF0.0
abag3
(g13
g5
Ntp1343
Rp1344
(lp1345
F0.0
aF0.0
aF0.47733045999953905
aF0.8787238655895425
ababag3
(g4
g5
Ntp1346
Rp1347
(lp1348
g3
(g9
g5
Ntp1349
Rp1350
(lp1351
F-17.654433933236884
aF-8.33189931173084
aF0.0
abag3
(g13
g5
Ntp1352
Rp1353
(lp1354
F0.0
aF0.0
aF0.47733045999953905
aF0.8787238655895425
ababag3
(g4
g5
Ntp1355
Rp1356
(lp1357
g3
(g9
g5
Ntp1358
Rp1359
(lp1360
F-17.68495228772079
aF-8.309424802092206
aF0.0
abag3
(g13
g5
Ntp1361
Rp1362
(lp1363
F0.0
aF0.0
aF0.9659090379896658
aF0.2588816917626244
ababag3
(g4
g5
Ntp1364
Rp1365
(lp1366
g3
(g9
g5
Ntp1367
Rp1368
(lp1369
F-17.688475667146783
aF-8.323295027107484
aF0.0
abag3
(g13
g5
Ntp1370
Rp1371
(lp1372
F0.0
aF0.0
aF-0.9998159593247257
aF0.019184563575398744
ababag3
(g4
g5
Ntp1373
Rp1374
(lp1375
g3
(g9
g5
Ntp1376
Rp1377
(lp1378
F-17.69270666247052
aF-8.331632775910592
aF0.0
abag3
(g13
g5
Ntp1379
Rp1380
(lp1381
F0.0
aF0.0
aF-0.8457493130905556
aF0.5335804526094011
ababag3
(g4
g5
Ntp1382
Rp1383
(lp1384
g3
(g9
g5
Ntp1385
Rp1386
(lp1387
F-17.680888839583854
aF-8.347603708673063
aF0.0
abag3
(g13
g5
Ntp1388
Rp1389
(lp1390
F0.0
aF0.0
aF-0.4561126508582519
aF0.8899220469945996
ababag3
(g4
g5
Ntp1391
Rp1392
(lp1393
g3
(g9
g5
Ntp1394
Rp1395
(lp1396
F-17.66811367378443
aF-8.3565314484365
aF0.0
abag3
(g13
g5
Ntp1397
Rp1398
(lp1399
F0.0
aF0.0
aF-0.20308419524148424
aF0.9791612786681869
ababag3
(g4
g5
Ntp1400
Rp1401
(lp1402
g3
(g9
g5
Ntp1403
Rp1404
(lp1405
F-17.65973020396607
aF-8.336933205392361
aF0.0
abag3
(g13
g5
Ntp1406
Rp1407
(lp1408
F0.0
aF0.0
aF0.2930041773521707
aF0.9561111609296158
ababag3
(g4
g5
Ntp1409
Rp1410
(lp1411
g3
(g9
g5
Ntp1412
Rp1413
(lp1414
F-17.6862600164316
aF-8.329504135615093
aF0.0
abag3
(g13
g5
Ntp1415
Rp1416
(lp1417
F0.0
aF0.0
aF0.7216684090981103
aF0.6922389091273349
ababag3
(g4
g5
Ntp1418
Rp1419
(lp1420
g3
(g9
g5
Ntp1421
Rp1422
(lp1423
F-17.707283929778647
aF-8.31356064703214
aF0.0
abag3
(g13
g5
Ntp1424
Rp1425
(lp1426
F0.0
aF0.0
aF0.9734711734435137
aF0.22880969051705025
ababag3
(g4
g5
Ntp1427
Rp1428
(lp1429
g3
(g9
g5
Ntp1430
Rp1431
(lp1432
F-18.110590859492824
aF-8.561149206502817
aF0.0
abag3
(g13
g5
Ntp1433
Rp1434
(lp1435
F0.0
aF0.0
aF-0.8772100519211533
aF0.48010678479739016
ababag3
(g4
g5
Ntp1436
Rp1437
(lp1438
g3
(g9
g5
Ntp1439
Rp1440
(lp1441
F-18.268464943366823
aF-9.024674017513227
aF0.0
abag3
(g13
g5
Ntp1442
Rp1443
(lp1444
F0.0
aF0.0
aF-0.7755490164967449
aF0.6312873537549535
ababag3
(g4
g5
Ntp1445
Rp1446
(lp1447
g3
(g9
g5
Ntp1448
Rp1449
(lp1450
F-18.268464943366823
aF-9.024674017513227
aF0.0
abag3
(g13
g5
Ntp1451
Rp1452
(lp1453
F0.0
aF0.0
aF-0.7755490164967449
aF0.6312873537549535
ababag3
(g4
g5
Ntp1454
Rp1455
(lp1456
g3
(g9
g5
Ntp1457
Rp1458
(lp1459
F-18.268464943366823
aF-9.024674017513227
aF0.0
abag3
(g13
g5
Ntp1460
Rp1461
(lp1462
F0.0
aF0.0
aF-0.7755490164967449
aF0.6312873537549535
ababag3
(g4
g5
Ntp1463
Rp1464
(lp1465
g3
(g9
g5
Ntp1466
Rp1467
(lp1468
F-18.268464943366823
aF-9.024674017513227
aF0.0
abag3
(g13
g5
Ntp1469
Rp1470
(lp1471
F0.0
aF0.0
aF-0.7755490164967449
aF0.6312873537549535
ababag3
(g4
g5
Ntp1472
Rp1473
(lp1474
g3
(g9
g5
Ntp1475
Rp1476
(lp1477
F-18.268464943366823
aF-9.024674017513227
aF0.0
abag3
(g13
g5
Ntp1478
Rp1479
(lp1480
F0.0
aF0.0
aF-0.7755490164967449
aF0.6312873537549535
ababag3
(g4
g5
Ntp1481
Rp1482
(lp1483
g3
(g9
g5
Ntp1484
Rp1485
(lp1486
F-18.268464943366823
aF-9.024674017513227
aF0.0
abag3
(g13
g5
Ntp1487
Rp1488
(lp1489
F0.0
aF0.0
aF-0.7755490164967449
aF0.6312873537549535
ababag3
(g4
g5
Ntp1490
Rp1491
(lp1492
g3
(g9
g5
Ntp1493
Rp1494
(lp1495
F-18.29568246215149
aF-9.02465379022459
aF0.0
abag3
(g13
g5
Ntp1496
Rp1497
(lp1498
F0.0
aF0.0
aF-0.853590935019961
aF0.5209438699627329
ababag3
(g4
g5
Ntp1499
Rp1500
(lp1501
g3
(g9
g5
Ntp1502
Rp1503
(lp1504
F-18.27988888693868
aF-9.005923753369528
aF0.0
abag3
(g13
g5
Ntp1505
Rp1506
(lp1507
F0.0
aF0.0
aF-0.9994760334444431
aF0.032367554281447615
ababag3
(g4
g5
Ntp1508
Rp1509
(lp1510
g3
(g9
g5
Ntp1511
Rp1512
(lp1513
F-18.30430336770606
aF-9.009514793967316
aF0.0
abag3
(g13
g5
Ntp1514
Rp1515
(lp1516
F0.0
aF0.0
aF0.7096113939087134
aF0.704593265391412
ababag3
(g4
g5
Ntp1517
Rp1518
(lp1519
g3
(g9
g5
Ntp1520
Rp1521
(lp1522
F-18.262886585850882
aF-9.012146441996725
aF0.0
abag3
(g13
g5
Ntp1523
Rp1524
(lp1525
F0.0
aF0.0
aF0.2419900662994838
aF0.970278726867889
ababag3
(g4
g5
Ntp1526
Rp1527
(lp1528
g3
(g9
g5
Ntp1529
Rp1530
(lp1531
F-18.15304890658507
aF-9.037788813311797
aF0.0
abag3
(g13
g5
Ntp1532
Rp1533
(lp1534
F0.0
aF0.0
aF-0.28061406081612533
aF0.9598206857909888
ababag3
(g4
g5
Ntp1535
Rp1536
(lp1537
g3
(g9
g5
Ntp1538
Rp1539
(lp1540
F-17.733410210101674
aF-9.812677750625637
aF0.0
abag3
(g13
g5
Ntp1541
Rp1542
(lp1543
F0.0
aF0.0
aF-0.5670325357967204
aF0.823695394759459
ababag3
(g4
g5
Ntp1544
Rp1545
(lp1546
g3
(g9
g5
Ntp1547
Rp1548
(lp1549
F-17.45516256085908
aF-10.2988909730293
aF0.0
abag3
(g13
g5
Ntp1550
Rp1551
(lp1552
F0.0
aF0.0
aF-0.3999928205581053
aF0.9165182723230189
ababag3
(g4
g5
Ntp1553
Rp1554
(lp1555
g3
(g9
g5
Ntp1556
Rp1557
(lp1558
F-16.607161026796707
aF-10.727581835854076
aF0.0
abag3
(g13
g5
Ntp1559
Rp1560
(lp1561
F0.0
aF0.0
aF-0.0714306787979243
aF0.9974455664979758
ababag3
(g4
g5
Ntp1562
Rp1563
(lp1564
g3
(g9
g5
Ntp1565
Rp1566
(lp1567
F-15.794497109593914
aF-10.684509134569161
aF0.0
abag3
(g13
g5
Ntp1568
Rp1569
(lp1570
F0.0
aF0.0
aF0.11587245636527839
aF0.9932641007586435
ababag3
(g4
g5
Ntp1571
Rp1572
(lp1573
g3
(g9
g5
Ntp1574
Rp1575
(lp1576
F-14.7814908865918
aF-10.487436891319192
aF0.0
abag3
(g13
g5
Ntp1577
Rp1578
(lp1579
F0.0
aF0.0
aF0.05517462861367606
aF0.9984767199876735
ababag3
(g4
g5
Ntp1580
Rp1581
(lp1582
g3
(g9
g5
Ntp1583
Rp1584
(lp1585
F-13.709183302559984
aF-10.431503751293857
aF0.0
abag3
(g13
g5
Ntp1586
Rp1587
(lp1588
F0.0
aF0.0
aF0.0036863804434374976
aF0.999993205276529
ababag3
(g4
g5
Ntp1589
Rp1590
(lp1591
g3
(g9
g5
Ntp1592
Rp1593
(lp1594
F-12.952710797483896
aF-10.430678623184905
aF0.0
abag3
(g13
g5
Ntp1595
Rp1596
(lp1597
F0.0
aF0.0
aF-0.008341972630045923
aF0.9999652051409786
ababag3
(g4
g5
Ntp1598
Rp1599
(lp1600
g3
(g9
g5
Ntp1601
Rp1602
(lp1603
F-12.016836596411192
aF-10.269235817582747
aF0.0
abag3
(g13
g5
Ntp1604
Rp1605
(lp1606
F0.0
aF0.0
aF0.2702617171129945
aF0.962786894521906
ababag3
(g4
g5
Ntp1607
Rp1608
(lp1609
g3
(g9
g5
Ntp1610
Rp1611
(lp1612
F-11.448425004245662
aF-9.515557493158983
aF0.0
abag3
(g13
g5
Ntp1613
Rp1614
(lp1615
F0.0
aF0.0
aF0.5889693517258476
aF0.8081553704131618
ababag3
(g4
g5
Ntp1616
Rp1617
(lp1618
g3
(g9
g5
Ntp1619
Rp1620
(lp1621
F-11.397074789620735
aF-8.504163718102943
aF0.0
abag3
(g13
g5
Ntp1622
Rp1623
(lp1624
F0.0
aF0.0
aF0.7581899744744369
aF0.6520337127836664
ababag3
(g4
g5
Ntp1625
Rp1626
(lp1627
g3
(g9
g5
Ntp1628
Rp1629
(lp1630
F-11.506605759315347
aF-7.665178413915194
aF0.0
abag3
(g13
g5
Ntp1631
Rp1632
(lp1633
F0.0
aF0.0
aF0.7443808952562863
aF0.6677552566453145
ababag3
(g4
g5
Ntp1634
Rp1635
(lp1636
g3
(g9
g5
Ntp1637
Rp1638
(lp1639
F-11.562399124193504
aF-6.627869826463209
aF0.0
abag3
(g13
g5
Ntp1640
Rp1641
(lp1642
F0.0
aF0.0
aF0.700981177835319
aF0.7131797727926731
ababag3
(g4
g5
Ntp1643
Rp1644
(lp1645
g3
(g9
g5
Ntp1646
Rp1647
(lp1648
F-11.47835185669067
aF-5.611726603335619
aF0.0
abag3
(g13
g5
Ntp1649
Rp1650
(lp1651
F0.0
aF0.0
aF0.6411526860597334
aF0.7674133391845551
ababag3
(g4
g5
Ntp1652
Rp1653
(lp1654
g3
(g9
g5
Ntp1655
Rp1656
(lp1657
F-11.24405753398173
aF-4.896221103490135
aF0.0
abag3
(g13
g5
Ntp1658
Rp1659
(lp1660
F0.0
aF0.0
aF0.520338087205199
aF0.8539603474422186
ababag3
(g4
g5
Ntp1661
Rp1662
(lp1663
g3
(g9
g5
Ntp1664
Rp1665
(lp1666
F-10.603617738121514
aF-4.123986426124442
aF0.0
abag3
(g13
g5
Ntp1667
Rp1668
(lp1669
F0.0
aF0.0
aF0.32978609515567975
aF0.9440556823842379
ababag3
(g4
g5
Ntp1670
Rp1671
(lp1672
g3
(g9
g5
Ntp1673
Rp1674
(lp1675
F-9.786849149084793
aF-3.5184992882955215
aF0.0
abag3
(g13
g5
Ntp1676
Rp1677
(lp1678
F0.0
aF0.0
aF0.3856421743090679
aF0.9226484235038688
ababag3
(g4
g5
Ntp1679
Rp1680
(lp1681
g3
(g9
g5
Ntp1682
Rp1683
(lp1684
F-9.282749953892317
aF-2.658342025412207
aF0.0
abag3
(g13
g5
Ntp1685
Rp1686
(lp1687
F0.0
aF0.0
aF0.5968869955891413
aF0.8023253171230286
ababag3
(g4
g5
Ntp1688
Rp1689
(lp1690
g3
(g9
g5
Ntp1691
Rp1692
(lp1693
F-9.168092150665588
aF-1.9003924748703866
aF0.0
abag3
(g13
g5
Ntp1694
Rp1695
(lp1696
F0.0
aF0.0
aF0.69999919376335
aF0.7141436331233795
ababag3
(g4
g5
Ntp1697
Rp1698
(lp1699
g3
(g9
g5
Ntp1700
Rp1701
(lp1702
F-9.194662942604385
aF-0.8679879797977517
aF0.0
abag3
(g13
g5
Ntp1703
Rp1704
(lp1705
F0.0
aF0.0
aF0.7205545337105846
aF0.6933982722426715
ababag3
(g4
g5
Ntp1706
Rp1707
(lp1708
g3
(g9
g5
Ntp1709
Rp1710
(lp1711
F-9.193629630647235
aF0.16992951614814708
aF0.0
abag3
(g13
g5
Ntp1712
Rp1713
(lp1714
F0.0
aF0.0
aF0.6946400221478538
aF0.7193575186445397
ababag3
(g4
g5
Ntp1715
Rp1716
(lp1717
g3
(g9
g5
Ntp1718
Rp1719
(lp1720
F-9.20835465932991
aF0.9821130140540604
aF0.0
abag3
(g13
g5
Ntp1721
Rp1722
(lp1723
F0.0
aF0.0
aF0.784021853677552
aF0.6207332220495495
ababag3
(g4
g5
Ntp1724
Rp1725
(lp1726
g3
(g9
g5
Ntp1727
Rp1728
(lp1729
F-9.790733110210006
aF1.7903163395132935
aF0.0
abag3
(g13
g5
Ntp1730
Rp1731
(lp1732
F0.0
aF0.0
aF0.9492946759633749
aF0.3143876877162829
ababag3
(g4
g5
Ntp1733
Rp1734
(lp1735
g3
(g9
g5
Ntp1736
Rp1737
(lp1738
F-10.72478420857326
aF2.165453328296047
aF0.0
abag3
(g13
g5
Ntp1739
Rp1740
(lp1741
F0.0
aF0.0
aF0.995440518606579
aF0.09538434838203258
ababag3
(g4
g5
Ntp1742
Rp1743
(lp1744
g3
(g9
g5
Ntp1745
Rp1746
(lp1747
F-11.515978852369464
aF2.236396180550777
aF0.0
abag3
(g13
g5
Ntp1748
Rp1749
(lp1750
F0.0
aF0.0
aF0.9999009928392222
aF0.014071407859122803
ababag3
(g4
g5
Ntp1751
Rp1752
(lp1753
g3
(g9
g5
Ntp1754
Rp1755
(lp1756
F-12.570985766444924
aF2.2457528727509013
aF0.0
abag3
(g13
g5
Ntp1757
Rp1758
(lp1759
F0.0
aF0.0
aF-0.9999997047833203
aF0.0007683965591824449
ababag3
(g4
g5
Ntp1760
Rp1761
(lp1762
g3
(g9
g5
Ntp1763
Rp1764
(lp1765
F-13.623912645666016
aF2.254928102025085
aF0.0
abag3
(g13
g5
Ntp1766
Rp1767
(lp1768
F0.0
aF0.0
aF-0.9999985356481944
aF0.0017113449292457648
ababag3
(g4
g5
Ntp1769
Rp1770
(lp1771
g3
(g9
g5
Ntp1772
Rp1773
(lp1774
F-14.158716471189837
aF2.2623031159643983
aF0.0
abag3
(g13
g5
Ntp1775
Rp1776
(lp1777
F0.0
aF0.0
aF0.9988706303790542
aF0.04751277476795903
ababag3
(g4
g5
Ntp1778
Rp1779
(lp1780
g3
(g9
g5
Ntp1781
Rp1782
(lp1783
F-14.158716471189837
aF2.2623031159643983
aF0.0
abag3
(g13
g5
Ntp1784
Rp1785
(lp1786
F0.0
aF0.0
aF0.9988706303790542
aF0.04751277476795903
ababag3
(g4
g5
Ntp1787
Rp1788
(lp1789
g3
(g9
g5
Ntp1790
Rp1791
(lp1792
F-14.376751133432455
aF2.309414194093523
aF0.0
abag3
(g13
g5
Ntp1793
Rp1794
(lp1795
F0.0
aF0.0
aF0.9912578083866599
aF0.13193921825020713
ababag3
(g4
g5
Ntp1796
Rp1797
(lp1798
g3
(g9
g5
Ntp1799
Rp1800
(lp1801
F-14.376751133432455
aF2.309414194093523
aF0.0
abag3
(g13
g5
Ntp1802
Rp1803
(lp1804
F0.0
aF0.0
aF0.9912578083866599
aF0.13193921825020713
ababag3
(g4
g5
Ntp1805
Rp1806
(lp1807
g3
(g9
g5
Ntp1808
Rp1809
(lp1810
F-14.41831639306688
aF2.3282914110907704
aF0.0
abag3
(g13
g5
Ntp1811
Rp1812
(lp1813
F0.0
aF0.0
aF0.9261950132806691
aF0.3770448214390713
ababag3
(g4
g5
Ntp1814
Rp1815
(lp1816
g3
(g9
g5
Ntp1817
Rp1818
(lp1819
F-14.41831639306688
aF2.3282914110907704
aF0.0
abag3
(g13
g5
Ntp1820
Rp1821
(lp1822
F0.0
aF0.0
aF0.9261950132806691
aF0.3770448214390713
ababaaa(lp1823
I3
aF37.162000000000035
a(lp1824
g3
(g4
g5
Ntp1825
Rp1826
(lp1827
g3
(g9
g5
Ntp1828
Rp1829
(lp1830
F-17.777182841803768
aF-6.701260809370549
aF0.0
abag3
(g13
g5
Ntp1831
Rp1832
(lp1833
F0.0
aF0.0
aF0.6139132558784889
aF0.7893734947771385
ababag3
(g4
g5
Ntp1834
Rp1835
(lp1836
g3
(g9
g5
Ntp1837
Rp1838
(lp1839
F-17.779203235078306
aF-6.706761145968593
aF0.0
abag3
(g13
g5
Ntp1840
Rp1841
(lp1842
F0.0
aF0.0
aF0.2530581419236714
aF0.9674510720476457
ababag3
(g4
g5
Ntp1843
Rp1844
(lp1845
g3
(g9
g5
Ntp1846
Rp1847
(lp1848
F-17.73191216448297
aF-6.719141523419851
aF0.0
abag3
(g13
g5
Ntp1849
Rp1850
(lp1851
F0.0
aF0.0
aF-0.27691785455396833
aF0.9608935954772657
ababag3
(g4
g5
Ntp1852
Rp1853
(lp1854
g3
(g9
g5
Ntp1855
Rp1856
(lp1857
F-17.667277158639155
aF-7.2490503792984
aF0.0
abag3
(g13
g5
Ntp1858
Rp1859
(lp1860
F0.0
aF0.0
aF-0.7600683502605794
aF0.6498431371740115
ababag3
(g4
g5
Ntp1861
Rp1862
(lp1863
g3
(g9
g5
Ntp1864
Rp1865
(lp1866
F-17.886672476445177
aF-8.272500981895133
aF0.0
abag3
(g13
g5
Ntp1867
Rp1868
(lp1869
F0.0
aF0.0
aF-0.7704871524166717
aF0.6374555262611257
ababag3
(g4
g5
Ntp1870
Rp1871
(lp1872
g3
(g9
g5
Ntp1873
Rp1874
(lp1875
F-17.946764724674832
aF-9.044222413616971
aF0.0
abag3
(g13
g5
Ntp1876
Rp1877
(lp1878
F0.0
aF0.0
aF-0.6955728061259888
aF0.7184556154544396
ababag3
(g4
g5
Ntp1879
Rp1880
(lp1881
g3
(g9
g5
Ntp1882
Rp1883
(lp1884
F-17.778135176506094
aF-10.019026696261252
aF0.0
abag3
(g13
g5
Ntp1885
Rp1886
(lp1887
F0.0
aF0.0
aF-0.5209733654362044
aF0.8535729333256034
ababag3
(g4
g5
Ntp1888
Rp1889
(lp1890
g3
(g9
g5
Ntp1891
Rp1892
(lp1893
F-17.116860797239422
aF-10.580588864337974
aF0.0
abag3
(g13
g5
Ntp1894
Rp1895
(lp1896
F0.0
aF0.0
aF-0.18393680238067148
aF0.9829380716657453
ababag3
(g4
g5
Ntp1897
Rp1898
(lp1899
g3
(g9
g5
Ntp1900
Rp1901
(lp1902
F-16.124478843991614
aF-10.68233790597729
aF0.0
abag3
(g13
g5
Ntp1903
Rp1904
(lp1905
F0.0
aF0.0
aF0.0770013027006935
aF0.9970309921875028
ababag3
(g4
g5
Ntp1906
Rp1907
(lp1908
g3
(g9
g5
Ntp1909
Rp1910
(lp1911
F-15.075358751811674
aF-10.504481837409218
aF0.0
abag3
(g13
g5
Ntp1912
Rp1913
(lp1914
F0.0
aF0.0
aF0.0694280480902626
aF0.9975869616922508
ababag3
(g4
g5
Ntp1915
Rp1916
(lp1917
g3
(g9
g5
Ntp1918
Rp1919
(lp1920
F-14.281538945734507
aF-10.445049056661805
aF0.0
abag3
(g13
g5
Ntp1921
Rp1922
(lp1923
F0.0
aF0.0
aF0.014578193814221449
aF0.9998937324861652
ababag3
(g4
g5
Ntp1924
Rp1925
(lp1926
g3
(g9
g5
Ntp1927
Rp1928
(lp1929
F-13.219464030857727
aF-10.443980316624453
aF0.0
abag3
(g13
g5
Ntp1930
Rp1931
(lp1932
F0.0
aF0.0
aF-0.0007814521624478742
aF0.9999996946662123
ababag3
(g4
g5
Ntp1933
Rp1934
(lp1935
g3
(g9
g5
Ntp1936
Rp1937
(lp1938
F-12.218789712786851
aF-10.377011933015687
aF0.0
abag3
(g13
g5
Ntp1939
Rp1940
(lp1941
F0.0
aF0.0
aF0.16728976264078538
aF0.9859077722158345
ababag3
(g4
g5
Ntp1942
Rp1943
(lp1944
g3
(g9
g5
Ntp1945
Rp1946
(lp1947
F-11.577361555218783
aF-9.805504561905627
aF0.0
abag3
(g13
g5
Ntp1948
Rp1949
(lp1950
F0.0
aF0.0
aF0.5085718224014569
aF0.8610195708921261
ababag3
(g4
g5
Ntp1951
Rp1952
(lp1953
g3
(g9
g5
Ntp1954
Rp1955
(lp1956
F-11.388277544740747
aF-9.092002515224676
aF0.0
abag3
(g13
g5
Ntp1957
Rp1958
(lp1959
F0.0
aF0.0
aF0.6958289213044144
aF0.718207569074801
ababag3
(g4
g5
Ntp1960
Rp1961
(lp1962
g3
(g9
g5
Ntp1963
Rp1964
(lp1965
F-11.471675699214403
aF-8.05593790485728
aF0.0
abag3
(g13
g5
Ntp1966
Rp1967
(lp1968
F0.0
aF0.0
aF0.7522855403273332
aF0.6588372073694779
ababag3
(g4
g5
Ntp1969
Rp1970
(lp1971
g3
(g9
g5
Ntp1972
Rp1973
(lp1974
F-11.559172896509885
aF-7.011406091141211
aF0.0
abag3
(g13
g5
Ntp1975
Rp1976
(lp1977
F0.0
aF0.0
aF0.711297733178967
aF0.7028908412936272
ababag3
(g4
g5
Ntp1978
Rp1979
(lp1980
g3
(g9
g5
Ntp1981
Rp1982
(lp1983
F-11.490970631355122
aF-5.969705179619472
aF0.0
abag3
(g13
g5
Ntp1984
Rp1985
(lp1986
F0.0
aF0.0
aF0.6533061973470267
aF0.7570937937323009
ababag3
(g4
g5
Ntp1987
Rp1988
(lp1989
g3
(g9
g5
Ntp1990
Rp1991
(lp1992
F-11.34787088223592
aF-5.197541457299623
aF0.0
abag3
(g13
g5
Ntp1993
Rp1994
(lp1995
F0.0
aF0.0
aF0.6110787666618711
aF0.791569795365517
ababag3
(g4
g5
Ntp1996
Rp1997
(lp1998
g3
(g9
g5
Ntp1999
Rp2000
(lp2001
F-10.868774440710437
aF-4.321624424122211
aF0.0
abag3
(g13
g5
Ntp2002
Rp2003
(lp2004
F0.0
aF0.0
aF0.39975785761705945
aF0.9166207805158133
ababag3
(g4
g5
Ntp2005
Rp2006
(lp2007
g3
(g9
g5
Ntp2008
Rp2009
(lp2010
F-10.082823303036701
aF-3.7601032199206976
aF0.0
abag3
(g13
g5
Ntp2011
Rp2012
(lp2013
F0.0
aF0.0
aF0.255387237319464
aF0.9668388485235436
ababag3
(g4
g5
Ntp2014
Rp2015
(lp2016
g3
(g9
g5
Ntp2017
Rp2018
(lp2019
F-9.4000463428536
aF-3.148902505571708
aF0.0
abag3
(g13
g5
Ntp2020
Rp2021
(lp2022
F0.0
aF0.0
aF0.4873853599943732
aF0.8731869850514008
ababag3
(g4
g5
Ntp2023
Rp2024
(lp2025
g3
(g9
g5
Ntp2026
Rp2027
(lp2028
F-9.121283941391745
aF-2.2013118196549377
aF0.0
abag3
(g13
g5
Ntp2029
Rp2030
(lp2031
F0.0
aF0.0
aF0.6937220334687729
aF0.7202428342440838
ababag3
(g4
g5
Ntp2032
Rp2033
(lp2034
g3
(g9
g5
Ntp2035
Rp2036
(lp2037
F-9.174685628835215
aF-1.1695698154407095
aF0.0
abag3
(g13
g5
Ntp2038
Rp2039
(lp2040
F0.0
aF0.0
aF0.7381540920359317
aF0.6746321489601642
ababag3
(g4
g5
Ntp2041
Rp2042
(lp2043
g3
(g9
g5
Ntp2044
Rp2045
(lp2046
F-9.205571943461884
aF-0.40062653632131573
aF0.0
abag3
(g13
g5
Ntp2047
Rp2048
(lp2049
F0.0
aF0.0
aF0.7153236336732833
aF0.6987933164451778
ababag3
(g4
g5
Ntp2050
Rp2051
(lp2052
g3
(g9
g5
Ntp2053
Rp2054
(lp2055
F-9.189720114237913
aF0.6372331047036782
aF0.0
abag3
(g13
g5
Ntp2056
Rp2057
(lp2058
F0.0
aF0.0
aF0.6990774795603699
aF0.7150459268966719
ababag3
(g4
g5
Ntp2059
Rp2060
(lp2061
g3
(g9
g5
Ntp2062
Rp2063
(lp2064
F-9.461685595597656
aF1.6063739044554866
aF0.0
abag3
(g13
g5
Ntp2065
Rp2066
(lp2067
F0.0
aF0.0
aF0.8977904882954002
aF0.44042279587494887
ababag3
(g4
g5
Ntp2068
Rp2069
(lp2070
g3
(g9
g5
Ntp2071
Rp2072
(lp2073
F-10.091660561556665
aF2.05768054381709
aF0.0
abag3
(g13
g5
Ntp2074
Rp2075
(lp2076
F0.0
aF0.0
aF0.983090723308307
aF0.18311916815328103
ababag3
(g4
g5
Ntp2077
Rp2078
(lp2079
g3
(g9
g5
Ntp2080
Rp2081
(lp2082
F-11.099085167443992
aF2.1677733218069033
aF0.0
abag3
(g13
g5
Ntp2083
Rp2084
(lp2085
F0.0
aF0.0
aF-0.9997235777661363
aF0.023511019936958446
ababag3
(g4
g5
Ntp2086
Rp2087
(lp2088
g3
(g9
g5
Ntp2089
Rp2090
(lp2091
F-12.16807087781591
aF2.1070807039070303
aF0.0
abag3
(g13
g5
Ntp2092
Rp2093
(lp2094
F0.0
aF0.0
aF-0.9997254502068442
aF0.023431265623574893
ababag3
(g4
g5
Ntp2095
Rp2096
(lp2097
g3
(g9
g5
Ntp2098
Rp2099
(lp2100
F-12.970967689254163
aF2.0873054082106144
aF0.0
abag3
(g13
g5
Ntp2101
Rp2102
(lp2103
F0.0
aF0.0
aF0.9997555656686664
aF0.02210902337338212
ababag3
(g4
g5
Ntp2104
Rp2105
(lp2106
g3
(g9
g5
Ntp2107
Rp2108
(lp2109
F-13.986088597559167
aF2.199067485300734
aF0.0
abag3
(g13
g5
Ntp2110
Rp2111
(lp2112
F0.0
aF0.0
aF0.9955654766556337
aF0.09407115228081896
ababag3
(g4
g5
Ntp2113
Rp2114
(lp2115
g3
(g9
g5
Ntp2116
Rp2117
(lp2118
F-14.199303829346334
aF2.2410991327501155
aF0.0
abag3
(g13
g5
Ntp2119
Rp2120
(lp2121
F0.0
aF0.0
aF0.9935177309918131
aF0.1136772545625522
ababag3
(g4
g5
Ntp2122
Rp2123
(lp2124
g3
(g9
g5
Ntp2125
Rp2126
(lp2127
F-14.199303829346334
aF2.2410991327501155
aF0.0
abag3
(g13
g5
Ntp2128
Rp2129
(lp2130
F0.0
aF0.0
aF0.9935177309918131
aF0.1136772545625522
ababag3
(g4
g5
Ntp2131
Rp2132
(lp2133
g3
(g9
g5
Ntp2134
Rp2135
(lp2136
F-14.397029659346492
aF2.3057664106629816
aF0.0
abag3
(g13
g5
Ntp2137
Rp2138
(lp2139
F0.0
aF0.0
aF0.9814488945146819
aF0.19172393553207936
ababag3
(g4
g5
Ntp2140
Rp2141
(lp2142
g3
(g9
g5
Ntp2143
Rp2144
(lp2145
F-14.397029659346492
aF2.3057664106629816
aF0.0
abag3
(g13
g5
Ntp2146
Rp2147
(lp2148
F0.0
aF0.0
aF0.9814488945146819
aF0.19172393553207936
ababag3
(g4
g5
Ntp2149
Rp2150
(lp2151
g3
(g9
g5
Ntp2152
Rp2153
(lp2154
F-14.482139360536438
aF2.3507774177584704
aF0.0
abag3
(g13
g5
Ntp2155
Rp2156
(lp2157
F0.0
aF0.0
aF0.9025455283337444
aF0.4305944371270514
ababaaa.