(lp0
(lp1
I3
aF16.08000000000004
a(lp2
ccopy_reg
_reconstructor
p3
(cgeometry_msgs.msg._Pose
Pose
p4
c__builtin__
object
p5
Ntp6
Rp7
(lp8
g3
(cgeometry_msgs.msg._Point
Point
p9
g5
Ntp10
Rp11
(lp12
F-13.218969652302903
aF-0.09260279817705958
aF0.0
abag3
(cgeometry_msgs.msg._Quaternion
Quaternion
p13
g5
Ntp14
Rp15
(lp16
F0.0
aF0.0
aF0.7898260727957096
aF0.6133308851933892
ababag3
(g4
g5
Ntp17
Rp18
(lp19
g3
(g9
g5
Ntp20
Rp21
(lp22
F-13.218969652302903
aF-0.09260279817705958
aF0.0
abag3
(g13
g5
Ntp23
Rp24
(lp25
F0.0
aF0.0
aF0.7898260727957096
aF0.6133308851933892
ababag3
(g4
g5
Ntp26
Rp27
(lp28
g3
(g9
g5
Ntp29
Rp30
(lp31
F-13.218748380463328
aF-0.07631623902384899
aF0.0
abag3
(g13
g5
Ntp32
Rp33
(lp34
F0.0
aF0.0
aF0.840814166871877
aF0.5413238742079933
ababag3
(g4
g5
Ntp35
Rp36
(lp37
g3
(g9
g5
Ntp38
Rp39
(lp40
F-13.218748380463328
aF-0.07631623902384899
aF0.0
abag3
(g13
g5
Ntp41
Rp42
(lp43
F0.0
aF0.0
aF0.840814166871877
aF0.5413238742079933
ababag3
(g4
g5
Ntp44
Rp45
(lp46
g3
(g9
g5
Ntp47
Rp48
(lp49
F-13.218748380463328
aF-0.07631623902384899
aF0.0
abag3
(g13
g5
Ntp50
Rp51
(lp52
F0.0
aF0.0
aF0.840814166871877
aF0.5413238742079933
ababag3
(g4
g5
Ntp53
Rp54
(lp55
g3
(g9
g5
Ntp56
Rp57
(lp58
F-13.25384869357017
aF-0.037020379123337055
aF0.0
abag3
(g13
g5
Ntp59
Rp60
(lp61
F0.0
aF0.0
aF0.9416030430344529
aF0.3367249758308083
ababag3
(g4
g5
Ntp62
Rp63
(lp64
g3
(g9
g5
Ntp65
Rp66
(lp67
F-13.25384869357017
aF-0.037020379123337055
aF0.0
abag3
(g13
g5
Ntp68
Rp69
(lp70
F0.0
aF0.0
aF0.9416030430344529
aF0.3367249758308083
ababag3
(g4
g5
Ntp71
Rp72
(lp73
g3
(g9
g5
Ntp74
Rp75
(lp76
F-13.259467677356021
aF-0.03906302300486044
aF0.0
abag3
(g13
g5
Ntp77
Rp78
(lp79
F0.0
aF0.0
aF-0.9838988147227596
aF0.17872638973343807
ababag3
(g4
g5
Ntp80
Rp81
(lp82
g3
(g9
g5
Ntp83
Rp84
(lp85
F-13.255585038568192
aF-0.13375701128854295
aF0.0
abag3
(g13
g5
Ntp86
Rp87
(lp88
F0.0
aF0.0
aF-0.5701062046384664
aF0.8215710044985297
ababag3
(g4
g5
Ntp89
Rp90
(lp91
g3
(g9
g5
Ntp92
Rp93
(lp94
F-12.926892999620584
aF-0.30921309189985696
aF0.0
abag3
(g13
g5
Ntp95
Rp96
(lp97
F0.0
aF0.0
aF-0.0581440280810698
aF0.9983082049139473
ababag3
(g4
g5
Ntp98
Rp99
(lp100
g3
(g9
g5
Ntp101
Rp102
(lp103
F-12.633089044427939
aF-0.28486678338821675
aF0.0
abag3
(g13
g5
Ntp104
Rp105
(lp106
F0.0
aF0.0
aF0.09405453505099219
aF0.9955670466806049
ababag3
(g4
g5
Ntp107
Rp108
(lp109
g3
(g9
g5
Ntp110
Rp111
(lp112
F-12.633089044427939
aF-0.28486678338821675
aF0.0
abag3
(g13
g5
Ntp113
Rp114
(lp115
F0.0
aF0.0
aF0.09405453505099219
aF0.9955670466806049
ababag3
(g4
g5
Ntp116
Rp117
(lp118
g3
(g9
g5
Ntp119
Rp120
(lp121
F-12.633089044427939
aF-0.28486678338821675
aF0.0
abag3
(g13
g5
Ntp122
Rp123
(lp124
F0.0
aF0.0
aF0.09405453505099219
aF0.9955670466806049
ababag3
(g4
g5
Ntp125
Rp126
(lp127
g3
(g9
g5
Ntp128
Rp129
(lp130
F-12.532613873884989
aF-0.27365610897446696
aF0.0
abag3
(g13
g5
Ntp131
Rp132
(lp133
F0.0
aF0.0
aF-0.16451963079243442
aF0.9863738090013953
ababag3
(g4
g5
Ntp134
Rp135
(lp136
g3
(g9
g5
Ntp137
Rp138
(lp139
F-12.532613873884989
aF-0.27365610897446696
aF0.0
abag3
(g13
g5
Ntp140
Rp141
(lp142
F0.0
aF0.0
aF-0.16451963079243442
aF0.9863738090013953
ababag3
(g4
g5
Ntp143
Rp144
(lp145
g3
(g9
g5
Ntp146
Rp147
(lp148
F-12.519687216730352
aF-0.29253781604232776
aF0.0
abag3
(g13
g5
Ntp149
Rp150
(lp151
F0.0
aF0.0
aF-0.41009754869250414
aF0.9120416660199243
ababaaa(lp152
I3
aF5.0
a(lp153
g3
(g4
g5
Ntp154
Rp155
(lp156
g3
(g9
g5
Ntp157
Rp158
(lp159
F-13.218999805306058
aF-0.09248502335858587
aF0.0
abag3
(g13
g5
Ntp160
Rp161
(lp162
F0.0
aF0.0
aF0.7901207722342869
aF0.6129511932314792
ababag3
(g4
g5
Ntp163
Rp164
(lp165
g3
(g9
g5
Ntp166
Rp167
(lp168
F-13.186137193449364
aF-0.04475028637715547
aF0.0
abag3
(g13
g5
Ntp169
Rp170
(lp171
F0.0
aF0.0
aF0.37878172468349147
aF0.9254860371965639
ababag3
(g4
g5
Ntp172
Rp173
(lp174
g3
(g9
g5
Ntp175
Rp176
(lp177
F-12.806974151855025
aF-0.041806132415168916
aF0.0
abag3
(g13
g5
Ntp178
Rp179
(lp180
F0.0
aF0.0
aF-0.1928582799998074
aF0.9812266220580829
ababag3
(g4
g5
Ntp181
Rp182
(lp183
g3
(g9
g5
Ntp184
Rp185
(lp186
F-12.806974151855025
aF-0.041806132415168916
aF0.0
abag3
(g13
g5
Ntp187
Rp188
(lp189
F0.0
aF0.0
aF-0.1928582799998074
aF0.9812266220580829
ababag3
(g4
g5
Ntp190
Rp191
(lp192
g3
(g9
g5
Ntp193
Rp194
(lp195
F-12.571279717498877
aF-0.19739387934825323
aF0.0
abag3
(g13
g5
Ntp196
Rp197
(lp198
F0.0
aF0.0
aF-0.37578669853234
aF0.9267061870982433
ababaaa(lp199
I3
aF3.36099999999999
a(lp200
g3
(g4
g5
Ntp201
Rp202
(lp203
g3
(g9
g5
Ntp204
Rp205
(lp206
F-13.22212583903468
aF-0.10445578949046676
aF0.0
abag3
(g13
g5
Ntp207
Rp208
(lp209
F0.0
aF0.0
aF0.5174980043761878
aF0.8556844134765241
ababag3
(g4
g5
Ntp210
Rp211
(lp212
g3
(g9
g5
Ntp213
Rp214
(lp215
F-13.020328514299177
aF-0.019267643455938385
aF0.0
abag3
(g13
g5
Ntp216
Rp217
(lp218
F0.0
aF0.0
aF0.035704872362664404
aF0.9993623777637248
ababag3
(g4
g5
Ntp219
Rp220
(lp221
g3
(g9
g5
Ntp222
Rp223
(lp224
F-12.775229932114785
aF-0.08072933446892579
aF0.0
abag3
(g13
g5
Ntp225
Rp226
(lp227
F0.0
aF0.0
aF-0.22722276730174476
aF0.97384280765416
ababag3
(g4
g5
Ntp228
Rp229
(lp230
g3
(g9
g5
Ntp231
Rp232
(lp233
F-12.568653633932703
aF-0.20951148287565333
aF0.0
abag3
(g13
g5
Ntp234
Rp235
(lp236
F0.0
aF0.0
aF-0.3336588041989276
aF0.9426939070454108
ababaaa(lp237
I3
aF33.120000000000005
a(lp238
g3
(g4
g5
Ntp239
Rp240
(lp241
g3
(g9
g5
Ntp242
Rp243
(lp244
F-13.219733567204472
aF-0.09962974594046149
aF0.0
abag3
(g13
g5
Ntp245
Rp246
(lp247
F0.0
aF0.0
aF0.7904505455169896
aF0.6125258648350236
ababag3
(g4
g5
Ntp248
Rp249
(lp250
g3
(g9
g5
Ntp251
Rp252
(lp253
F-13.219733567204472
aF-0.09962974594046149
aF0.0
abag3
(g13
g5
Ntp254
Rp255
(lp256
F0.0
aF0.0
aF0.7904505455169896
aF0.6125258648350236
ababag3
(g4
g5
Ntp257
Rp258
(lp259
g3
(g9
g5
Ntp260
Rp261
(lp262
F-13.23491724209305
aF-0.07438986356206011
aF0.0
abag3
(g13
g5
Ntp263
Rp264
(lp265
F0.0
aF0.0
aF0.8405456003991135
aF0.541740799321681
ababag3
(g4
g5
Ntp266
Rp267
(lp268
g3
(g9
g5
Ntp269
Rp270
(lp271
F-13.23491724209305
aF-0.07438986356206011
aF0.0
abag3
(g13
g5
Ntp272
Rp273
(lp274
F0.0
aF0.0
aF0.8405456003991135
aF0.541740799321681
ababag3
(g4
g5
Ntp275
Rp276
(lp277
g3
(g9
g5
Ntp278
Rp279
(lp280
F-13.265703821604971
aF-0.038087759187110236
aF0.0
abag3
(g13
g5
Ntp281
Rp282
(lp283
F0.0
aF0.0
aF0.9452554649573734
aF0.3263312825461571
ababag3
(g4
g5
Ntp284
Rp285
(lp286
g3
(g9
g5
Ntp287
Rp288
(lp289
F-13.265703821604971
aF-0.038087759187110236
aF0.0
abag3
(g13
g5
Ntp290
Rp291
(lp292
F0.0
aF0.0
aF0.9452554649573734
aF0.3263312825461571
ababag3
(g4
g5
Ntp293
Rp294
(lp295
g3
(g9
g5
Ntp296
Rp297
(lp298
F-13.286362087659453
aF-0.04465220837835095
aF0.0
abag3
(g13
g5
Ntp299
Rp300
(lp301
F0.0
aF0.0
aF-0.9147433070315795
aF0.40403549626354546
ababag3
(g4
g5
Ntp302
Rp303
(lp304
g3
(g9
g5
Ntp305
Rp306
(lp307
F-13.270352417839531
aF-0.16757747828039182
aF0.0
abag3
(g13
g5
Ntp308
Rp309
(lp310
F0.0
aF0.0
aF-0.5833357992151181
aF0.8122310911028088
ababag3
(g4
g5
Ntp311
Rp312
(lp313
g3
(g9
g5
Ntp314
Rp315
(lp316
F-12.991783253402547
aF-0.37729651738099845
aF0.0
abag3
(g13
g5
Ntp317
Rp318
(lp319
F0.0
aF0.0
aF-0.08413592025793876
aF0.9964542874223332
ababag3
(g4
g5
Ntp320
Rp321
(lp322
g3
(g9
g5
Ntp323
Rp324
(lp325
F-12.741421189052762
aF-0.3375940712989466
aF0.0
abag3
(g13
g5
Ntp326
Rp327
(lp328
F0.0
aF0.0
aF0.20796551002115496
aF0.9781361595614595
ababag3
(g4
g5
Ntp329
Rp330
(lp331
g3
(g9
g5
Ntp332
Rp333
(lp334
F-12.741421189052762
aF-0.3375940712989466
aF0.0
abag3
(g13
g5
Ntp335
Rp336
(lp337
F0.0
aF0.0
aF0.20796551002115496
aF0.9781361595614595
ababag3
(g4
g5
Ntp338
Rp339
(lp340
g3
(g9
g5
Ntp341
Rp342
(lp343
F-12.741421189052762
aF-0.3375940712989466
aF0.0
abag3
(g13
g5
Ntp344
Rp345
(lp346
F0.0
aF0.0
aF0.20796551002115496
aF0.9781361595614595
ababag3
(g4
g5
Ntp347
Rp348
(lp349
g3
(g9
g5
Ntp350
Rp351
(lp352
F-12.541876047672124
aF-0.25760380968711405
aF0.0
abag3
(g13
g5
Ntp353
Rp354
(lp355
F0.0
aF0.0
aF0.071608906345714
aF0.9974327869746266
ababag3
(g4
g5
Ntp356
Rp357
(lp358
g3
(g9
g5
Ntp359
Rp360
(lp361
F-12.541876047672124
aF-0.25760380968711405
aF0.0
abag3
(g13
g5
Ntp362
Rp363
(lp364
F0.0
aF0.0
aF0.071608906345714
aF0.9974327869746266
ababag3
(g4
g5
Ntp365
Rp366
(lp367
g3
(g9
g5
Ntp368
Rp369
(lp370
F-12.541876047672124
aF-0.25760380968711405
aF0.0
abag3
(g13
g5
Ntp371
Rp372
(lp373
F0.0
aF0.0
aF0.071608906345714
aF0.9974327869746266
ababag3
(g4
g5
Ntp374
Rp375
(lp376
g3
(g9
g5
Ntp377
Rp378
(lp379
F-12.541876047672124
aF-0.25760380968711405
aF0.0
abag3
(g13
g5
Ntp380
Rp381
(lp382
F0.0
aF0.0
aF0.071608906345714
aF0.9974327869746266
ababag3
(g4
g5
Ntp383
Rp384
(lp385
g3
(g9
g5
Ntp386
Rp387
(lp388
F-12.541876047672124
aF-0.25760380968711405
aF0.0
abag3
(g13
g5
Ntp389
Rp390
(lp391
F0.0
aF0.0
aF0.071608906345714
aF0.9974327869746266
ababag3
(g4
g5
Ntp392
Rp393
(lp394
g3
(g9
g5
Ntp395
Rp396
(lp397
F-12.541876047672124
aF-0.25760380968711405
aF0.0
abag3
(g13
g5
Ntp398
Rp399
(lp400
F0.0
aF0.0
aF0.071608906345714
aF0.9974327869746266
ababag3
(g4
g5
Ntp401
Rp402
(lp403
g3
(g9
g5
Ntp404
Rp405
(lp406
F-12.541876047672124
aF-0.25760380968711405
aF0.0
abag3
(g13
g5
Ntp407
Rp408
(lp409
F0.0
aF0.0
aF0.071608906345714
aF0.9974327869746266
ababag3
(g4
g5
Ntp410
Rp411
(lp412
g3
(g9
g5
Ntp413
Rp414
(lp415
F-12.541876047672124
aF-0.25760380968711405
aF0.0
abag3
(g13
g5
Ntp416
Rp417
(lp418
F0.0
aF0.0
aF0.071608906345714
aF0.9974327869746266
ababag3
(g4
g5
Ntp419
Rp420
(lp421
g3
(g9
g5
Ntp422
Rp423
(lp424
F-12.541876047672124
aF-0.25760380968711405
aF0.0
abag3
(g13
g5
Ntp425
Rp426
(lp427
F0.0
aF0.0
aF0.071608906345714
aF0.9974327869746266
ababag3
(g4
g5
Ntp428
Rp429
(lp430
g3
(g9
g5
Ntp431
Rp432
(lp433
F-12.541876047672124
aF-0.25760380968711405
aF0.0
abag3
(g13
g5
Ntp434
Rp435
(lp436
F0.0
aF0.0
aF0.071608906345714
aF0.9974327869746266
ababag3
(g4
g5
Ntp437
Rp438
(lp439
g3
(g9
g5
Ntp440
Rp441
(lp442
F-12.541876047672124
aF-0.25760380968711405
aF0.0
abag3
(g13
g5
Ntp443
Rp444
(lp445
F0.0
aF0.0
aF0.071608906345714
aF0.9974327869746266
ababag3
(g4
g5
Ntp446
Rp447
(lp448
g3
(g9
g5
Ntp449
Rp450
(lp451
F-12.541876047672124
aF-0.25760380968711405
aF0.0
abag3
(g13
g5
Ntp452
Rp453
(lp454
F0.0
aF0.0
aF0.071608906345714
aF0.9974327869746266
ababag3
(g4
g5
Ntp455
Rp456
(lp457
g3
(g9
g5
Ntp458
Rp459
(lp460
F-12.541876047672124
aF-0.25760380968711405
aF0.0
abag3
(g13
g5
Ntp461
Rp462
(lp463
F0.0
aF0.0
aF0.071608906345714
aF0.9974327869746266
ababag3
(g4
g5
Ntp464
Rp465
(lp466
g3
(g9
g5
Ntp467
Rp468
(lp469
F-12.541876047672124
aF-0.25760380968711405
aF0.0
abag3
(g13
g5
Ntp470
Rp471
(lp472
F0.0
aF0.0
aF0.071608906345714
aF0.9974327869746266
ababag3
(g4
g5
Ntp473
Rp474
(lp475
g3
(g9
g5
Ntp476
Rp477
(lp478
F-12.541876047672124
aF-0.25760380968711405
aF0.0
abag3
(g13
g5
Ntp479
Rp480
(lp481
F0.0
aF0.0
aF0.071608906345714
aF0.9974327869746266
ababag3
(g4
g5
Ntp482
Rp483
(lp484
g3
(g9
g5
Ntp485
Rp486
(lp487
F-12.541876047672124
aF-0.25760380968711405
aF0.0
abag3
(g13
g5
Ntp488
Rp489
(lp490
F0.0
aF0.0
aF0.071608906345714
aF0.9974327869746266
ababag3
(g4
g5
Ntp491
Rp492
(lp493
g3
(g9
g5
Ntp494
Rp495
(lp496
F-12.541876047672124
aF-0.25760380968711405
aF0.0
abag3
(g13
g5
Ntp497
Rp498
(lp499
F0.0
aF0.0
aF0.071608906345714
aF0.9974327869746266
ababag3
(g4
g5
Ntp500
Rp501
(lp502
g3
(g9
g5
Ntp503
Rp504
(lp505
F-12.541876047672124
aF-0.25760380968711405
aF0.0
abag3
(g13
g5
Ntp506
Rp507
(lp508
F0.0
aF0.0
aF0.071608906345714
aF0.9974327869746266
ababag3
(g4
g5
Ntp509
Rp510
(lp511
g3
(g9
g5
Ntp512
Rp513
(lp514
F-12.541876047672124
aF-0.25760380968711405
aF0.0
abag3
(g13
g5
Ntp515
Rp516
(lp517
F0.0
aF0.0
aF0.071608906345714
aF0.9974327869746266
ababag3
(g4
g5
Ntp518
Rp519
(lp520
g3
(g9
g5
Ntp521
Rp522
(lp523
F-12.51635955272084
aF-0.262172460775941
aF0.0
abag3
(g13
g5
Ntp524
Rp525
(lp526
F0.0
aF0.0
aF-0.18723256465844612
aF0.9823156146226226
ababag3
(g4
g5
Ntp527
Rp528
(lp529
g3
(g9
g5
Ntp530
Rp531
(lp532
F-12.471168369065136
aF-0.28126288786011155
aF0.0
abag3
(g13
g5
Ntp533
Rp534
(lp535
F0.0
aF0.0
aF-0.42972661240808985
aF0.9029590459086544
ababaaa(lp536
I3
aF17.321000000000026
a(lp537
g3
(g4
g5
Ntp538
Rp539
(lp540
g3
(g9
g5
Ntp541
Rp542
(lp543
F-13.222912622776578
aF-0.09533469892104884
aF0.0
abag3
(g13
g5
Ntp544
Rp545
(lp546
F0.0
aF0.0
aF0.7889214603723826
aF0.6144940433917215
ababag3
(g4
g5
Ntp547
Rp548
(lp549
g3
(g9
g5
Ntp550
Rp551
(lp552
F-13.222912622776578
aF-0.09533469892104884
aF0.0
abag3
(g13
g5
Ntp553
Rp554
(lp555
F0.0
aF0.0
aF0.7889214603723826
aF0.6144940433917215
ababag3
(g4
g5
Ntp556
Rp557
(lp558
g3
(g9
g5
Ntp559
Rp560
(lp561
F-13.23349252093068
aF-0.07684608424517185
aF0.0
abag3
(g13
g5
Ntp562
Rp563
(lp564
F0.0
aF0.0
aF0.8420859784000841
aF0.5393433090175245
ababag3
(g4
g5
Ntp565
Rp566
(lp567
g3
(g9
g5
Ntp568
Rp569
(lp570
F-13.23349252093068
aF-0.07684608424517185
aF0.0
abag3
(g13
g5
Ntp571
Rp572
(lp573
F0.0
aF0.0
aF0.8420859784000841
aF0.5393433090175245
ababag3
(g4
g5
Ntp574
Rp575
(lp576
g3
(g9
g5
Ntp577
Rp578
(lp579
F-13.23349252093068
aF-0.07684608424517185
aF0.0
abag3
(g13
g5
Ntp580
Rp581
(lp582
F0.0
aF0.0
aF0.8420859784000841
aF0.5393433090175245
ababag3
(g4
g5
Ntp583
Rp584
(lp585
g3
(g9
g5
Ntp586
Rp587
(lp588
F-13.257950089742256
aF-0.051850514378412434
aF0.0
abag3
(g13
g5
Ntp589
Rp590
(lp591
F0.0
aF0.0
aF0.9439905822227385
aF0.329972393807081
ababag3
(g4
g5
Ntp592
Rp593
(lp594
g3
(g9
g5
Ntp595
Rp596
(lp597
F-13.257950089742256
aF-0.051850514378412434
aF0.0
abag3
(g13
g5
Ntp598
Rp599
(lp600
F0.0
aF0.0
aF0.9439905822227385
aF0.329972393807081
ababag3
(g4
g5
Ntp601
Rp602
(lp603
g3
(g9
g5
Ntp604
Rp605
(lp606
F-13.27235388540808
aF-0.045076242245010084
aF0.0
abag3
(g13
g5
Ntp607
Rp608
(lp609
F0.0
aF0.0
aF0.9955253204805976
aF0.09449516538957702
ababag3
(g4
g5
Ntp610
Rp611
(lp612
g3
(g9
g5
Ntp613
Rp614
(lp615
F-13.273322658560119
aF-0.08316400471314185
aF0.0
abag3
(g13
g5
Ntp616
Rp617
(lp618
F0.0
aF0.0
aF-0.7814317245352623
aF0.6239907530483492
ababag3
(g4
g5
Ntp619
Rp620
(lp621
g3
(g9
g5
Ntp622
Rp623
(lp624
F-13.16599872408486
aF-0.22933158766571468
aF0.0
abag3
(g13
g5
Ntp625
Rp626
(lp627
F0.0
aF0.0
aF-0.3617757399999085
aF0.9322651521683725
ababag3
(g4
g5
Ntp628
Rp629
(lp630
g3
(g9
g5
Ntp631
Rp632
(lp633
F-12.67842399591477
aF-0.3296238706990117
aF0.0
abag3
(g13
g5
Ntp634
Rp635
(lp636
F0.0
aF0.0
aF0.07368460296769644
aF0.9972815947792745
ababag3
(g4
g5
Ntp637
Rp638
(lp639
g3
(g9
g5
Ntp640
Rp641
(lp642
F-12.67842399591477
aF-0.3296238706990117
aF0.0
abag3
(g13
g5
Ntp643
Rp644
(lp645
F0.0
aF0.0
aF0.07368460296769644
aF0.9972815947792745
ababag3
(g4
g5
Ntp646
Rp647
(lp648
g3
(g9
g5
Ntp649
Rp650
(lp651
F-12.67842399591477
aF-0.3296238706990117
aF0.0
abag3
(g13
g5
Ntp652
Rp653
(lp654
F0.0
aF0.0
aF0.07368460296769644
aF0.9972815947792745
ababag3
(g4
g5
Ntp655
Rp656
(lp657
g3
(g9
g5
Ntp658
Rp659
(lp660
F-12.57107199350663
aF-0.2894701169918579
aF0.0
abag3
(g13
g5
Ntp661
Rp662
(lp663
F0.0
aF0.0
aF0.06637926474698774
aF0.9977944644122102
ababag3
(g4
g5
Ntp664
Rp665
(lp666
g3
(g9
g5
Ntp667
Rp668
(lp669
F-12.57107199350663
aF-0.2894701169918579
aF0.0
abag3
(g13
g5
Ntp670
Rp671
(lp672
F0.0
aF0.0
aF0.06637926474698774
aF0.9977944644122102
ababag3
(g4
g5
Ntp673
Rp674
(lp675
g3
(g9
g5
Ntp676
Rp677
(lp678
F-12.551638594692756
aF-0.28751157894621326
aF0.0
abag3
(g13
g5
Ntp679
Rp680
(lp681
F0.0
aF0.0
aF-0.18160075997339764
aF0.983372342491431
ababag3
(g4
g5
Ntp682
Rp683
(lp684
g3
(g9
g5
Ntp685
Rp686
(lp687
F-12.551638594692756
aF-0.28751157894621326
aF0.0
abag3
(g13
g5
Ntp688
Rp689
(lp690
F0.0
aF0.0
aF-0.18160075997339764
aF0.983372342491431
ababag3
(g4
g5
Ntp691
Rp692
(lp693
g3
(g9
g5
Ntp694
Rp695
(lp696
F-12.532214641260998
aF-0.2956585242495222
aF0.0
abag3
(g13
g5
Ntp697
Rp698
(lp699
F0.0
aF0.0
aF-0.41890252342912654
aF0.9080312086402703
ababaaa(lp700
I3
aF7.2840000000001055
a(lp701
g3
(g4
g5
Ntp702
Rp703
(lp704
g3
(g9
g5
Ntp705
Rp706
(lp707
F-13.22146871502075
aF-0.0959009661823961
aF0.0
abag3
(g13
g5
Ntp708
Rp709
(lp710
F0.0
aF0.0
aF0.7899746199172074
aF0.6131395435679089
ababag3
(g4
g5
Ntp711
Rp712
(lp713
g3
(g9
g5
Ntp714
Rp715
(lp716
F-13.209122182689638
aF-0.09183719751779036
aF0.0
abag3
(g13
g5
Ntp717
Rp718
(lp719
F0.0
aF0.0
aF0.41663414495678164
aF0.9090742484836601
ababag3
(g4
g5
Ntp720
Rp721
(lp722
g3
(g9
g5
Ntp723
Rp724
(lp725
F-13.196111325365377
aF-0.09218932606881813
aF0.0
abag3
(g13
g5
Ntp726
Rp727
(lp728
F0.0
aF0.0
aF0.1347375502376018
aF0.9908813211257793
ababag3
(g4
g5
Ntp729
Rp730
(lp731
g3
(g9
g5
Ntp732
Rp733
(lp734
F-13.029189287800131
aF-0.1101623617030743
aF0.0
abag3
(g13
g5
Ntp735
Rp736
(lp737
F0.0
aF0.0
aF-0.05748567015679206
aF0.998346331553647
ababag3
(g4
g5
Ntp738
Rp739
(lp740
g3
(g9
g5
Ntp741
Rp742
(lp743
F-12.783124285227169
aF-0.16121303135929793
aF0.0
abag3
(g13
g5
Ntp744
Rp745
(lp746
F0.0
aF0.0
aF-0.12910532477737105
aF0.991630886526902
ababag3
(g4
g5
Ntp747
Rp748
(lp749
g3
(g9
g5
Ntp750
Rp751
(lp752
F-12.783124285227169
aF-0.16121303135929793
aF0.0
abag3
(g13
g5
Ntp753
Rp754
(lp755
F0.0
aF0.0
aF-0.12910532477737105
aF0.991630886526902
ababag3
(g4
g5
Ntp756
Rp757
(lp758
g3
(g9
g5
Ntp759
Rp760
(lp761
F-12.599325699277264
aF-0.22066511489169016
aF0.0
abag3
(g13
g5
Ntp762
Rp763
(lp764
F0.0
aF0.0
aF-0.2808485012516204
aF0.9597521134880186
ababag3
(g4
g5
Ntp765
Rp766
(lp767
g3
(g9
g5
Ntp768
Rp769
(lp770
F-12.585353636254784
aF-0.23954361666686175
aF0.0
abag3
(g13
g5
Ntp771
Rp772
(lp773
F0.0
aF0.0
aF-0.5241919378053035
aF0.8516001481563521
ababaaa(lp774
I3
aF4.0
a(lp775
g3
(g4
g5
Ntp776
Rp777
(lp778
g3
(g9
g5
Ntp779
Rp780
(lp781
F-13.221687896512904
aF-0.0963040382953211
aF0.0
abag3
(g13
g5
Ntp782
Rp783
(lp784
F0.0
aF0.0
aF0.7900863933649129
aF0.6129955065248228
ababag3
(g4
g5
Ntp785
Rp786
(lp787
g3
(g9
g5
Ntp788
Rp789
(lp790
F-13.214736572175147
aF-0.08546104177468154
aF0.0
abag3
(g13
g5
Ntp791
Rp792
(lp793
F0.0
aF0.0
aF0.6543722989819807
aF0.7561725294699863
ababag3
(g4
g5
Ntp794
Rp795
(lp796
g3
(g9
g5
Ntp797
Rp798
(lp799
F-12.888614953649743
aF-0.079829574625398
aF0.0
abag3
(g13
g5
Ntp800
Rp801
(lp802
F0.0
aF0.0
aF-0.13392836997033042
aF0.9909910149527544
ababag3
(g4
g5
Ntp803
Rp804
(lp805
g3
(g9
g5
Ntp806
Rp807
(lp808
F-12.651504652806803
aF-0.18870724680082704
aF0.0
abag3
(g13
g5
Ntp809
Rp810
(lp811
F0.0
aF0.0
aF-0.23563004105388458
aF0.971842828729494
ababaaa(lp812
I3
aF14.67999999999995
a(lp813
g3
(g4
g5
Ntp814
Rp815
(lp816
g3
(g9
g5
Ntp817
Rp818
(lp819
F-13.21973356720447
aF-0.09962974594046828
aF0.0
abag3
(g13
g5
Ntp820
Rp821
(lp822
F0.0
aF0.0
aF0.7904505455169896
aF0.6125258648350236
ababag3
(g4
g5
Ntp823
Rp824
(lp825
g3
(g9
g5
Ntp826
Rp827
(lp828
F-13.21973356720447
aF-0.09962974594046828
aF0.0
abag3
(g13
g5
Ntp829
Rp830
(lp831
F0.0
aF0.0
aF0.7904505455169896
aF0.6125258648350236
ababag3
(g4
g5
Ntp832
Rp833
(lp834
g3
(g9
g5
Ntp835
Rp836
(lp837
F-13.227707657384066
aF-0.07253005108432828
aF0.0
abag3
(g13
g5
Ntp838
Rp839
(lp840
F0.0
aF0.0
aF0.8430012064460047
aF0.5379116711232249
ababag3
(g4
g5
Ntp841
Rp842
(lp843
g3
(g9
g5
Ntp844
Rp845
(lp846
F-13.227707657384066
aF-0.07253005108432828
aF0.0
abag3
(g13
g5
Ntp847
Rp848
(lp849
F0.0
aF0.0
aF0.8430012064460047
aF0.5379116711232249
ababag3
(g4
g5
Ntp850
Rp851
(lp852
g3
(g9
g5
Ntp853
Rp854
(lp855
F-13.250545317780547
aF-0.04513463759456552
aF0.0
abag3
(g13
g5
Ntp856
Rp857
(lp858
F0.0
aF0.0
aF0.9458331895468001
aF0.32465301100055566
ababag3
(g4
g5
Ntp859
Rp860
(lp861
g3
(g9
g5
Ntp862
Rp863
(lp864
F-13.26885050629527
aF-0.03893058328288561
aF0.0
abag3
(g13
g5
Ntp865
Rp866
(lp867
F0.0
aF0.0
aF-0.9841134416058545
aF0.17754079545468016
ababag3
(g4
g5
Ntp868
Rp869
(lp870
g3
(g9
g5
Ntp871
Rp872
(lp873
F-13.256248118958927
aF-0.1388506864316337
aF0.0
abag3
(g13
g5
Ntp874
Rp875
(lp876
F0.0
aF0.0
aF-0.5496527779094512
aF0.8353932150409312
ababag3
(g4
g5
Ntp877
Rp878
(lp879
g3
(g9
g5
Ntp880
Rp881
(lp882
F-12.892508239114386
aF-0.3392944635612968
aF0.0
abag3
(g13
g5
Ntp883
Rp884
(lp885
F0.0
aF0.0
aF-0.037390250840327474
aF0.9993007400888371
ababag3
(g4
g5
Ntp886
Rp887
(lp888
g3
(g9
g5
Ntp889
Rp890
(lp891
F-12.648386131729527
aF-0.3038819388220075
aF0.0
abag3
(g13
g5
Ntp892
Rp893
(lp894
F0.0
aF0.0
aF0.14339853454420554
aF0.9896650242837595
ababag3
(g4
g5
Ntp895
Rp896
(lp897
g3
(g9
g5
Ntp898
Rp899
(lp900
F-12.648386131729527
aF-0.3038819388220075
aF0.0
abag3
(g13
g5
Ntp901
Rp902
(lp903
F0.0
aF0.0
aF0.14339853454420554
aF0.9896650242837595
ababag3
(g4
g5
Ntp904
Rp905
(lp906
g3
(g9
g5
Ntp907
Rp908
(lp909
F-12.648386131729527
aF-0.3038819388220075
aF0.0
abag3
(g13
g5
Ntp910
Rp911
(lp912
F0.0
aF0.0
aF0.14339853454420554
aF0.9896650242837595
ababag3
(g4
g5
Ntp913
Rp914
(lp915
g3
(g9
g5
Ntp916
Rp917
(lp918
F-12.520477519831605
aF-0.27713326044125874
aF0.0
abag3
(g13
g5
Ntp919
Rp920
(lp921
F0.0
aF0.0
aF-0.07912542191798316
aF0.9968646686518191
ababag3
(g4
g5
Ntp922
Rp923
(lp924
g3
(g9
g5
Ntp925
Rp926
(lp927
F-12.520477519831605
aF-0.27713326044125874
aF0.0
abag3
(g13
g5
Ntp928
Rp929
(lp930
F0.0
aF0.0
aF-0.07912542191798316
aF0.9968646686518191
ababag3
(g4
g5
Ntp931
Rp932
(lp933
g3
(g9
g5
Ntp934
Rp935
(lp936
F-12.50252705632116
aF-0.28519907069666184
aF0.0
abag3
(g13
g5
Ntp937
Rp938
(lp939
F0.0
aF0.0
aF-0.33381099714204043
aF0.9426400257717877
ababag3
(g4
g5
Ntp940
Rp941
(lp942
g3
(g9
g5
Ntp943
Rp944
(lp945
F-12.50252705632116
aF-0.28519907069666184
aF0.0
abag3
(g13
g5
Ntp946
Rp947
(lp948
F0.0
aF0.0
aF-0.33381099714204043
aF0.9426400257717877
ababaaa.