(lp0
(lp1
I3
aF16.243000000000166
a(lp2
ccopy_reg
_reconstructor
p3
(cgeometry_msgs.msg._Pose
Pose
p4
c__builtin__
object
p5
Ntp6
Rp7
(lp8
g3
(cgeometry_msgs.msg._Point
Point
p9
g5
Ntp10
Rp11
(lp12
F-2.7379923485533797
aF-0.11836045070865717
aF0.0
abag3
(cgeometry_msgs.msg._Quaternion
Quaternion
p13
g5
Ntp14
Rp15
(lp16
F0.0
aF0.0
aF0.6435328395485976
aF0.7654185027960317
ababag3
(g4
g5
Ntp17
Rp18
(lp19
g3
(g9
g5
Ntp20
Rp21
(lp22
F-2.6959469828680835
aF-0.0471464438082084
aF0.0
abag3
(g13
g5
Ntp23
Rp24
(lp25
F0.0
aF0.0
aF0.30490378397915224
aF0.9523831595083958
ababag3
(g4
g5
Ntp26
Rp27
(lp28
g3
(g9
g5
Ntp29
Rp30
(lp31
F-2.269981569529389
aF-0.007528173043603113
aF0.0
abag3
(g13
g5
Ntp32
Rp33
(lp34
F0.0
aF0.0
aF-0.054026613284572714
aF0.9985394959925217
ababag3
(g4
g5
Ntp35
Rp36
(lp37
g3
(g9
g5
Ntp38
Rp39
(lp40
F-1.2684509889030702
aF-0.06726018816913067
aF0.0
abag3
(g13
g5
Ntp41
Rp42
(lp43
F0.0
aF0.0
aF0.01233819137874873
aF0.9999238816197468
ababag3
(g4
g5
Ntp44
Rp45
(lp46
g3
(g9
g5
Ntp47
Rp48
(lp49
F-0.22797995296017304
aF0.029859664981136493
aF0.0
abag3
(g13
g5
Ntp50
Rp51
(lp52
F0.0
aF0.0
aF0.06447381100034547
aF0.9979193993981136
ababag3
(g4
g5
Ntp53
Rp54
(lp55
g3
(g9
g5
Ntp56
Rp57
(lp58
F0.7956925301604104
aF0.20555103089866178
aF0.0
abag3
(g13
g5
Ntp59
Rp60
(lp61
F0.0
aF0.0
aF0.11459883126660637
aF0.99341185208972
ababag3
(g4
g5
Ntp62
Rp63
(lp64
g3
(g9
g5
Ntp65
Rp66
(lp67
F1.560500193149168
aF0.3559166337512373
aF0.0
abag3
(g13
g5
Ntp68
Rp69
(lp70
F0.0
aF0.0
aF0.08048947250892129
aF0.9967554588840913
ababag3
(g4
g5
Ntp71
Rp72
(lp73
g3
(g9
g5
Ntp74
Rp75
(lp76
F2.603711162308125
aF0.45250746743683357
aF0.0
abag3
(g13
g5
Ntp77
Rp78
(lp79
F0.0
aF0.0
aF0.029746442813693184
aF0.9995574766565111
ababag3
(g4
g5
Ntp80
Rp81
(lp82
g3
(g9
g5
Ntp83
Rp84
(lp85
F3.6601877494328576
aF0.4780152971112666
aF0.0
abag3
(g13
g5
Ntp86
Rp87
(lp88
F0.0
aF0.0
aF-0.006887251134723141
aF0.9999762826046462
ababag3
(g4
g5
Ntp89
Rp90
(lp91
g3
(g9
g5
Ntp92
Rp93
(lp94
F4.708211467018678
aF0.36807093693853876
aF0.0
abag3
(g13
g5
Ntp95
Rp96
(lp97
F0.0
aF0.0
aF-0.10856775473327146
aF0.9940890516609546
ababag3
(g4
g5
Ntp98
Rp99
(lp100
g3
(g9
g5
Ntp101
Rp102
(lp103
F5.460132245126099
aF0.16689318349584695
aF0.0
abag3
(g13
g5
Ntp104
Rp105
(lp106
F0.0
aF0.0
aF-0.1535368378757319
aF0.9881429245889084
ababag3
(g4
g5
Ntp107
Rp108
(lp109
g3
(g9
g5
Ntp110
Rp111
(lp112
F6.232758680746034
aF-0.09235791913487068
aF0.0
abag3
(g13
g5
Ntp113
Rp114
(lp115
F0.0
aF0.0
aF-0.18036726027975422
aF0.9835993348000879
ababag3
(g4
g5
Ntp116
Rp117
(lp118
g3
(g9
g5
Ntp119
Rp120
(lp121
F6.480926654897308
aF-0.18948780644118118
aF0.0
abag3
(g13
g5
Ntp122
Rp123
(lp124
F0.0
aF0.0
aF-0.18713599305022616
aF0.9823340165672294
ababag3
(g4
g5
Ntp125
Rp126
(lp127
g3
(g9
g5
Ntp128
Rp129
(lp130
F6.736952406142509
aF-0.2969265366985865
aF0.0
abag3
(g13
g5
Ntp131
Rp132
(lp133
F0.0
aF0.0
aF-0.20007368683996646
aF0.9797808529636937
ababag3
(g4
g5
Ntp134
Rp135
(lp136
g3
(g9
g5
Ntp137
Rp138
(lp139
F6.736952406142509
aF-0.2969265366985865
aF0.0
abag3
(g13
g5
Ntp140
Rp141
(lp142
F0.0
aF0.0
aF-0.20007368683996646
aF0.9797808529636937
ababag3
(g4
g5
Ntp143
Rp144
(lp145
g3
(g9
g5
Ntp146
Rp147
(lp148
F6.828630122553417
aF-0.33853867168960633
aF0.0
abag3
(g13
g5
Ntp149
Rp150
(lp151
F0.0
aF0.0
aF-0.4473133434782594
aF0.8943773100578417
ababag3
(g4
g5
Ntp152
Rp153
(lp154
g3
(g9
g5
Ntp155
Rp156
(lp157
F6.828630122553417
aF-0.33853867168960633
aF0.0
abag3
(g13
g5
Ntp158
Rp159
(lp160
F0.0
aF0.0
aF-0.4473133434782594
aF0.8943773100578417
ababaaa(lp161
I3
aF25.88000000000011
a(lp162
g3
(g4
g5
Ntp163
Rp164
(lp165
g3
(g9
g5
Ntp166
Rp167
(lp168
F-2.7379923485533957
aF-0.11836045070866874
aF0.0
abag3
(g13
g5
Ntp169
Rp170
(lp171
F0.0
aF0.0
aF0.6435328395485976
aF0.7654185027960317
ababag3
(g4
g5
Ntp172
Rp173
(lp174
g3
(g9
g5
Ntp175
Rp176
(lp177
F-2.7379923485533957
aF-0.11836045070866874
aF0.0
abag3
(g13
g5
Ntp178
Rp179
(lp180
F0.0
aF0.0
aF0.6435328395485976
aF0.7654185027960317
ababag3
(g4
g5
Ntp181
Rp182
(lp183
g3
(g9
g5
Ntp184
Rp185
(lp186
F-2.73221283010266
aF-0.0945221524146104
aF0.0
abag3
(g13
g5
Ntp187
Rp188
(lp189
F0.0
aF0.0
aF0.7486860695033095
aF0.6629247086447191
ababag3
(g4
g5
Ntp190
Rp191
(lp192
g3
(g9
g5
Ntp193
Rp194
(lp195
F-2.73221283010266
aF-0.0945221524146104
aF0.0
abag3
(g13
g5
Ntp196
Rp197
(lp198
F0.0
aF0.0
aF0.7486860695033095
aF0.6629247086447191
ababag3
(g4
g5
Ntp199
Rp200
(lp201
g3
(g9
g5
Ntp202
Rp203
(lp204
F-2.73221283010266
aF-0.0945221524146104
aF0.0
abag3
(g13
g5
Ntp205
Rp206
(lp207
F0.0
aF0.0
aF0.7486860695033095
aF0.6629247086447191
ababag3
(g4
g5
Ntp208
Rp209
(lp210
g3
(g9
g5
Ntp211
Rp212
(lp213
F-2.7480448422756214
aF-0.06812175541574013
aF0.0
abag3
(g13
g5
Ntp214
Rp215
(lp216
F0.0
aF0.0
aF0.8984667104957648
aF0.43904164965401593
ababag3
(g4
g5
Ntp217
Rp218
(lp219
g3
(g9
g5
Ntp220
Rp221
(lp222
F-2.7480448422756214
aF-0.06812175541574013
aF0.0
abag3
(g13
g5
Ntp223
Rp224
(lp225
F0.0
aF0.0
aF0.8984667104957648
aF0.43904164965401593
ababag3
(g4
g5
Ntp226
Rp227
(lp228
g3
(g9
g5
Ntp229
Rp230
(lp231
F-2.7480448422756214
aF-0.06812175541574013
aF0.0
abag3
(g13
g5
Ntp232
Rp233
(lp234
F0.0
aF0.0
aF0.8984667104957648
aF0.43904164965401593
ababag3
(g4
g5
Ntp235
Rp236
(lp237
g3
(g9
g5
Ntp238
Rp239
(lp240
F-2.7688523344645795
aF-0.05561622286726004
aF0.0
abag3
(g13
g5
Ntp241
Rp242
(lp243
F0.0
aF0.0
aF0.9824789521458556
aF0.18637357267161456
ababag3
(g4
g5
Ntp244
Rp245
(lp246
g3
(g9
g5
Ntp247
Rp248
(lp249
F-2.8393644922490906
aF-0.12422792457669592
aF0.0
abag3
(g13
g5
Ntp250
Rp251
(lp252
F0.0
aF0.0
aF-0.8095653353278208
aF0.5870297844535258
ababag3
(g4
g5
Ntp253
Rp254
(lp255
g3
(g9
g5
Ntp256
Rp257
(lp258
F-2.7355584758855036
aF-0.4288921460850543
aF0.0
abag3
(g13
g5
Ntp259
Rp260
(lp261
F0.0
aF0.0
aF-0.4288142883030807
aF0.9033926644306574
ababag3
(g4
g5
Ntp262
Rp263
(lp264
g3
(g9
g5
Ntp265
Rp266
(lp267
F-1.9938904219664217
aF-0.6802579798960018
aF0.0
abag3
(g13
g5
Ntp268
Rp269
(lp270
F0.0
aF0.0
aF0.020792956497604962
aF0.9997838031094967
ababag3
(g4
g5
Ntp271
Rp272
(lp273
g3
(g9
g5
Ntp274
Rp275
(lp276
F-1.092666941363969
aF-0.340388246748228
aF0.0
abag3
(g13
g5
Ntp277
Rp278
(lp279
F0.0
aF0.0
aF0.3037756955924517
aF0.9527435787069478
ababag3
(g4
g5
Ntp280
Rp281
(lp282
g3
(g9
g5
Ntp283
Rp284
(lp285
F-0.19582637704647243
aF0.17518147719497962
aF0.0
abag3
(g13
g5
Ntp286
Rp287
(lp288
F0.0
aF0.0
aF0.18788536849989604
aF0.9821909632569719
ababag3
(g4
g5
Ntp289
Rp290
(lp291
g3
(g9
g5
Ntp292
Rp293
(lp294
F0.8142718290943822
aF0.43794306826759005
aF0.0
abag3
(g13
g5
Ntp295
Rp296
(lp297
F0.0
aF0.0
aF0.07520499232308517
aF0.997168094721088
ababag3
(g4
g5
Ntp298
Rp299
(lp300
g3
(g9
g5
Ntp301
Rp302
(lp303
F1.6007690548562028
aF0.5036094313385321
aF0.0
abag3
(g13
g5
Ntp304
Rp305
(lp306
F0.0
aF0.0
aF0.020813618394854804
aF0.9997833731810674
ababag3
(g4
g5
Ntp307
Rp308
(lp309
g3
(g9
g5
Ntp310
Rp311
(lp312
F2.6492328740513913
aF0.5120119972668721
aF0.0
abag3
(g13
g5
Ntp313
Rp314
(lp315
F0.0
aF0.0
aF-0.008720308911128969
aF0.9999619773833875
ababag3
(g4
g5
Ntp316
Rp317
(lp318
g3
(g9
g5
Ntp319
Rp320
(lp321
F3.6971327724358196
aF0.499821856994619
aF0.0
abag3
(g13
g5
Ntp322
Rp323
(lp324
F0.0
aF0.0
aF-0.021991196785332973
aF0.9997581643897432
ababag3
(g4
g5
Ntp325
Rp326
(lp327
g3
(g9
g5
Ntp328
Rp329
(lp330
F4.723584330250755
aF0.34379112469739453
aF0.0
abag3
(g13
g5
Ntp331
Rp332
(lp333
F0.0
aF0.0
aF-0.13113095941084588
aF0.9913650546009735
ababag3
(g4
g5
Ntp334
Rp335
(lp336
g3
(g9
g5
Ntp337
Rp338
(lp339
F5.480983608602593
aF0.11445492399110331
aF0.0
abag3
(g13
g5
Ntp340
Rp341
(lp342
F0.0
aF0.0
aF-0.1542223570479355
aF0.9880361656268353
ababag3
(g4
g5
Ntp343
Rp344
(lp345
g3
(g9
g5
Ntp346
Rp347
(lp348
F6.245860384975873
aF-0.13093362399710592
aF0.0
abag3
(g13
g5
Ntp349
Rp350
(lp351
F0.0
aF0.0
aF-0.16487070715249827
aF0.9863151879206946
ababag3
(g4
g5
Ntp352
Rp353
(lp354
g3
(g9
g5
Ntp355
Rp356
(lp357
F6.48023907781042
aF-0.21165852962762238
aF0.0
abag3
(g13
g5
Ntp358
Rp359
(lp360
F0.0
aF0.0
aF-0.1677007201088545
aF0.9858379524419678
ababag3
(g4
g5
Ntp361
Rp362
(lp363
g3
(g9
g5
Ntp364
Rp365
(lp366
F6.724946335586518
aF-0.29831538523533296
aF0.0
abag3
(g13
g5
Ntp367
Rp368
(lp369
F0.0
aF0.0
aF-0.17809738229424005
aF0.9840128669991767
ababag3
(g4
g5
Ntp370
Rp371
(lp372
g3
(g9
g5
Ntp373
Rp374
(lp375
F6.724946335586518
aF-0.29831538523533296
aF0.0
abag3
(g13
g5
Ntp376
Rp377
(lp378
F0.0
aF0.0
aF-0.17809738229424005
aF0.9840128669991767
ababag3
(g4
g5
Ntp379
Rp380
(lp381
g3
(g9
g5
Ntp382
Rp383
(lp384
F6.724946335586518
aF-0.29831538523533296
aF0.0
abag3
(g13
g5
Ntp385
Rp386
(lp387
F0.0
aF0.0
aF-0.17809738229424005
aF0.9840128669991767
ababag3
(g4
g5
Ntp388
Rp389
(lp390
g3
(g9
g5
Ntp391
Rp392
(lp393
F6.829517038221657
aF-0.33959512180538554
aF0.0
abag3
(g13
g5
Ntp394
Rp395
(lp396
F0.0
aF0.0
aF-0.42147224249387244
aF0.90684130298922
ababaaa(lp397
I3
aF15.118999999999915
a(lp398
g3
(g4
g5
Ntp399
Rp400
(lp401
g3
(g9
g5
Ntp402
Rp403
(lp404
F-2.7352961014466857
aF-0.12070856354601585
aF0.0
abag3
(g13
g5
Ntp405
Rp406
(lp407
F0.0
aF0.0
aF0.6439081772666233
aF0.7651027769190063
ababag3
(g4
g5
Ntp408
Rp409
(lp410
g3
(g9
g5
Ntp411
Rp412
(lp413
F-2.657418538750725
aF-0.01874691082387712
aF0.0
abag3
(g13
g5
Ntp414
Rp415
(lp416
F0.0
aF0.0
aF0.30791237678566413
aF0.9514147193638551
ababag3
(g4
g5
Ntp417
Rp418
(lp419
g3
(g9
g5
Ntp420
Rp421
(lp422
F-1.9455685896959338
aF0.07500525097351646
aF0.0
abag3
(g13
g5
Ntp423
Rp424
(lp425
F0.0
aF0.0
aF-0.048087622270206964
aF0.9988431211078134
ababag3
(g4
g5
Ntp426
Rp427
(lp428
g3
(g9
g5
Ntp429
Rp430
(lp431
F-0.9227573133523796
aF0.026930773201343374
aF0.0
abag3
(g13
g5
Ntp432
Rp433
(lp434
F0.0
aF0.0
aF0.003984998454320193
aF0.9999920598621367
ababag3
(g4
g5
Ntp435
Rp436
(lp437
g3
(g9
g5
Ntp438
Rp439
(lp440
F-0.1353415390336961
aF0.05416195774339351
aF0.0
abag3
(g13
g5
Ntp441
Rp442
(lp443
F0.0
aF0.0
aF0.03726426975443037
aF0.9993054458971337
ababag3
(g4
g5
Ntp444
Rp445
(lp446
g3
(g9
g5
Ntp447
Rp448
(lp449
F0.8961608016839354
aF0.23106740005130139
aF0.0
abag3
(g13
g5
Ntp450
Rp451
(lp452
F0.0
aF0.0
aF0.12612310887495376
aF0.9920145973763272
ababag3
(g4
g5
Ntp453
Rp454
(lp455
g3
(g9
g5
Ntp456
Rp457
(lp458
F1.9301892829723097
aF0.43960668522329377
aF0.0
abag3
(g13
g5
Ntp459
Rp460
(lp461
F0.0
aF0.0
aF0.05926984867765186
aF0.998241997231998
ababag3
(g4
g5
Ntp462
Rp463
(lp464
g3
(g9
g5
Ntp465
Rp466
(lp467
F3.000619317053371
aF0.49037012275025044
aF0.0
abag3
(g13
g5
Ntp468
Rp469
(lp470
F0.0
aF0.0
aF0.003867363480408053
aF0.9999925217218929
ababag3
(g4
g5
Ntp471
Rp472
(lp473
g3
(g9
g5
Ntp474
Rp475
(lp476
F3.7948623650508004
aF0.48452803317658605
aF0.0
abag3
(g13
g5
Ntp477
Rp478
(lp479
F0.0
aF0.0
aF-0.02228493181753366
aF0.9997516600705837
ababag3
(g4
g5
Ntp480
Rp481
(lp482
g3
(g9
g5
Ntp483
Rp484
(lp485
F4.768646398442668
aF0.36180369618493285
aF0.0
abag3
(g13
g5
Ntp486
Rp487
(lp488
F0.0
aF0.0
aF-0.1165004932424984
aF0.9931906338031258
ababag3
(g4
g5
Ntp489
Rp490
(lp491
g3
(g9
g5
Ntp492
Rp493
(lp494
F5.715240317034974
aF0.11397091307100209
aF0.0
abag3
(g13
g5
Ntp495
Rp496
(lp497
F0.0
aF0.0
aF-0.15786584700965825
aF0.9874605685028254
ababag3
(g4
g5
Ntp498
Rp499
(lp500
g3
(g9
g5
Ntp501
Rp502
(lp503
F6.479449289151464
aF-0.1714257131860573
aF0.0
abag3
(g13
g5
Ntp504
Rp505
(lp506
F0.0
aF0.0
aF-0.2065726410774941
aF0.978431266854381
ababag3
(g4
g5
Ntp507
Rp508
(lp509
g3
(g9
g5
Ntp510
Rp511
(lp512
F6.694091434993106
aF-0.2719603630175838
aF0.0
abag3
(g13
g5
Ntp513
Rp514
(lp515
F0.0
aF0.0
aF-0.2175506062570395
aF0.976049042680333
ababag3
(g4
g5
Ntp516
Rp517
(lp518
g3
(g9
g5
Ntp519
Rp520
(lp521
F6.694091434993106
aF-0.2719603630175838
aF0.0
abag3
(g13
g5
Ntp522
Rp523
(lp524
F0.0
aF0.0
aF-0.2175506062570395
aF0.976049042680333
ababag3
(g4
g5
Ntp525
Rp526
(lp527
g3
(g9
g5
Ntp528
Rp529
(lp530
F6.787298194444489
aF-0.3364174940809753
aF0.0
abag3
(g13
g5
Ntp531
Rp532
(lp533
F0.0
aF0.0
aF-0.4642787566194949
aF0.8856891306501711
ababag3
(g4
g5
Ntp534
Rp535
(lp536
g3
(g9
g5
Ntp537
Rp538
(lp539
F6.787298194444489
aF-0.3364174940809753
aF0.0
abag3
(g13
g5
Ntp540
Rp541
(lp542
F0.0
aF0.0
aF-0.4642787566194949
aF0.8856891306501711
ababaaa(lp543
I3
aF17.0
a(lp544
g3
(g4
g5
Ntp545
Rp546
(lp547
g3
(g9
g5
Ntp548
Rp549
(lp550
F-2.742123700305103
aF-0.12164933784364569
aF0.0
abag3
(g13
g5
Ntp551
Rp552
(lp553
F0.0
aF0.0
aF0.6370096566757633
aF0.7708558213452281
ababag3
(g4
g5
Ntp554
Rp555
(lp556
g3
(g9
g5
Ntp557
Rp558
(lp559
F-2.7253832846272394
aF-0.09321815865766814
aF0.0
abag3
(g13
g5
Ntp560
Rp561
(lp562
F0.0
aF0.0
aF0.5174627224846314
aF0.8557057501494268
ababag3
(g4
g5
Ntp563
Rp564
(lp565
g3
(g9
g5
Ntp566
Rp567
(lp568
F-2.146633277011004
aF0.19069270415815676
aF0.0
abag3
(g13
g5
Ntp569
Rp570
(lp571
F0.0
aF0.0
aF0.10195155037527731
aF0.9947893653312129
ababag3
(g4
g5
Ntp572
Rp573
(lp574
g3
(g9
g5
Ntp575
Rp576
(lp577
F-1.1011359095913982
aF0.278601891110283
aF0.0
abag3
(g13
g5
Ntp578
Rp579
(lp580
F0.0
aF0.0
aF-0.006001435440208256
aF0.9999819912241705
ababag3
(g4
g5
Ntp581
Rp582
(lp583
g3
(g9
g5
Ntp584
Rp585
(lp586
F-0.05968138195936083
aF0.2663826113909804
aF0.0
abag3
(g13
g5
Ntp587
Rp588
(lp589
F0.0
aF0.0
aF0.0053082507172367965
aF0.9999859111379135
ababag3
(g4
g5
Ntp590
Rp591
(lp592
g3
(g9
g5
Ntp593
Rp594
(lp595
F0.9952673964205593
aF0.33980032618032713
aF0.0
abag3
(g13
g5
Ntp596
Rp597
(lp598
F0.0
aF0.0
aF0.06949414344698779
aF0.9975823595205408
ababag3
(g4
g5
Ntp599
Rp600
(lp601
g3
(g9
g5
Ntp602
Rp603
(lp604
F1.778805766142534
aF0.44034971151376834
aF0.0
abag3
(g13
g5
Ntp605
Rp606
(lp607
F0.0
aF0.0
aF0.05728568577099763
aF0.9983578267363593
ababag3
(g4
g5
Ntp608
Rp609
(lp610
g3
(g9
g5
Ntp611
Rp612
(lp613
F2.838943217705756
aF0.514841321506891
aF0.0
abag3
(g13
g5
Ntp614
Rp615
(lp616
F0.0
aF0.0
aF0.009530844231764238
aF0.9999545804726482
ababag3
(g4
g5
Ntp617
Rp618
(lp619
g3
(g9
g5
Ntp620
Rp621
(lp622
F3.901725362170985
aF0.49311365933071877
aF0.0
abag3
(g13
g5
Ntp623
Rp624
(lp625
F0.0
aF0.0
aF-0.04587610485585467
aF0.9989471372416333
ababag3
(g4
g5
Ntp626
Rp627
(lp628
g3
(g9
g5
Ntp629
Rp630
(lp631
F4.92143233804182
aF0.31496786190507925
aF0.0
abag3
(g13
g5
Ntp632
Rp633
(lp634
F0.0
aF0.0
aF-0.1564517227519624
aF0.9876856070875707
ababag3
(g4
g5
Ntp635
Rp636
(lp637
g3
(g9
g5
Ntp638
Rp639
(lp640
F5.64763679761636
aF0.03344057503617595
aF0.0
abag3
(g13
g5
Ntp641
Rp642
(lp643
F0.0
aF0.0
aF-0.17196952095627668
aF0.9851022707628222
ababag3
(g4
g5
Ntp644
Rp645
(lp646
g3
(g9
g5
Ntp647
Rp648
(lp649
F6.348708877613884
aF-0.19135488275461585
aF0.0
abag3
(g13
g5
Ntp650
Rp651
(lp652
F0.0
aF0.0
aF-0.14858744610376048
aF0.988899272353035
ababag3
(g4
g5
Ntp653
Rp654
(lp655
g3
(g9
g5
Ntp656
Rp657
(lp658
F6.546143728300763
aF-0.25587221203929594
aF0.0
abag3
(g13
g5
Ntp659
Rp660
(lp661
F0.0
aF0.0
aF-0.15481936214644682
aF0.9879427944494394
ababag3
(g4
g5
Ntp662
Rp663
(lp664
g3
(g9
g5
Ntp665
Rp666
(lp667
F6.75594493902896
aF-0.32031794550066
aF0.0
abag3
(g13
g5
Ntp668
Rp669
(lp670
F0.0
aF0.0
aF-0.140233619611455
aF0.9901184433847648
ababag3
(g4
g5
Ntp671
Rp672
(lp673
g3
(g9
g5
Ntp674
Rp675
(lp676
F6.75594493902896
aF-0.32031794550066
aF0.0
abag3
(g13
g5
Ntp677
Rp678
(lp679
F0.0
aF0.0
aF-0.140233619611455
aF0.9901184433847648
ababag3
(g4
g5
Ntp680
Rp681
(lp682
g3
(g9
g5
Ntp683
Rp684
(lp685
F6.88887095833592
aF-0.36150473196088556
aF0.0
abag3
(g13
g5
Ntp686
Rp687
(lp688
F0.0
aF0.0
aF-0.2680416596705202
aF0.9634073223102848
ababag3
(g4
g5
Ntp689
Rp690
(lp691
g3
(g9
g5
Ntp692
Rp693
(lp694
F6.88887095833592
aF-0.36150473196088556
aF0.0
abag3
(g13
g5
Ntp695
Rp696
(lp697
F0.0
aF0.0
aF-0.2680416596705202
aF0.9634073223102848
ababaaa(lp698
I3
aF15.599999999999909
a(lp699
g3
(g4
g5
Ntp700
Rp701
(lp702
g3
(g9
g5
Ntp703
Rp704
(lp705
F-2.7387376071216885
aF-0.12096699194021372
aF0.0
abag3
(g13
g5
Ntp706
Rp707
(lp708
F0.0
aF0.0
aF0.6441567410413687
aF0.7648935174068108
ababag3
(g4
g5
Ntp709
Rp710
(lp711
g3
(g9
g5
Ntp712
Rp713
(lp714
F-2.6886857784597296
aF-0.030042253943731754
aF0.0
abag3
(g13
g5
Ntp715
Rp716
(lp717
F0.0
aF0.0
aF0.3381455648209737
aF0.9410938194419857
ababag3
(g4
g5
Ntp718
Rp719
(lp720
g3
(g9
g5
Ntp721
Rp722
(lp723
F-2.123365606836417
aF0.1002087079710749
aF0.0
abag3
(g13
g5
Ntp724
Rp725
(lp726
F0.0
aF0.0
aF0.0022241217321345968
aF0.9999975266382015
ababag3
(g4
g5
Ntp727
Rp728
(lp729
g3
(g9
g5
Ntp730
Rp731
(lp732
F-1.0853453963155077
aF0.027498969792048154
aF0.0
abag3
(g13
g5
Ntp733
Rp734
(lp735
F0.0
aF0.0
aF-0.007895481636239808
aF0.9999688301990877
ababag3
(g4
g5
Ntp736
Rp737
(lp738
g3
(g9
g5
Ntp739
Rp740
(lp741
F-0.24246620105552472
aF0.06498602526670566
aF0.0
abag3
(g13
g5
Ntp742
Rp743
(lp744
F0.0
aF0.0
aF0.04231183207340338
aF0.9991044534314678
ababag3
(g4
g5
Ntp745
Rp746
(lp747
g3
(g9
g5
Ntp748
Rp749
(lp750
F0.731013447796982
aF0.2130512438358092
aF0.0
abag3
(g13
g5
Ntp751
Rp752
(lp753
F0.0
aF0.0
aF0.10888097050659407
aF0.9940547943959338
ababag3
(g4
g5
Ntp754
Rp755
(lp756
g3
(g9
g5
Ntp757
Rp758
(lp759
F1.8296633526139223
aF0.4441227250609248
aF0.0
abag3
(g13
g5
Ntp760
Rp761
(lp762
F0.0
aF0.0
aF0.07147402534493691
aF0.9974424613485188
ababag3
(g4
g5
Ntp763
Rp764
(lp765
g3
(g9
g5
Ntp766
Rp767
(lp768
F2.8284065069511293
aF0.5219880767202417
aF0.0
abag3
(g13
g5
Ntp769
Rp770
(lp771
F0.0
aF0.0
aF0.008093984693841082
aF0.9999672431693829
ababag3
(g4
g5
Ntp772
Rp773
(lp774
g3
(g9
g5
Ntp775
Rp776
(lp777
F3.8811940655638315
aF0.5109499368001352
aF0.0
abag3
(g13
g5
Ntp778
Rp779
(lp780
F0.0
aF0.0
aF-0.034193300394535324
aF0.9994152381308428
ababag3
(g4
g5
Ntp781
Rp782
(lp783
g3
(g9
g5
Ntp784
Rp785
(lp786
F4.655801484441246
aF0.41356963766291566
aF0.0
abag3
(g13
g5
Ntp787
Rp788
(lp789
F0.0
aF0.0
aF-0.10704925692228795
aF0.9942537184201958
ababag3
(g4
g5
Ntp790
Rp791
(lp792
g3
(g9
g5
Ntp793
Rp794
(lp795
F5.666194155488124
aF0.12610193739804418
aF0.0
abag3
(g13
g5
Ntp796
Rp797
(lp798
F0.0
aF0.0
aF-0.16689914249923987
aF0.9859739734054943
ababag3
(g4
g5
Ntp799
Rp800
(lp801
g3
(g9
g5
Ntp802
Rp803
(lp804
F6.37165274042148
aF-0.12801269693896558
aF0.0
abag3
(g13
g5
Ntp805
Rp806
(lp807
F0.0
aF0.0
aF-0.18894303102960253
aF0.9819880503475318
ababag3
(g4
g5
Ntp808
Rp809
(lp810
g3
(g9
g5
Ntp811
Rp812
(lp813
F6.558732917046179
aF-0.20458073134461224
aF0.0
abag3
(g13
g5
Ntp814
Rp815
(lp816
F0.0
aF0.0
aF-0.20084774571248323
aF0.9796224696495144
ababag3
(g4
g5
Ntp817
Rp818
(lp819
g3
(g9
g5
Ntp820
Rp821
(lp822
F6.753034256179701
aF-0.290217378118122
aF0.0
abag3
(g13
g5
Ntp823
Rp824
(lp825
F0.0
aF0.0
aF-0.2388875309116749
aF0.9710472427101184
ababag3
(g4
g5
Ntp826
Rp827
(lp828
g3
(g9
g5
Ntp829
Rp830
(lp831
F6.753034256179701
aF-0.290217378118122
aF0.0
abag3
(g13
g5
Ntp832
Rp833
(lp834
F0.0
aF0.0
aF-0.2388875309116749
aF0.9710472427101184
ababag3
(g4
g5
Ntp835
Rp836
(lp837
g3
(g9
g5
Ntp838
Rp839
(lp840
F6.785063213055268
aF-0.312451492920033
aF0.0
abag3
(g13
g5
Ntp841
Rp842
(lp843
F0.0
aF0.0
aF-0.48202953485868794
aF0.876154967756228
ababaaa.